

Microchip MPLAB XC8 Assembler V2.46 build 20240104201356 
                                                                                               Mon Sep 16 23:56:28 2024

Microchip MPLAB XC8 C Compiler v2.46 (Free license) build 20240104201356 Og1 
     1                           	processor	18F4620
     2                           	fnconf	rparam,??,?,0
     3                           	pagewidth 120
     4                           	opt	flic
     5                           	psect	idataCOMRAM,global,class=CODE,delta=1,noexec
     6                           	psect	idataBANK0,global,class=CODE,delta=1,noexec
     7                           	psect	smallconst,global,reloc=2,class=SMALLCONST,delta=1,noexec
     8                           	psect	cinit,global,reloc=2,class=CODE,delta=1
     9                           	psect	bssCOMRAM,global,class=COMRAM,space=1,delta=1,lowdata,noexec
    10                           	psect	dataCOMRAM,global,class=COMRAM,space=1,delta=1,lowdata,noexec
    11                           	psect	bssBANK0,global,class=BANK0,space=1,delta=1,lowdata,noexec
    12                           	psect	dataBANK0,global,class=BANK0,space=1,delta=1,lowdata,noexec
    13                           	psect	cstackCOMRAM,global,class=COMRAM,space=1,delta=1,lowdata,noexec
    14                           	psect	text0,global,reloc=2,class=CODE,delta=1
    15                           	psect	text1,global,reloc=2,class=CODE,delta=1
    16                           	psect	text2,global,reloc=2,class=CODE,delta=1
    17                           	psect	text3,global,reloc=2,class=CODE,delta=1,inline
    18                           	psect	text4,global,reloc=2,class=CODE,delta=1,inline
    19                           	psect	text5,global,reloc=2,class=CODE,delta=1
    20                           	psect	text6,global,reloc=2,class=CODE,delta=1
    21                           	psect	text7,global,reloc=2,class=CODE,delta=1
    22                           	psect	text8,global,reloc=2,class=CODE,delta=1
    23                           	psect	text9,global,reloc=2,class=CODE,delta=1
    24                           	psect	text10,global,reloc=2,class=CODE,delta=1
    25                           	psect	intcodelo,global,reloc=2,class=CODE,delta=1
    26                           	psect	text12,global,reloc=2,class=CODE,delta=1
    27                           	psect	text13,global,reloc=2,class=CODE,delta=1
    28                           	psect	intcode,global,reloc=2,class=CODE,delta=1
    29                           	psect	intcode_body,global,reloc=2,class=CODE,delta=1
    30                           	psect	text15,global,reloc=2,class=CODE,delta=1
    31                           	psect	text16,global,reloc=2,class=CODE,delta=1
    32                           	psect	text17,global,reloc=2,class=CODE,delta=1
    33                           	psect	text18,global,reloc=2,class=CODE,delta=1
    34                           	psect	text19,global,reloc=2,class=CODE,delta=1
    35                           	psect	text20,global,reloc=2,class=CODE,delta=1
    36                           	psect	text21,global,reloc=2,class=CODE,delta=1
    37                           	psect	text22,global,reloc=2,class=CODE,delta=1
    38                           	psect	text23,global,reloc=2,class=CODE,delta=1
    39                           	psect	text24,global,reloc=2,class=CODE,delta=1
    40                           	psect	intsave_regs,global,class=BIGRAM,space=1,delta=1,noexec
    41                           	psect	rparam,global,class=COMRAM,space=1,delta=1,noexec
    42                           	psect	temp,global,ovrld,common,class=COMRAM,space=1,delta=1,lowdata
    43                           	psect	config,global,abs,ovrld,class=CONFIG,space=4,delta=1,noexec
    44   000000                     
    45                           ; Generated 17/10/2023 GMT
    46                           ; 
    47                           ; Copyright © 2023, Microchip Technology Inc. and its subsidiaries ("Microchip")
    48                           ; All rights reserved.
    49                           ; 
    50                           ; This software is developed by Microchip Technology Inc. and its subsidiaries ("Microch
      +                          ip").
    51                           ; 
    52                           ; Redistribution and use in source and binary forms, with or without modification, are
    53                           ; permitted provided that the following conditions are met:
    54                           ; 
    55                           ;     1. Redistributions of source code must retain the above copyright notice, this lis
      +                          t of
    56                           ;        conditions and the following disclaimer.
    57                           ; 
    58                           ;     2. Redistributions in binary form must reproduce the above copyright notice, this 
      +                          list
    59                           ;        of conditions and the following disclaimer in the documentation and/or other
    60                           ;        materials provided with the distribution. Publication is not required when
    61                           ;        this file is used in an embedded application.
    62                           ; 
    63                           ;     3. Microchip's name may not be used to endorse or promote products derived from th
      +                          is
    64                           ;        software without specific prior written permission.
    65                           ; 
    66                           ; THIS SOFTWARE IS PROVIDED BY MICROCHIP "AS IS" AND ANY EXPRESS OR IMPLIED WARRANTIES,
    67                           ; INCLUDING, BUT NOT LIMITED TO, THE IMPLIED WARRANTIES OF MERCHANTABILITY AND FITNESS F
      +                          OR
    68                           ; PURPOSE ARE DISCLAIMED.  IN NO EVENT SHALL MICROCHIP BE LIABLE FOR ANY DIRECT, INDIREC
      +                          T,
    69                           ; INCIDENTAL, SPECIAL, EXEMPLARY, OR CONSEQUENTIAL DAMAGES (INCLUDING BUT NOT LIMITED TO
    70                           ; PROCUREMENT OF SUBSTITUTE GOODS OR SERVICES; LOSS OF USE, DATA OR PROFITS; OR BUSINESS
    71                           ; INTERRUPTION) HOWSOEVER CAUSED AND ON ANY THEORY OF LIABILITY, WHETHER IN CONTRACT, ST
      +                          RICT
    72                           ; LIABILITY, OR TORT (INCLUDING NEGLIGENCE OR OTHERWISE) ARISING IN ANY WAY OUT OF THE U
      +                          SE OF
    73                           ; THIS SOFTWARE, EVEN IF ADVISED OF THE POSSIBILITY OF SUCH DAMAGE.
    74                           ; 
    75                           ; 
    76                           ; Code-generator required, PIC18F4620 Definitions
    77                           ; 
    78                           ; SFR Addresses
    79   000000                     
    80                           	psect	idataCOMRAM
    81   001850                     __pidataCOMRAM:
    82                           	callstack 0
    83                           
    84                           ;initializer for _lat_registers
    85   001850  89                 	db	137
    86   001851  0F                 	db	15
    87   001852  8A                 	db	138
    88   001853  0F                 	db	15
    89   001854  8B                 	db	139
    90   001855  0F                 	db	15
    91   001856  8C                 	db	140
    92   001857  0F                 	db	15
    93   001858  8D                 	db	141
    94   001859  0F                 	db	15
    95                           
    96                           ;initializer for _tris_registers
    97   00185A  92                 	db	146
    98   00185B  0F                 	db	15
    99   00185C  93                 	db	147
   100   00185D  0F                 	db	15
   101   00185E  94                 	db	148
   102   00185F  0F                 	db	15
   103   001860  95                 	db	149
   104   001861  0F                 	db	15
   105   001862  96                 	db	150
   106   001863  0F                 	db	15
   107                           
   108                           ;initializer for _lcd1
   109   001864  02                 	db	2
   110   001865  0A                 	db	10
   111   001866  12                 	db	18
   112   001867  1A                 	db	26
   113   001868  22                 	db	34
   114   001869  2A                 	db	42
   115                           
   116                           ;initializer for _segment1
   117   00186A  02                 	db	2
   118   00186B  0A                 	db	10
   119   00186C  12                 	db	18
   120   00186D  1A                 	db	26
   121   00186E  00                 	db	0
   122                           
   123                           ;initializer for _btn1
   124   00186F  4B                 	db	75
   125   001870  00                 	db	0
   126   001871  01                 	db	1
   127                           
   128                           ;initializer for _motor1
   129   001872  02                 	db	2
   130   001873  0A                 	db	10
   131                           
   132                           ;initializer for _ret
   133   001874  01                 	db	1
   134                           
   135                           ;initializer for _counter3
   136   001875  00                 	db	0
   137   001876  00                 	db	0
   138   001877  01                 	db	1
   139   001878  0000               	dw	0
   140   00187A  0C                 	db	12
   141                           
   142                           ;initializer for _led1
   143   00187B  03                 	db	3
   144                           
   145                           	psect	idataBANK0
   146   00187C                     __pidataBANK0:
   147                           	callstack 0
   148                           
   149                           ;initializer for _port_registers
   150   00187C  80                 	db	128
   151   00187D  0F                 	db	15
   152   00187E  81                 	db	129
   153   00187F  0F                 	db	15
   154   001880  82                 	db	130
   155   001881  0F                 	db	15
   156   001882  83                 	db	131
   157   001883  0F                 	db	15
   158   001884  84                 	db	132
   159   001885  0F                 	db	15
   160                           
   161                           ;initializer for _lcd2
   162   001886  32                 	db	50
   163   001887  3A                 	db	58
   164   001888  03                 	db	3
   165   001889  0B                 	db	11
   166   00188A  13                 	db	19
   167   00188B  1B                 	db	27
   168   00188C  23                 	db	35
   169   00188D  2B                 	db	43
   170   00188E  33                 	db	51
   171   00188F  3B                 	db	59
   172                           
   173                           ;initializer for _keypad1
   174   001890  02                 	db	2
   175   001891  0A                 	db	10
   176   001892  12                 	db	18
   177   001893  1A                 	db	26
   178   001894  62                 	db	98
   179   001895  6A                 	db	106
   180   001896  72                 	db	114
   181   001897  7A                 	db	122
   182                           
   183                           	psect	smallconst
   184   001000                     __psmallconst:
   185                           	callstack 0
   186   001000  00                 	db	0
   187   001001                     _keypad_values:
   188                           	callstack 0
   189   001001  37                 	db	55
   190   001002  38                 	db	56
   191   001003  39                 	db	57
   192   001004  2F                 	db	47
   193   001005  34                 	db	52
   194   001006  35                 	db	53
   195   001007  36                 	db	54
   196   001008  2A                 	db	42
   197   001009  31                 	db	49
   198   00100A  32                 	db	50
   199   00100B  33                 	db	51
   200   00100C  2D                 	db	45
   201   00100D  63                 	db	99
   202   00100E  30                 	db	48
   203   00100F  3D                 	db	61
   204   001010  2B                 	db	43
   205   001011                     __end_of_keypad_values:
   206                           	callstack 0
   207   000000                     _TMR3L	set	4018
   208   000000                     _TMR3H	set	4019
   209   000000                     _TMR1L	set	4046
   210   000000                     _TMR1H	set	4047
   211   000000                     _TMR0L	set	4054
   212   000000                     _TMR0H	set	4055
   213   000000                     _INTCON2bits	set	4081
   214   000000                     _EECON2	set	4007
   215   000000                     _ADRESL	set	4035
   216   000000                     _ADRESH	set	4036
   217   000000                     _TRISD	set	3989
   218   000000                     _TRISC	set	3988
   219   000000                     _TRISB	set	3987
   220   000000                     _TRISE	set	3990
   221   000000                     _PORTBbits	set	3969
   222   000000                     _PIE1bits	set	3997
   223   000000                     _PIR1bits	set	3998
   224   000000                     _IPR1bits	set	3999
   225   000000                     _ADCON2bits	set	4032
   226   000000                     _ADCON1bits	set	4033
   227   000000                     _ADCON0bits	set	4034
   228   000000                     _PORTE	set	3972
   229   000000                     _PORTD	set	3971
   230   000000                     _PORTC	set	3970
   231   000000                     _PORTB	set	3969
   232   000000                     _PORTA	set	3968
   233   000000                     _LATA	set	3977
   234   000000                     _TRISA	set	3986
   235   000000                     _IPR2bits	set	4002
   236   000000                     _PIR2bits	set	4001
   237   000000                     _PIE2bits	set	4000
   238   000000                     _EECON1bits	set	4006
   239   000000                     _EEDATA	set	4008
   240   000000                     _EEADR	set	4009
   241   000000                     _EEADRH	set	4010
   242   000000                     _T2CONbits	set	4042
   243   000000                     _T1CONbits	set	4045
   244   000000                     _RCONbits	set	4048
   245   000000                     _INTCON3bits	set	4080
   246   000000                     _INTCONbits	set	4082
   247   000000                     _T3CONbits	set	4017
   248   000000                     _LATE	set	3981
   249   000000                     _LATD	set	3980
   250   000000                     _LATC	set	3979
   251   000000                     _LATB	set	3978
   252   000000                     _T0CONbits	set	4053
   253   000000                     _TMR2	set	4044
   254   001011                     STR_1:
   255   001011  25                 	db	37
   256   001012  69                 	db	105	;'i'
   257   001013  00                 	db	0
   258   001014  00                 	db	0	; dummy byte at the end
   259   000000                     
   260                           ; #config settings
   261                           
   262                           	psect	cinit
   263   0017B4                     __pcinit:
   264                           	callstack 0
   265   0017B4                     start_initialization:
   266                           	callstack 0
   267   0017B4                     __initialization:
   268                           	callstack 0
   269                           
   270                           ; Initialize objects allocated to BANK0 (28 bytes)
   271                           ; load TBLPTR registers with __pidataBANK0
   272   0017B4  0E7C               	movlw	low __pidataBANK0
   273   0017B6  6EF6               	movwf	tblptrl,c
   274   0017B8  0E18               	movlw	high __pidataBANK0
   275   0017BA  6EF7               	movwf	tblptrh,c
   276   0017BC  0E00               	movlw	low (__pidataBANK0 shr (0+16))
   277   0017BE  6EF8               	movwf	tblptru,c
   278   0017C0  EE00  F080         	lfsr	0,__pdataBANK0
   279   0017C4  EE10 F01C          	lfsr	1,28
   280   0017C8                     copy_data0:
   281   0017C8  0009               	tblrd		*+
   282   0017CA  CFF5 FFEE          	movff	tablat,postinc0
   283   0017CE  50E5               	movf	postdec1,w,c
   284   0017D0  50E1               	movf	fsr1l,w,c
   285   0017D2  E1FA               	bnz	copy_data0
   286                           
   287                           ; Initialize objects allocated to COMRAM (44 bytes)
   288                           ; load TBLPTR registers with __pidataCOMRAM
   289   0017D4  0E50               	movlw	low __pidataCOMRAM
   290   0017D6  6EF6               	movwf	tblptrl,c
   291   0017D8  0E18               	movlw	high __pidataCOMRAM
   292   0017DA  6EF7               	movwf	tblptrh,c
   293   0017DC  0E00               	movlw	low (__pidataCOMRAM shr (0+16))
   294   0017DE  6EF8               	movwf	tblptru,c
   295   0017E0  EE00  F03F         	lfsr	0,__pdataCOMRAM
   296   0017E4  EE10 F02C          	lfsr	1,44
   297   0017E8                     copy_data1:
   298   0017E8  0009               	tblrd		*+
   299   0017EA  CFF5 FFEE          	movff	tablat,postinc0
   300   0017EE  50E5               	movf	postdec1,w,c
   301   0017F0  50E1               	movf	fsr1l,w,c
   302   0017F2  E1FA               	bnz	copy_data1
   303                           
   304                           ; Clear objects allocated to BANK0 (11 bytes)
   305   0017F4  EE00  F09C         	lfsr	0,__pbssBANK0
   306   0017F8  0E0B               	movlw	11
   307   0017FA                     clear_0:
   308   0017FA  6AEE               	clrf	postinc0,c
   309   0017FC  06E8               	decf	wreg,f,c
   310   0017FE  E1FD               	bnz	clear_0
   311                           
   312                           ; Clear objects allocated to COMRAM (62 bytes)
   313   001800  EE00  F001         	lfsr	0,__pbssCOMRAM
   314   001804  0E3E               	movlw	62
   315   001806                     clear_1:
   316   001806  6AEE               	clrf	postinc0,c
   317   001808  06E8               	decf	wreg,f,c
   318   00180A  E1FD               	bnz	clear_1
   319   00180C                     end_of_initialization:
   320                           	callstack 0
   321   00180C                     __end_of__initialization:
   322                           	callstack 0
   323   00180C  907D               	bcf	int$flags,0,c	;clear compiler interrupt flag (level 1)
   324   00180E  927D               	bcf	int$flags,1,c	;clear compiler interrupt flag (level 2)
   325   001810  0100               	movlb	0
   326   001812  EF8E  F00C         	goto	_main	;jump to C main() function
   327                           
   328                           	psect	bssCOMRAM
   329   000001                     __pbssCOMRAM:
   330                           	callstack 0
   331   000001                     	ds	6
   332   000007                     	ds	4
   333   00000B                     _timer3_preload:
   334                           	callstack 0
   335   00000B                     	ds	2
   336   00000D                     _TIMER3_InterruptHandler:
   337                           	callstack 0
   338   00000D                     	ds	2
   339   00000F                     _TIMER2_InterruptHandler:
   340                           	callstack 0
   341   00000F                     	ds	2
   342   000011                     _timer1_preload:
   343                           	callstack 0
   344   000011                     	ds	2
   345   000013                     _TIMER1_InterruptHandler:
   346                           	callstack 0
   347   000013                     	ds	2
   348   000015                     _timer0_preload:
   349                           	callstack 0
   350   000015                     	ds	2
   351   000017                     _TIMER0_InterruptHandler:
   352                           	callstack 0
   353   000017                     	ds	2
   354   000019                     _RB7_High_InterruptHandler:
   355                           	callstack 0
   356   000019                     	ds	2
   357   00001B                     _RB7_Low_InterruptHandler:
   358                           	callstack 0
   359   00001B                     	ds	2
   360   00001D                     _RB6_High_InterruptHandler:
   361                           	callstack 0
   362   00001D                     	ds	2
   363   00001F                     _RB6_Low_InterruptHandler:
   364                           	callstack 0
   365   00001F                     	ds	2
   366   000021                     _RB5_High_InterruptHandler:
   367                           	callstack 0
   368   000021                     	ds	2
   369   000023                     _RB5_Low_InterruptHandler:
   370                           	callstack 0
   371   000023                     	ds	2
   372   000025                     _RB4_High_InterruptHandler:
   373                           	callstack 0
   374   000025                     	ds	2
   375   000027                     _RB4_Low_InterruptHandler:
   376                           	callstack 0
   377   000027                     	ds	2
   378   000029                     _INT2_InterruptHandler:
   379                           	callstack 0
   380   000029                     	ds	2
   381   00002B                     _INT1_InterruptHandler:
   382                           	callstack 0
   383   00002B                     	ds	2
   384   00002D                     _INT0_InterruptHandler:
   385                           	callstack 0
   386   00002D                     	ds	2
   387   00002F                     _ADC_InterruptHandler:
   388                           	callstack 0
   389   00002F                     	ds	2
   390   000031                     _timer2_preload:
   391                           	callstack 0
   392   000031                     	ds	1
   393   000032                     _timer3_value:
   394                           	callstack 0
   395   000032                     	ds	1
   396   000033                     _RB7_flag:
   397                           	callstack 0
   398   000033                     	ds	1
   399   000034                     _RB6_flag:
   400                           	callstack 0
   401   000034                     	ds	1
   402   000035                     _RB5_flag:
   403                           	callstack 0
   404   000035                     	ds	1
   405   000036                     _RB4_flag:
   406                           	callstack 0
   407   000036                     	ds	1
   408   000037                     _relay1:
   409                           	callstack 0
   410   000037                     	ds	1
   411   000038                     relay_turn_off@F3070:
   412                           	callstack 0
   413   000038                     	ds	1
   414   000039                     relay_turn_on@F3065:
   415                           	callstack 0
   416   000039                     	ds	1
   417   00003A                     relay_initialize@F3060:
   418                           	callstack 0
   419   00003A                     	ds	1
   420   00003B                     led_turn_toggle@F3077:
   421                           	callstack 0
   422   00003B                     	ds	1
   423   00003C                     led_turn_off@F3072:
   424                           	callstack 0
   425   00003C                     	ds	1
   426   00003D                     led_turn_on@F3067:
   427                           	callstack 0
   428   00003D                     	ds	1
   429   00003E                     led_initialize@F3062:
   430                           	callstack 0
   431   00003E                     	ds	1
   432                           
   433                           	psect	dataCOMRAM
   434   00003F                     __pdataCOMRAM:
   435                           	callstack 0
   436   00003F                     _lat_registers:
   437                           	callstack 0
   438   00003F                     	ds	10
   439   000049                     _tris_registers:
   440                           	callstack 0
   441   000049                     	ds	10
   442   000053                     _lcd1:
   443                           	callstack 0
   444   000053                     	ds	6
   445   000059                     _segment1:
   446                           	callstack 0
   447   000059                     	ds	5
   448   00005E                     _btn1:
   449                           	callstack 0
   450   00005E                     	ds	3
   451   000061                     _motor1:
   452                           	callstack 0
   453   000061                     	ds	2
   454   000063                     _ret:
   455                           	callstack 0
   456   000063                     	ds	1
   457   000064                     _counter3:
   458                           	callstack 0
   459   000064                     	ds	6
   460   00006A                     _led1:
   461                           	callstack 0
   462   00006A                     	ds	1
   463                           
   464                           	psect	bssBANK0
   465   00009C                     __pbssBANK0:
   466                           	callstack 0
   467   00009C                     	ds	11
   468                           
   469                           	psect	dataBANK0
   470   000080                     __pdataBANK0:
   471                           	callstack 0
   472   000080                     _port_registers:
   473                           	callstack 0
   474   000080                     	ds	10
   475   00008A                     _lcd2:
   476                           	callstack 0
   477   00008A                     	ds	10
   478   000094                     _keypad1:
   479                           	callstack 0
   480   000094                     	ds	8
   481                           
   482                           	psect	cstackCOMRAM
   483   00006B                     __pcstackCOMRAM:
   484                           	callstack 0
   485   00006B                     RB4_ISR@source:
   486                           	callstack 0
   487   00006B                     RB5_ISR@source:
   488                           	callstack 0
   489   00006B                     RB6_ISR@source:
   490                           	callstack 0
   491   00006B                     RB7_ISR@source:
   492                           	callstack 0
   493                           
   494                           ; 1 bytes @ 0x0
   495   00006B                     	ds	1
   496   00006C                     ??_InterruptManagerLow:
   497                           
   498                           ; 1 bytes @ 0x1
   499   00006C                     	ds	1
   500   00006D                     gpio_pin_direction_initialize@_pin_config:
   501                           	callstack 0
   502   00006D                     gpio_pin_write_logic@_pin_config:
   503                           	callstack 0
   504   00006D                     timer3_Mode_Select@_timer:
   505                           	callstack 0
   506   00006D                     timer3_RW_REG_Bit_Mode_Select@_timer:
   507                           	callstack 0
   508                           
   509                           ; 1 bytes @ 0x2
   510   00006D                     	ds	1
   511   00006E                     ??_gpio_pin_direction_initialize:
   512   00006E                     gpio_pin_write_logic@logic:
   513                           	callstack 0
   514   00006E                     timer3_Init@_timer:
   515                           	callstack 0
   516                           
   517                           ; 1 bytes @ 0x3
   518   00006E                     	ds	1
   519   00006F                     ??_gpio_pin_write_logic:
   520   00006F                     ??_timer3_Init:
   521                           
   522                           ; 1 bytes @ 0x4
   523   00006F                     	ds	2
   524   000071                     timer3_Init@ret:
   525                           	callstack 0
   526                           
   527                           ; 1 bytes @ 0x6
   528   000071                     	ds	2
   529   000073                     gpio_pin_direction_initialize@ret:
   530                           	callstack 0
   531                           
   532                           ; 1 bytes @ 0x8
   533   000073                     	ds	1
   534   000074                     gpio_pin_write_logic@ret:
   535                           	callstack 0
   536                           
   537                           ; 1 bytes @ 0x9
   538   000074                     	ds	1
   539   000075                     gpio_pin_initialize@_pin_config:
   540                           	callstack 0
   541                           
   542                           ; 1 bytes @ 0xA
   543   000075                     	ds	1
   544   000076                     ??_gpio_pin_initialize:
   545                           
   546                           ; 1 bytes @ 0xB
   547   000076                     	ds	1
   548   000077                     gpio_pin_initialize@ret:
   549                           	callstack 0
   550                           
   551                           ; 1 bytes @ 0xC
   552   000077                     	ds	1
   553   000078                     led_initialize@led:
   554                           	callstack 0
   555                           
   556                           ; 1 bytes @ 0xD
   557   000078                     	ds	1
   558   000079                     ??_led_initialize:
   559                           
   560                           ; 1 bytes @ 0xE
   561   000079                     	ds	1
   562   00007A                     led_initialize@ret:
   563                           	callstack 0
   564                           
   565                           ; 1 bytes @ 0xF
   566   00007A                     	ds	1
   567   00007B                     led_initialize@pin:
   568                           	callstack 0
   569                           
   570                           ; 1 bytes @ 0x10
   571   00007B                     	ds	1
   572   00007C                     ecu_layer_initialize@ret_init:
   573                           	callstack 0
   574                           
   575                           ; 1 bytes @ 0x11
   576   00007C                     	ds	1
   577   00007D                     
   578                           ; 1 bytes @ 0x12
   579 ;;
   580 ;;Main: autosize = 0, tempsize = 0, incstack = 0, save=0
   581 ;;
   582 ;; *************** function _main *****************
   583 ;; Defined at:
   584 ;;		line 39 in file "Application1.c"
   585 ;; Parameters:    Size  Location     Type
   586 ;;		None
   587 ;; Auto vars:     Size  Location     Type
   588 ;;		None
   589 ;; Return value:  Size  Location     Type
   590 ;;                  2  1055[None  ] int 
   591 ;; Registers used:
   592 ;;		wreg, fsr2l, fsr2h, status,2, status,0, prodl, prodh, cstack
   593 ;; Tracked objects:
   594 ;;		On entry : 0/0
   595 ;;		On exit  : 0/0
   596 ;;		Unchanged: 0/0
   597 ;; Data sizes:     COMRAM   BANK0   BANK1   BANK2   BANK3   BANK4   BANK5   BANK6   BANK7   BANK8   BANK9  BANK10  BANK1
      +1  BANK12  BANK13  BANK14  BANK15
   598 ;;      Params:         0       0       0       0       0       0       0       0       0       0       0       0       
      +0       0       0       0       0
   599 ;;      Locals:         0       0       0       0       0       0       0       0       0       0       0       0       
      +0       0       0       0       0
   600 ;;      Temps:          0       0       0       0       0       0       0       0       0       0       0       0       
      +0       0       0       0       0
   601 ;;      Totals:         0       0       0       0       0       0       0       0       0       0       0       0       
      +0       0       0       0       0
   602 ;;Total ram usage:        0 bytes
   603 ;; Hardware stack levels required when called: 9
   604 ;; This function calls:
   605 ;;		_application_initialize
   606 ;; This function is called by:
   607 ;;		Startup code after reset
   608 ;; This function uses a non-reentrant model
   609 ;;
   610                           
   611                           	psect	text0
   612   00191C                     __ptext0:
   613                           	callstack 0
   614   00191C                     _main:
   615                           	callstack 22
   616   00191C                     
   617                           ;Application1.c: 41:     application_initialize();
   618   00191C  EC80  F00C         	call	_application_initialize	;wreg free
   619   001920                     l1056:
   620   001920  EF90  F00C         	goto	l1056
   621   001924  EF33  F000         	goto	start
   622   001928                     __end_of_main:
   623                           	callstack 0
   624                           
   625 ;; *************** function _application_initialize *****************
   626 ;; Defined at:
   627 ;;		line 50 in file "Application1.c"
   628 ;; Parameters:    Size  Location     Type
   629 ;;		None
   630 ;; Auto vars:     Size  Location     Type
   631 ;;  ret_init        1    0        unsigned char 
   632 ;; Return value:  Size  Location     Type
   633 ;;                  1    wreg      void 
   634 ;; Registers used:
   635 ;;		wreg, fsr2l, fsr2h, status,2, status,0, prodl, prodh, cstack
   636 ;; Tracked objects:
   637 ;;		On entry : 0/0
   638 ;;		On exit  : 0/0
   639 ;;		Unchanged: 0/0
   640 ;; Data sizes:     COMRAM   BANK0   BANK1   BANK2   BANK3   BANK4   BANK5   BANK6   BANK7   BANK8   BANK9  BANK10  BANK1
      +1  BANK12  BANK13  BANK14  BANK15
   641 ;;      Params:         0       0       0       0       0       0       0       0       0       0       0       0       
      +0       0       0       0       0
   642 ;;      Locals:         0       0       0       0       0       0       0       0       0       0       0       0       
      +0       0       0       0       0
   643 ;;      Temps:          0       0       0       0       0       0       0       0       0       0       0       0       
      +0       0       0       0       0
   644 ;;      Totals:         0       0       0       0       0       0       0       0       0       0       0       0       
      +0       0       0       0       0
   645 ;;Total ram usage:        0 bytes
   646 ;; Hardware stack levels used: 1
   647 ;; Hardware stack levels required when called: 8
   648 ;; This function calls:
   649 ;;		_ecu_layer_initialize
   650 ;;		_timer3_Init
   651 ;; This function is called by:
   652 ;;		_main
   653 ;; This function uses a non-reentrant model
   654 ;;
   655                           
   656                           	psect	text1
   657   001900                     __ptext1:
   658                           	callstack 0
   659   001900                     _application_initialize:
   660                           	callstack 22
   661   001900  EC87  F00C         	call	_ecu_layer_initialize	;wreg free
   662   001904  0E64               	movlw	low _counter3
   663   001906  6E6E               	movwf	timer3_Init@_timer^0,c
   664   001908  ECB9  F00A         	call	_timer3_Init	;wreg free
   665   00190C  0012               	return		;funcret
   666   00190E                     __end_of_application_initialize:
   667                           	callstack 0
   668                           
   669 ;; *************** function _timer3_Init *****************
   670 ;; Defined at:
   671 ;;		line 26 in file "MCAL_Layer/Timer3/mcal_timer3.c"
   672 ;; Parameters:    Size  Location     Type
   673 ;;  _timer          1    3[COMRAM] PTR const struct .
   674 ;;		 -> counter3(6), 
   675 ;; Auto vars:     Size  Location     Type
   676 ;;  ret             1    6[COMRAM] unsigned char 
   677 ;; Return value:  Size  Location     Type
   678 ;;                  1    wreg      unsigned char 
   679 ;; Registers used:
   680 ;;		wreg, fsr2l, fsr2h, status,2, status,0, cstack
   681 ;; Tracked objects:
   682 ;;		On entry : 0/0
   683 ;;		On exit  : 0/0
   684 ;;		Unchanged: 0/0
   685 ;; Data sizes:     COMRAM   BANK0   BANK1   BANK2   BANK3   BANK4   BANK5   BANK6   BANK7   BANK8   BANK9  BANK10  BANK1
      +1  BANK12  BANK13  BANK14  BANK15
   686 ;;      Params:         1       0       0       0       0       0       0       0       0       0       0       0       
      +0       0       0       0       0
   687 ;;      Locals:         1       0       0       0       0       0       0       0       0       0       0       0       
      +0       0       0       0       0
   688 ;;      Temps:          2       0       0       0       0       0       0       0       0       0       0       0       
      +0       0       0       0       0
   689 ;;      Totals:         4       0       0       0       0       0       0       0       0       0       0       0       
      +0       0       0       0       0
   690 ;;Total ram usage:        4 bytes
   691 ;; Hardware stack levels used: 1
   692 ;; Hardware stack levels required when called: 5
   693 ;; This function calls:
   694 ;;		_global_interrupt_Enable
   695 ;;		_timer3_Mode_Select
   696 ;;		_timer3_RW_REG_Bit_Mode_Select
   697 ;; This function is called by:
   698 ;;		_application_initialize
   699 ;; This function uses a non-reentrant model
   700 ;;
   701                           
   702                           	psect	text2
   703   001572                     __ptext2:
   704                           	callstack 0
   705   001572                     _timer3_Init:
   706                           	callstack 24
   707   001572                     
   708                           ;MCAL_Layer/Timer3/mcal_timer3.c: 26: Std_ReturnType timer3_Init(const timer3_config_t *
      +                          _timer);MCAL_Layer/Timer3/mcal_timer3.c: 27: {;MCAL_Layer/Timer3/mcal_timer3.c: 28:     
      +                          Std_ReturnType ret = (Std_ReturnType)0x01;
   709   001572  0E01               	movlw	1
   710   001574  6E71               	movwf	timer3_Init@ret^0,c
   711                           
   712                           ;MCAL_Layer/Timer3/mcal_timer3.c: 30:     if (((void*)0) != _timer)
   713   001576  506E               	movf	timer3_Init@_timer^0,w,c
   714   001578  B4D8               	btfsc	status,2,c
   715   00157A  EFC1  F00A         	goto	u2931
   716   00157E  EFC3  F00A         	goto	u2930
   717   001582                     u2931:
   718   001582  EF24  F00B         	goto	l4243
   719   001586                     u2930:
   720   001586                     
   721                           ;MCAL_Layer/Timer3/mcal_timer3.c: 31:     {;MCAL_Layer/Timer3/mcal_timer3.c: 33:        
      +                           (T3CONbits.TMR3ON = 0);
   722   001586  90B1               	bcf	177,0,c	;volatile
   723   001588                     
   724                           ;MCAL_Layer/Timer3/mcal_timer3.c: 35:         (T3CONbits.T3CKPS = _timer->timer3_prescal
      +                          er_value);
   725   001588  506E               	movf	timer3_Init@_timer^0,w,c
   726   00158A  6ED9               	movwf	fsr2l,c
   727   00158C  6ADA               	clrf	fsr2h,c
   728   00158E  0E05               	movlw	5
   729   001590  26D9               	addwf	fsr2l,f,c
   730   001592  50DF               	movf	223,w,c
   731   001594  0B03               	andlw	3
   732   001596  6E6F               	movwf	??_timer3_Init^0,c
   733   001598  3A6F               	swapf	??_timer3_Init^0,f,c
   734   00159A  50B1               	movf	177,w,c	;volatile
   735   00159C  186F               	xorwf	??_timer3_Init^0,w,c
   736   00159E  0BCF               	andlw	-49
   737   0015A0  186F               	xorwf	??_timer3_Init^0,w,c
   738   0015A2  6EB1               	movwf	177,c	;volatile
   739   0015A4                     
   740                           ;MCAL_Layer/Timer3/mcal_timer3.c: 37:         timer3_Mode_Select(_timer);
   741   0015A4  C06E  F06D         	movff	timer3_Init@_timer,timer3_Mode_Select@_timer
   742   0015A8  EC65  F00B         	call	_timer3_Mode_Select	;wreg free
   743   0015AC                     
   744                           ;MCAL_Layer/Timer3/mcal_timer3.c: 38:         timer3_RW_REG_Bit_Mode_Select(_timer);
   745   0015AC  C06E  F06D         	movff	timer3_Init@_timer,timer3_RW_REG_Bit_Mode_Select@_timer
   746   0015B0  EC0B  F00C         	call	_timer3_RW_REG_Bit_Mode_Select	;wreg free
   747                           
   748                           ;MCAL_Layer/Timer3/mcal_timer3.c: 41:         TMR3H = (_timer->timer3_preload_value) >> 
      +                          8;
   749   0015B4  506E               	movf	timer3_Init@_timer^0,w,c
   750   0015B6  6ED9               	movwf	fsr2l,c
   751   0015B8  6ADA               	clrf	fsr2h,c
   752   0015BA  0E03               	movlw	3
   753   0015BC  26D9               	addwf	fsr2l,f,c
   754   0015BE  CFDE F06F          	movff	postinc2,??_timer3_Init
   755   0015C2  CFDD F070          	movff	postdec2,??_timer3_Init+1
   756   0015C6  C070  F06F         	movff	??_timer3_Init+1,??_timer3_Init
   757   0015CA  6A70               	clrf	(??_timer3_Init+1)^0,c
   758   0015CC  506F               	movf	??_timer3_Init^0,w,c
   759   0015CE  6EB3               	movwf	179,c	;volatile
   760                           
   761                           ;MCAL_Layer/Timer3/mcal_timer3.c: 42:         TMR3L = (uint8) (_timer->timer3_preload_va
      +                          lue);
   762   0015D0  506E               	movf	timer3_Init@_timer^0,w,c
   763   0015D2  6ED9               	movwf	fsr2l,c
   764   0015D4  6ADA               	clrf	fsr2h,c
   765   0015D6  0E03               	movlw	3
   766   0015D8  26D9               	addwf	fsr2l,f,c
   767   0015DA  50DF               	movf	indf2,w,c
   768   0015DC  6EB2               	movwf	178,c	;volatile
   769                           
   770                           ;MCAL_Layer/Timer3/mcal_timer3.c: 44:         timer3_preload = _timer->timer3_preload_va
      +                          lue;
   771   0015DE  506E               	movf	timer3_Init@_timer^0,w,c
   772   0015E0  6ED9               	movwf	fsr2l,c
   773   0015E2  6ADA               	clrf	fsr2h,c
   774   0015E4  0E03               	movlw	3
   775   0015E6  26D9               	addwf	fsr2l,f,c
   776   0015E8  CFDE F00B          	movff	postinc2,_timer3_preload
   777   0015EC  CFDD F00C          	movff	postdec2,_timer3_preload+1
   778   0015F0                     
   779                           ;MCAL_Layer/Timer3/mcal_timer3.c: 47:         TIMER3_InterruptHandler = _timer->TIMER3_I
      +                          nterruptHandler;
   780   0015F0  506E               	movf	timer3_Init@_timer^0,w,c
   781   0015F2  6ED9               	movwf	fsr2l,c
   782   0015F4  6ADA               	clrf	fsr2h,c
   783   0015F6  CFDE F00D          	movff	postinc2,_TIMER3_InterruptHandler
   784   0015FA  CFDD F00E          	movff	postdec2,_TIMER3_InterruptHandler+1
   785   0015FE                     
   786                           ;MCAL_Layer/Timer3/mcal_timer3.c: 50:         if(INTERRUPT_PRIORITY_HIGH == _timer->time
      +                          r3_priority)
   787   0015FE  506E               	movf	timer3_Init@_timer^0,w,c
   788   001600  6ED9               	movwf	fsr2l,c
   789   001602  6ADA               	clrf	fsr2h,c
   790   001604  0E02               	movlw	2
   791   001606  26D9               	addwf	fsr2l,f,c
   792   001608  04DE               	decf	postinc2,w,c
   793   00160A  A4D8               	btfss	status,2,c
   794   00160C  EF0A  F00B         	goto	u2941
   795   001610  EF0C  F00B         	goto	u2940
   796   001614                     u2941:
   797   001614  EF0F  F00B         	goto	l4235
   798   001618                     u2940:
   799   001618                     
   800                           ;MCAL_Layer/Timer3/mcal_timer3.c: 51:         {;MCAL_Layer/Timer3/mcal_timer3.c: 52:    
      +                                   (IPR2bits.TMR3IP = 1);
   801   001618  82A2               	bsf	162,1,c	;volatile
   802                           
   803                           ;MCAL_Layer/Timer3/mcal_timer3.c: 53:         }
   804   00161A  EF1D  F00B         	goto	l1220
   805   00161E                     l4235:
   806   00161E  506E               	movf	timer3_Init@_timer^0,w,c
   807   001620  6ED9               	movwf	fsr2l,c
   808   001622  6ADA               	clrf	fsr2h,c
   809   001624  0E02               	movlw	2
   810   001626  26D9               	addwf	fsr2l,f,c
   811   001628  50DF               	movf	indf2,w,c
   812   00162A  A4D8               	btfss	status,2,c
   813   00162C  EF1A  F00B         	goto	u2951
   814   001630  EF1C  F00B         	goto	u2950
   815   001634                     u2951:
   816   001634  EF1D  F00B         	goto	l1220
   817   001638                     u2950:
   818   001638                     
   819                           ;MCAL_Layer/Timer3/mcal_timer3.c: 55:         {;MCAL_Layer/Timer3/mcal_timer3.c: 56:    
      +                                   (IPR2bits.TMR3IP = 0);
   820   001638  92A2               	bcf	162,1,c	;volatile
   821   00163A                     l1220:
   822                           
   823                           ;MCAL_Layer/Timer3/mcal_timer3.c: 60:         (PIR2bits.TMR3IF = 0);
   824   00163A  92A1               	bcf	161,1,c	;volatile
   825                           
   826                           ;MCAL_Layer/Timer3/mcal_timer3.c: 61:         (PIE2bits.TMR3IE = 1);
   827   00163C  82A0               	bsf	160,1,c	;volatile
   828   00163E                     
   829                           ;MCAL_Layer/Timer3/mcal_timer3.c: 62:         global_interrupt_Enable();
   830   00163E  ECA6  F00C         	call	_global_interrupt_Enable	;wreg free
   831   001642                     
   832                           ;MCAL_Layer/Timer3/mcal_timer3.c: 65:         (T3CONbits.TMR3ON = 1);
   833   001642  80B1               	bsf	177,0,c	;volatile
   834                           
   835                           ;MCAL_Layer/Timer3/mcal_timer3.c: 66:     }
   836   001644  EF26  F00B         	goto	l1223
   837   001648                     l4243:
   838   001648  0E00               	movlw	0
   839   00164A  6E71               	movwf	timer3_Init@ret^0,c
   840   00164C                     l1223:
   841                           
   842                           ;MCAL_Layer/Timer3/mcal_timer3.c: 69:     return ret;
   843   00164C  5071               	movf	timer3_Init@ret^0,w,c
   844   00164E  0012               	return		;funcret
   845   001650                     __end_of_timer3_Init:
   846                           	callstack 0
   847                           
   848 ;; *************** function _timer3_RW_REG_Bit_Mode_Select *****************
   849 ;; Defined at:
   850 ;;		line 148 in file "MCAL_Layer/Timer3/mcal_timer3.c"
   851 ;; Parameters:    Size  Location     Type
   852 ;;  _timer          1    2[COMRAM] PTR const struct .
   853 ;;		 -> counter3(6), 
   854 ;; Auto vars:     Size  Location     Type
   855 ;;		None
   856 ;; Return value:  Size  Location     Type
   857 ;;                  1    wreg      void 
   858 ;; Registers used:
   859 ;;		wreg, fsr2l, fsr2h, status,2, status,0
   860 ;; Tracked objects:
   861 ;;		On entry : 0/0
   862 ;;		On exit  : 0/0
   863 ;;		Unchanged: 0/0
   864 ;; Data sizes:     COMRAM   BANK0   BANK1   BANK2   BANK3   BANK4   BANK5   BANK6   BANK7   BANK8   BANK9  BANK10  BANK1
      +1  BANK12  BANK13  BANK14  BANK15
   865 ;;      Params:         1       0       0       0       0       0       0       0       0       0       0       0       
      +0       0       0       0       0
   866 ;;      Locals:         0       0       0       0       0       0       0       0       0       0       0       0       
      +0       0       0       0       0
   867 ;;      Temps:          0       0       0       0       0       0       0       0       0       0       0       0       
      +0       0       0       0       0
   868 ;;      Totals:         1       0       0       0       0       0       0       0       0       0       0       0       
      +0       0       0       0       0
   869 ;;Total ram usage:        1 bytes
   870 ;; Hardware stack levels used: 1
   871 ;; Hardware stack levels required when called: 4
   872 ;; This function calls:
   873 ;;		Nothing
   874 ;; This function is called by:
   875 ;;		_timer3_Init
   876 ;; This function uses a non-reentrant model
   877 ;;
   878                           
   879                           	psect	text3
   880   001816                     __ptext3:
   881                           	callstack 0
   882   001816                     _timer3_RW_REG_Bit_Mode_Select:
   883                           	callstack 24
   884   001816                     
   885                           ;MCAL_Layer/Timer3/mcal_timer3.c: 148: static __attribute__((inline)) void timer3_RW_REG
      +                          _Bit_Mode_Select(const timer3_config_t *_timer);MCAL_Layer/Timer3/mcal_timer3.c: 149: {;
      +                          MCAL_Layer/Timer3/mcal_timer3.c: 150:     if(0 == _timer->timer3_reg_wr_mode)
   886   001816  506D               	movf	timer3_RW_REG_Bit_Mode_Select@_timer^0,w,c
   887   001818  6ED9               	movwf	fsr2l,c
   888   00181A  6ADA               	clrf	fsr2h,c
   889   00181C  0E05               	movlw	5
   890   00181E  26D9               	addwf	fsr2l,f,c
   891   001820  B8DF               	btfsc	indf2,4,c
   892   001822  EF15  F00C         	goto	u2821
   893   001826  EF17  F00C         	goto	u2820
   894   00182A                     u2821:
   895   00182A  EF1A  F00C         	goto	l4129
   896   00182E                     u2820:
   897   00182E                     
   898                           ;MCAL_Layer/Timer3/mcal_timer3.c: 151:     {;MCAL_Layer/Timer3/mcal_timer3.c: 152:      
      +                             (T3CONbits.RD16 = 0);
   899   00182E  9EB1               	bcf	177,7,c	;volatile
   900                           
   901                           ;MCAL_Layer/Timer3/mcal_timer3.c: 153:     }
   902   001830  EF27  F00C         	goto	l1257
   903   001834                     l4129:
   904   001834  506D               	movf	timer3_RW_REG_Bit_Mode_Select@_timer^0,w,c
   905   001836  6ED9               	movwf	fsr2l,c
   906   001838  6ADA               	clrf	fsr2h,c
   907   00183A  0E05               	movlw	5
   908   00183C  26D9               	addwf	fsr2l,f,c
   909   00183E  A8DF               	btfss	indf2,4,c
   910   001840  EF24  F00C         	goto	u2831
   911   001844  EF26  F00C         	goto	u2830
   912   001848                     u2831:
   913   001848  EF27  F00C         	goto	l1257
   914   00184C                     u2830:
   915   00184C                     
   916                           ;MCAL_Layer/Timer3/mcal_timer3.c: 155:     {;MCAL_Layer/Timer3/mcal_timer3.c: 156:      
      +                             (T3CONbits.RD16 = 1);
   917   00184C  8EB1               	bsf	177,7,c	;volatile
   918   00184E                     l1257:
   919   00184E  0012               	return		;funcret
   920   001850                     __end_of_timer3_RW_REG_Bit_Mode_Select:
   921                           	callstack 0
   922                           
   923 ;; *************** function _timer3_Mode_Select *****************
   924 ;; Defined at:
   925 ;;		line 125 in file "MCAL_Layer/Timer3/mcal_timer3.c"
   926 ;; Parameters:    Size  Location     Type
   927 ;;  _timer          1    2[COMRAM] PTR const struct .
   928 ;;		 -> counter3(6), 
   929 ;; Auto vars:     Size  Location     Type
   930 ;;		None
   931 ;; Return value:  Size  Location     Type
   932 ;;                  1    wreg      void 
   933 ;; Registers used:
   934 ;;		wreg, fsr2l, fsr2h, status,2, status,0
   935 ;; Tracked objects:
   936 ;;		On entry : 0/0
   937 ;;		On exit  : 0/0
   938 ;;		Unchanged: 0/0
   939 ;; Data sizes:     COMRAM   BANK0   BANK1   BANK2   BANK3   BANK4   BANK5   BANK6   BANK7   BANK8   BANK9  BANK10  BANK1
      +1  BANK12  BANK13  BANK14  BANK15
   940 ;;      Params:         1       0       0       0       0       0       0       0       0       0       0       0       
      +0       0       0       0       0
   941 ;;      Locals:         0       0       0       0       0       0       0       0       0       0       0       0       
      +0       0       0       0       0
   942 ;;      Temps:          0       0       0       0       0       0       0       0       0       0       0       0       
      +0       0       0       0       0
   943 ;;      Totals:         1       0       0       0       0       0       0       0       0       0       0       0       
      +0       0       0       0       0
   944 ;;Total ram usage:        1 bytes
   945 ;; Hardware stack levels used: 1
   946 ;; Hardware stack levels required when called: 4
   947 ;; This function calls:
   948 ;;		Nothing
   949 ;; This function is called by:
   950 ;;		_timer3_Init
   951 ;; This function uses a non-reentrant model
   952 ;;
   953                           
   954                           	psect	text4
   955   0016CA                     __ptext4:
   956                           	callstack 0
   957   0016CA                     _timer3_Mode_Select:
   958                           	callstack 24
   959   0016CA                     
   960                           ;MCAL_Layer/Timer3/mcal_timer3.c: 125: static __attribute__((inline)) void timer3_Mode_S
      +                          elect(const timer3_config_t *_timer);MCAL_Layer/Timer3/mcal_timer3.c: 126: {;MCAL_Layer/
      +                          Timer3/mcal_timer3.c: 127:     if(0 == _timer->timer3_mode)
   961   0016CA  506D               	movf	timer3_Mode_Select@_timer^0,w,c
   962   0016CC  6ED9               	movwf	fsr2l,c
   963   0016CE  6ADA               	clrf	fsr2h,c
   964   0016D0  0E05               	movlw	5
   965   0016D2  26D9               	addwf	fsr2l,f,c
   966   0016D4  B4DF               	btfsc	indf2,2,c
   967   0016D6  EF6F  F00B         	goto	u2781
   968   0016DA  EF71  F00B         	goto	u2780
   969   0016DE                     u2781:
   970   0016DE  EF74  F00B         	goto	l4111
   971   0016E2                     u2780:
   972   0016E2                     
   973                           ;MCAL_Layer/Timer3/mcal_timer3.c: 128:     {;MCAL_Layer/Timer3/mcal_timer3.c: 129:      
      +                             (T3CONbits.TMR3CS = 0);
   974   0016E2  92B1               	bcf	177,1,c	;volatile
   975                           
   976                           ;MCAL_Layer/Timer3/mcal_timer3.c: 130:     }
   977   0016E4  EFA0  F00B         	goto	l1250
   978   0016E8                     l4111:
   979   0016E8  506D               	movf	timer3_Mode_Select@_timer^0,w,c
   980   0016EA  6ED9               	movwf	fsr2l,c
   981   0016EC  6ADA               	clrf	fsr2h,c
   982   0016EE  0E05               	movlw	5
   983   0016F0  26D9               	addwf	fsr2l,f,c
   984   0016F2  A4DF               	btfss	indf2,2,c
   985   0016F4  EF7E  F00B         	goto	u2791
   986   0016F8  EF80  F00B         	goto	u2790
   987   0016FC                     u2791:
   988   0016FC  EFA0  F00B         	goto	l1250
   989   001700                     u2790:
   990   001700                     
   991                           ;MCAL_Layer/Timer3/mcal_timer3.c: 132:     {;MCAL_Layer/Timer3/mcal_timer3.c: 133:      
      +                             (T3CONbits.TMR3CS = 1);
   992   001700  82B1               	bsf	177,1,c	;volatile
   993   001702                     
   994                           ;MCAL_Layer/Timer3/mcal_timer3.c: 134:         (TRISC |= ((uint8)0x01 << 0x0));
   995   001702  8094               	bsf	148,0,c	;volatile
   996   001704                     
   997                           ;MCAL_Layer/Timer3/mcal_timer3.c: 135:         if(1 == _timer->timer3_counter_mode)
   998   001704  506D               	movf	timer3_Mode_Select@_timer^0,w,c
   999   001706  6ED9               	movwf	fsr2l,c
  1000   001708  6ADA               	clrf	fsr2h,c
  1001   00170A  0E05               	movlw	5
  1002   00170C  26D9               	addwf	fsr2l,f,c
  1003   00170E  A6DF               	btfss	indf2,3,c
  1004   001710  EF8C  F00B         	goto	u2801
  1005   001714  EF8E  F00B         	goto	u2800
  1006   001718                     u2801:
  1007   001718  EF91  F00B         	goto	l4121
  1008   00171C                     u2800:
  1009   00171C                     
  1010                           ;MCAL_Layer/Timer3/mcal_timer3.c: 136:         {;MCAL_Layer/Timer3/mcal_timer3.c: 137:  
      +                                     (T3CONbits.T3SYNC = 1);
  1011   00171C  84B1               	bsf	177,2,c	;volatile
  1012                           
  1013                           ;MCAL_Layer/Timer3/mcal_timer3.c: 138:         }
  1014   00171E  EFA0  F00B         	goto	l1250
  1015   001722                     l4121:
  1016   001722  506D               	movf	timer3_Mode_Select@_timer^0,w,c
  1017   001724  6ED9               	movwf	fsr2l,c
  1018   001726  6ADA               	clrf	fsr2h,c
  1019   001728  0E05               	movlw	5
  1020   00172A  26D9               	addwf	fsr2l,f,c
  1021   00172C  B6DF               	btfsc	indf2,3,c
  1022   00172E  EF9B  F00B         	goto	u2811
  1023   001732  EF9D  F00B         	goto	u2810
  1024   001736                     u2811:
  1025   001736  EFA0  F00B         	goto	l1249
  1026   00173A                     u2810:
  1027   00173A                     
  1028                           ;MCAL_Layer/Timer3/mcal_timer3.c: 140:         {;MCAL_Layer/Timer3/mcal_timer3.c: 141:  
      +                                     (T3CONbits.T3SYNC = 0);
  1029   00173A  94B1               	bcf	177,2,c	;volatile
  1030                           
  1031                           ;MCAL_Layer/Timer3/mcal_timer3.c: 142:         }
  1032   00173C  EFA0  F00B         	goto	l1250
  1033   001740                     l1249:
  1034   001740                     l1250:
  1035   001740  0012               	return		;funcret
  1036   001742                     __end_of_timer3_Mode_Select:
  1037                           	callstack 0
  1038                           
  1039 ;; *************** function _global_interrupt_Enable *****************
  1040 ;; Defined at:
  1041 ;;		line 18 in file "MCAL_Layer/Interrupt/mcal_interrupt_cfg.c"
  1042 ;; Parameters:    Size  Location     Type
  1043 ;;		None
  1044 ;; Auto vars:     Size  Location     Type
  1045 ;;		None
  1046 ;; Return value:  Size  Location     Type
  1047 ;;                  1    wreg      void 
  1048 ;; Registers used:
  1049 ;;		None
  1050 ;; Tracked objects:
  1051 ;;		On entry : 0/0
  1052 ;;		On exit  : 0/0
  1053 ;;		Unchanged: 0/0
  1054 ;; Data sizes:     COMRAM   BANK0   BANK1   BANK2   BANK3   BANK4   BANK5   BANK6   BANK7   BANK8   BANK9  BANK10  BANK1
      +1  BANK12  BANK13  BANK14  BANK15
  1055 ;;      Params:         0       0       0       0       0       0       0       0       0       0       0       0       
      +0       0       0       0       0
  1056 ;;      Locals:         0       0       0       0       0       0       0       0       0       0       0       0       
      +0       0       0       0       0
  1057 ;;      Temps:          0       0       0       0       0       0       0       0       0       0       0       0       
      +0       0       0       0       0
  1058 ;;      Totals:         0       0       0       0       0       0       0       0       0       0       0       0       
      +0       0       0       0       0
  1059 ;;Total ram usage:        0 bytes
  1060 ;; Hardware stack levels used: 1
  1061 ;; Hardware stack levels required when called: 4
  1062 ;; This function calls:
  1063 ;;		Nothing
  1064 ;; This function is called by:
  1065 ;;		_timer3_Init
  1066 ;;		_adc_Init
  1067 ;;		_ext_interrupt_INTx_Init
  1068 ;;		_ext_interrupt_RBx_Init
  1069 ;;		_timer0_Init
  1070 ;;		_timer1_Init
  1071 ;;		_timer2_Init
  1072 ;; This function uses a non-reentrant model
  1073 ;;
  1074                           
  1075                           	psect	text5
  1076   00194C                     __ptext5:
  1077                           	callstack 0
  1078   00194C                     _global_interrupt_Enable:
  1079                           	callstack 24
  1080   00194C                     
  1081                           ;MCAL_Layer/Interrupt/mcal_interrupt_cfg.c: 21:     (RCONbits.IPEN = 1);
  1082   00194C  8ED0               	bsf	208,7,c	;volatile
  1083                           
  1084                           ;MCAL_Layer/Interrupt/mcal_interrupt_cfg.c: 22:     (INTCONbits.GIEH = 1);
  1085   00194E  8EF2               	bsf	242,7,c	;volatile
  1086                           
  1087                           ;MCAL_Layer/Interrupt/mcal_interrupt_cfg.c: 23:     (INTCONbits.GIEL = 1);
  1088   001950  8CF2               	bsf	242,6,c	;volatile
  1089   001952  0012               	return		;funcret
  1090   001954                     __end_of_global_interrupt_Enable:
  1091                           	callstack 0
  1092                           
  1093 ;; *************** function _ecu_layer_initialize *****************
  1094 ;; Defined at:
  1095 ;;		line 213 in file "ECU_Layer/ecu_layer_init.c"
  1096 ;; Parameters:    Size  Location     Type
  1097 ;;		None
  1098 ;; Auto vars:     Size  Location     Type
  1099 ;;  ret_init        1   17[COMRAM] unsigned char 
  1100 ;; Return value:  Size  Location     Type
  1101 ;;                  1    wreg      unsigned char 
  1102 ;; Registers used:
  1103 ;;		wreg, fsr2l, fsr2h, status,2, status,0, prodl, prodh, cstack
  1104 ;; Tracked objects:
  1105 ;;		On entry : 0/0
  1106 ;;		On exit  : 0/0
  1107 ;;		Unchanged: 0/0
  1108 ;; Data sizes:     COMRAM   BANK0   BANK1   BANK2   BANK3   BANK4   BANK5   BANK6   BANK7   BANK8   BANK9  BANK10  BANK1
      +1  BANK12  BANK13  BANK14  BANK15
  1109 ;;      Params:         0       0       0       0       0       0       0       0       0       0       0       0       
      +0       0       0       0       0
  1110 ;;      Locals:         1       0       0       0       0       0       0       0       0       0       0       0       
      +0       0       0       0       0
  1111 ;;      Temps:          0       0       0       0       0       0       0       0       0       0       0       0       
      +0       0       0       0       0
  1112 ;;      Totals:         1       0       0       0       0       0       0       0       0       0       0       0       
      +0       0       0       0       0
  1113 ;;Total ram usage:        1 bytes
  1114 ;; Hardware stack levels used: 1
  1115 ;; Hardware stack levels required when called: 7
  1116 ;; This function calls:
  1117 ;;		_led_initialize
  1118 ;; This function is called by:
  1119 ;;		_application_initialize
  1120 ;; This function uses a non-reentrant model
  1121 ;;
  1122                           
  1123                           	psect	text6
  1124   00190E                     __ptext6:
  1125                           	callstack 0
  1126   00190E                     _ecu_layer_initialize:
  1127                           	callstack 22
  1128   00190E                     
  1129                           ;ECU_Layer/ecu_layer_init.c: 217:     ret_init = led_initialize(&led1);
  1130   00190E  0E6A               	movlw	low _led1
  1131   001910  6E78               	movwf	led_initialize@led^0,c
  1132   001912  ECA1  F00B         	call	_led_initialize	;wreg free
  1133   001916  6E7C               	movwf	ecu_layer_initialize@ret_init^0,c
  1134   001918                     
  1135                           ;ECU_Layer/ecu_layer_init.c: 219:     return ret_init;
  1136   001918  507C               	movf	ecu_layer_initialize@ret_init^0,w,c
  1137   00191A  0012               	return		;funcret
  1138   00191C                     __end_of_ecu_layer_initialize:
  1139                           	callstack 0
  1140                           
  1141 ;; *************** function _led_initialize *****************
  1142 ;; Defined at:
  1143 ;;		line 27 in file "ECU_Layer/LED/ecu_led.c"
  1144 ;; Parameters:    Size  Location     Type
  1145 ;;  led             1   13[COMRAM] PTR const struct .
  1146 ;;		 -> led1(1), 
  1147 ;; Auto vars:     Size  Location     Type
  1148 ;;  pin             1   16[COMRAM] struct .
  1149 ;;  ret             1   15[COMRAM] unsigned char 
  1150 ;; Return value:  Size  Location     Type
  1151 ;;                  1    wreg      unsigned char 
  1152 ;; Registers used:
  1153 ;;		wreg, fsr2l, fsr2h, status,2, status,0, prodl, prodh, cstack
  1154 ;; Tracked objects:
  1155 ;;		On entry : 0/0
  1156 ;;		On exit  : 0/0
  1157 ;;		Unchanged: 0/0
  1158 ;; Data sizes:     COMRAM   BANK0   BANK1   BANK2   BANK3   BANK4   BANK5   BANK6   BANK7   BANK8   BANK9  BANK10  BANK1
      +1  BANK12  BANK13  BANK14  BANK15
  1159 ;;      Params:         1       0       0       0       0       0       0       0       0       0       0       0       
      +0       0       0       0       0
  1160 ;;      Locals:         2       0       0       0       0       0       0       0       0       0       0       0       
      +0       0       0       0       0
  1161 ;;      Temps:          1       0       0       0       0       0       0       0       0       0       0       0       
      +0       0       0       0       0
  1162 ;;      Totals:         4       0       0       0       0       0       0       0       0       0       0       0       
      +0       0       0       0       0
  1163 ;;Total ram usage:        4 bytes
  1164 ;; Hardware stack levels used: 1
  1165 ;; Hardware stack levels required when called: 6
  1166 ;; This function calls:
  1167 ;;		_gpio_pin_initialize
  1168 ;; This function is called by:
  1169 ;;		_ecu_layer_initialize
  1170 ;; This function uses a non-reentrant model
  1171 ;;
  1172                           
  1173                           	psect	text7
  1174   001742                     __ptext7:
  1175                           	callstack 0
  1176   001742                     _led_initialize:
  1177                           	callstack 22
  1178   001742                     
  1179                           ;ECU_Layer/LED/ecu_led.c: 30:     if(led != ((void*)0))
  1180   001742  5078               	movf	led_initialize@led^0,w,c
  1181   001744  B4D8               	btfsc	status,2,c
  1182   001746  EFA7  F00B         	goto	u2761
  1183   00174A  EFA9  F00B         	goto	u2760
  1184   00174E                     u2761:
  1185   00174E  EFD6  F00B         	goto	l4103
  1186   001752                     u2760:
  1187   001752                     
  1188                           ;ECU_Layer/LED/ecu_led.c: 31:     {;ECU_Layer/LED/ecu_led.c: 32:         pin_config_t pi
      +                          n = {.port = led->led_port ,.pin = led->led_pin ,
  1189   001752  C03E  F07B         	movff	led_initialize@F3062,led_initialize@pin
  1190   001756  5078               	movf	led_initialize@led^0,w,c
  1191   001758  6ED9               	movwf	fsr2l,c
  1192   00175A  6ADA               	clrf	fsr2h,c
  1193   00175C  50DF               	movf	223,w,c
  1194   00175E  0B07               	andlw	7
  1195   001760  6E79               	movwf	??_led_initialize^0,c
  1196   001762  507B               	movf	led_initialize@pin^0,w,c
  1197   001764  1879               	xorwf	??_led_initialize^0,w,c
  1198   001766  0BF8               	andlw	-8
  1199   001768  1879               	xorwf	??_led_initialize^0,w,c
  1200   00176A  6E7B               	movwf	led_initialize@pin^0,c
  1201   00176C  5078               	movf	led_initialize@led^0,w,c
  1202   00176E  6ED9               	movwf	fsr2l,c
  1203   001770  6ADA               	clrf	fsr2h,c
  1204   001772  30DF               	rrcf	223,w,c
  1205   001774  32E8               	rrcf	wreg,f,c
  1206   001776  32E8               	rrcf	wreg,f,c
  1207   001778  0B07               	andlw	7
  1208   00177A  6E79               	movwf	??_led_initialize^0,c
  1209   00177C  4679               	rlncf	??_led_initialize^0,f,c
  1210   00177E  4679               	rlncf	??_led_initialize^0,f,c
  1211   001780  4679               	rlncf	??_led_initialize^0,f,c
  1212   001782  507B               	movf	led_initialize@pin^0,w,c
  1213   001784  1879               	xorwf	??_led_initialize^0,w,c
  1214   001786  0BC7               	andlw	-57
  1215   001788  1879               	xorwf	??_led_initialize^0,w,c
  1216   00178A  6E7B               	movwf	led_initialize@pin^0,c
  1217   00178C  9C7B               	bcf	led_initialize@pin^0,6,c
  1218   00178E  5078               	movf	led_initialize@led^0,w,c
  1219   001790  6ED9               	movwf	fsr2l,c
  1220   001792  6ADA               	clrf	fsr2h,c
  1221   001794  ACDF               	btfss	indf2,6,c
  1222   001796  D002               	bra	u2775
  1223   001798  8E7B               	bsf	led_initialize@pin^0,7,c
  1224   00179A  D001               	bra	u2777
  1225   00179C                     u2775:
  1226   00179C  9E7B               	bcf	led_initialize@pin^0,7,c
  1227   00179E                     u2777:
  1228   00179E                     
  1229                           ;ECU_Layer/LED/ecu_led.c: 34:         ret = gpio_pin_initialize(&pin);
  1230   00179E  0E7B               	movlw	low led_initialize@pin
  1231   0017A0  6E75               	movwf	gpio_pin_initialize@_pin_config^0,c
  1232   0017A2  EC28  F00B         	call	_gpio_pin_initialize	;wreg free
  1233   0017A6  6E7A               	movwf	led_initialize@ret^0,c
  1234                           
  1235                           ;ECU_Layer/LED/ecu_led.c: 35:     }
  1236   0017A8  EFD8  F00B         	goto	l287
  1237   0017AC                     l4103:
  1238   0017AC  0E00               	movlw	0
  1239   0017AE  6E7A               	movwf	led_initialize@ret^0,c
  1240   0017B0                     l287:
  1241                           
  1242                           ;ECU_Layer/LED/ecu_led.c: 38:     return ret;
  1243   0017B0  507A               	movf	led_initialize@ret^0,w,c
  1244   0017B2  0012               	return		;funcret
  1245   0017B4                     __end_of_led_initialize:
  1246                           	callstack 0
  1247                           
  1248 ;; *************** function _gpio_pin_initialize *****************
  1249 ;; Defined at:
  1250 ;;		line 151 in file "MCAL_Layer/GPIO/mcal_gpio.c"
  1251 ;; Parameters:    Size  Location     Type
  1252 ;;  _pin_config     1   10[COMRAM] PTR const struct .
  1253 ;;		 -> relay_initialize@pin(1), led_initialize@pin(1), 
  1254 ;; Auto vars:     Size  Location     Type
  1255 ;;  ret             1   12[COMRAM] unsigned char 
  1256 ;; Return value:  Size  Location     Type
  1257 ;;                  1    wreg      unsigned char 
  1258 ;; Registers used:
  1259 ;;		wreg, fsr2l, fsr2h, status,2, status,0, prodl, prodh, cstack
  1260 ;; Tracked objects:
  1261 ;;		On entry : 0/0
  1262 ;;		On exit  : 0/0
  1263 ;;		Unchanged: 0/0
  1264 ;; Data sizes:     COMRAM   BANK0   BANK1   BANK2   BANK3   BANK4   BANK5   BANK6   BANK7   BANK8   BANK9  BANK10  BANK1
      +1  BANK12  BANK13  BANK14  BANK15
  1265 ;;      Params:         1       0       0       0       0       0       0       0       0       0       0       0       
      +0       0       0       0       0
  1266 ;;      Locals:         1       0       0       0       0       0       0       0       0       0       0       0       
      +0       0       0       0       0
  1267 ;;      Temps:          1       0       0       0       0       0       0       0       0       0       0       0       
      +0       0       0       0       0
  1268 ;;      Totals:         3       0       0       0       0       0       0       0       0       0       0       0       
      +0       0       0       0       0
  1269 ;;Total ram usage:        3 bytes
  1270 ;; Hardware stack levels used: 1
  1271 ;; Hardware stack levels required when called: 5
  1272 ;; This function calls:
  1273 ;;		_gpio_pin_direction_initialize
  1274 ;;		_gpio_pin_write_logic
  1275 ;; This function is called by:
  1276 ;;		_led_initialize
  1277 ;;		_dc_motor_initialize
  1278 ;;		_keypad_initialize
  1279 ;;		_lcd_4bit_initialize
  1280 ;;		_lcd_8bit_initialize
  1281 ;;		_relay_initialize
  1282 ;;		_seven_segment_initialize
  1283 ;; This function uses a non-reentrant model
  1284 ;;
  1285                           
  1286                           	psect	text8
  1287   001650                     __ptext8:
  1288                           	callstack 0
  1289   001650                     _gpio_pin_initialize:
  1290                           	callstack 22
  1291   001650                     
  1292                           ;MCAL_Layer/GPIO/mcal_gpio.c: 154:     if((_pin_config != ((void*)0)) && (_pin_config->p
      +                          ort <= 5 -1) && (_pin_config->pin <= 8 -1))
  1293   001650  5075               	movf	gpio_pin_initialize@_pin_config^0,w,c
  1294   001652  B4D8               	btfsc	status,2,c
  1295   001654  EF2E  F00B         	goto	u2731
  1296   001658  EF30  F00B         	goto	u2730
  1297   00165C                     u2731:
  1298   00165C  EF61  F00B         	goto	l4087
  1299   001660                     u2730:
  1300   001660  5075               	movf	gpio_pin_initialize@_pin_config^0,w,c
  1301   001662  6ED9               	movwf	fsr2l,c
  1302   001664  6ADA               	clrf	fsr2h,c
  1303   001666  50DF               	movf	223,w,c
  1304   001668  0B07               	andlw	7
  1305   00166A  6E76               	movwf	??_gpio_pin_initialize^0,c
  1306   00166C  0E05               	movlw	5
  1307   00166E  6076               	cpfslt	??_gpio_pin_initialize^0,c
  1308   001670  EF3C  F00B         	goto	u2741
  1309   001674  EF3E  F00B         	goto	u2740
  1310   001678                     u2741:
  1311   001678  EF61  F00B         	goto	l4087
  1312   00167C                     u2740:
  1313   00167C  5075               	movf	gpio_pin_initialize@_pin_config^0,w,c
  1314   00167E  6ED9               	movwf	fsr2l,c
  1315   001680  6ADA               	clrf	fsr2h,c
  1316   001682  30DF               	rrcf	223,w,c
  1317   001684  32E8               	rrcf	wreg,f,c
  1318   001686  32E8               	rrcf	wreg,f,c
  1319   001688  0B07               	andlw	7
  1320   00168A  6E76               	movwf	??_gpio_pin_initialize^0,c
  1321   00168C  0E08               	movlw	8
  1322   00168E  6076               	cpfslt	??_gpio_pin_initialize^0,c
  1323   001690  EF4C  F00B         	goto	u2751
  1324   001694  EF4E  F00B         	goto	u2750
  1325   001698                     u2751:
  1326   001698  EF61  F00B         	goto	l4087
  1327   00169C                     u2750:
  1328   00169C                     
  1329                           ;MCAL_Layer/GPIO/mcal_gpio.c: 155:     {;MCAL_Layer/GPIO/mcal_gpio.c: 156:         ret =
      +                           gpio_pin_direction_initialize(_pin_config);
  1330   00169C  C075  F06D         	movff	gpio_pin_initialize@_pin_config,gpio_pin_direction_initialize@_pin_config
  1331   0016A0  EC20  F00A         	call	_gpio_pin_direction_initialize	;wreg free
  1332   0016A4  6E77               	movwf	gpio_pin_initialize@ret^0,c
  1333                           
  1334                           ;MCAL_Layer/GPIO/mcal_gpio.c: 157:         ret = gpio_pin_write_logic(_pin_config,_pin_c
      +                          onfig->logic);
  1335   0016A6  C075  F06D         	movff	gpio_pin_initialize@_pin_config,gpio_pin_write_logic@_pin_config
  1336   0016AA  5075               	movf	gpio_pin_initialize@_pin_config^0,w,c
  1337   0016AC  6ED9               	movwf	fsr2l,c
  1338   0016AE  6ADA               	clrf	fsr2h,c
  1339   0016B0  0E00               	movlw	0
  1340   0016B2  BEDF               	btfsc	indf2,7,c
  1341   0016B4  0E01               	movlw	1
  1342   0016B6  6E6E               	movwf	gpio_pin_write_logic@logic^0,c
  1343   0016B8  EC7E  F009         	call	_gpio_pin_write_logic	;wreg free
  1344   0016BC  6E77               	movwf	gpio_pin_initialize@ret^0,c
  1345                           
  1346                           ;MCAL_Layer/GPIO/mcal_gpio.c: 158:     }
  1347   0016BE  EF63  F00B         	goto	l598
  1348   0016C2                     l4087:
  1349   0016C2  0E00               	movlw	0
  1350   0016C4  6E77               	movwf	gpio_pin_initialize@ret^0,c
  1351   0016C6                     l598:
  1352                           
  1353                           ;MCAL_Layer/GPIO/mcal_gpio.c: 160:     return ret;
  1354   0016C6  5077               	movf	gpio_pin_initialize@ret^0,w,c
  1355   0016C8  0012               	return		;funcret
  1356   0016CA                     __end_of_gpio_pin_initialize:
  1357                           	callstack 0
  1358                           
  1359 ;; *************** function _gpio_pin_write_logic *****************
  1360 ;; Defined at:
  1361 ;;		line 83 in file "MCAL_Layer/GPIO/mcal_gpio.c"
  1362 ;; Parameters:    Size  Location     Type
  1363 ;;  _pin_config     1    2[COMRAM] PTR const struct .
  1364 ;;		 -> relay_turn_off@pin(1), relay_turn_on@pin(1), relay_initialize@pin(1), led_turn_off@pin(1), 
  1365 ;;		 -> led_turn_on@pin(1), led_initialize@pin(1), 
  1366 ;;  logic           1    3[COMRAM] enum E3002
  1367 ;; Auto vars:     Size  Location     Type
  1368 ;;  ret             1    9[COMRAM] unsigned char 
  1369 ;; Return value:  Size  Location     Type
  1370 ;;                  1    wreg      unsigned char 
  1371 ;; Registers used:
  1372 ;;		wreg, fsr2l, fsr2h, status,2, status,0, prodl, prodh
  1373 ;; Tracked objects:
  1374 ;;		On entry : 0/0
  1375 ;;		On exit  : 0/0
  1376 ;;		Unchanged: 0/0
  1377 ;; Data sizes:     COMRAM   BANK0   BANK1   BANK2   BANK3   BANK4   BANK5   BANK6   BANK7   BANK8   BANK9  BANK10  BANK1
      +1  BANK12  BANK13  BANK14  BANK15
  1378 ;;      Params:         2       0       0       0       0       0       0       0       0       0       0       0       
      +0       0       0       0       0
  1379 ;;      Locals:         1       0       0       0       0       0       0       0       0       0       0       0       
      +0       0       0       0       0
  1380 ;;      Temps:          5       0       0       0       0       0       0       0       0       0       0       0       
      +0       0       0       0       0
  1381 ;;      Totals:         8       0       0       0       0       0       0       0       0       0       0       0       
      +0       0       0       0       0
  1382 ;;Total ram usage:        8 bytes
  1383 ;; Hardware stack levels used: 1
  1384 ;; Hardware stack levels required when called: 4
  1385 ;; This function calls:
  1386 ;;		Nothing
  1387 ;; This function is called by:
  1388 ;;		_gpio_pin_initialize
  1389 ;;		_dc_motor_move_right
  1390 ;;		_dc_motor_move_left
  1391 ;;		_dc_motor_stop
  1392 ;;		_keypad_get_value
  1393 ;;		_lcd_4bit_send_command
  1394 ;;		_lcd_4bit_send_char_data
  1395 ;;		_lcd_8bit_send_command
  1396 ;;		_lcd_8bit_send_char_data
  1397 ;;		_lcd_send_4bits
  1398 ;;		_lcd_4bit_send_enable_signal
  1399 ;;		_lcd_8bit_send_enable_signal
  1400 ;;		_led_turn_on
  1401 ;;		_led_turn_off
  1402 ;;		_relay_turn_on
  1403 ;;		_relay_turn_off
  1404 ;;		_seven_segment_write_number
  1405 ;; This function uses a non-reentrant model
  1406 ;;
  1407                           
  1408                           	psect	text9
  1409   0012FC                     __ptext9:
  1410                           	callstack 0
  1411   0012FC                     _gpio_pin_write_logic:
  1412                           	callstack 22
  1413   0012FC                     
  1414                           ;MCAL_Layer/GPIO/mcal_gpio.c: 83: Std_ReturnType gpio_pin_write_logic(const pin_config_t
      +                           *_pin_config , logic_t logic);MCAL_Layer/GPIO/mcal_gpio.c: 84: {;MCAL_Layer/GPIO/mcal_g
      +                          pio.c: 85:     Std_ReturnType ret = (Std_ReturnType)0x01;
  1415   0012FC  0E01               	movlw	1
  1416   0012FE  6E74               	movwf	gpio_pin_write_logic@ret^0,c
  1417                           
  1418                           ;MCAL_Layer/GPIO/mcal_gpio.c: 86:     if((_pin_config != ((void*)0)) && (_pin_config->po
      +                          rt <= 5 -1) && (_pin_config->pin <= 8 -1))
  1419   001300  506D               	movf	gpio_pin_write_logic@_pin_config^0,w,c
  1420   001302  B4D8               	btfsc	status,2,c
  1421   001304  EF86  F009         	goto	u2671
  1422   001308  EF88  F009         	goto	u2670
  1423   00130C                     u2671:
  1424   00130C  EF05  F00A         	goto	l4065
  1425   001310                     u2670:
  1426   001310  506D               	movf	gpio_pin_write_logic@_pin_config^0,w,c
  1427   001312  6ED9               	movwf	fsr2l,c
  1428   001314  6ADA               	clrf	fsr2h,c
  1429   001316  50DF               	movf	223,w,c
  1430   001318  0B07               	andlw	7
  1431   00131A  6E6F               	movwf	??_gpio_pin_write_logic^0,c
  1432   00131C  0E05               	movlw	5
  1433   00131E  606F               	cpfslt	??_gpio_pin_write_logic^0,c
  1434   001320  EF94  F009         	goto	u2681
  1435   001324  EF96  F009         	goto	u2680
  1436   001328                     u2681:
  1437   001328  EF05  F00A         	goto	l4065
  1438   00132C                     u2680:
  1439   00132C  506D               	movf	gpio_pin_write_logic@_pin_config^0,w,c
  1440   00132E  6ED9               	movwf	fsr2l,c
  1441   001330  6ADA               	clrf	fsr2h,c
  1442   001332  30DF               	rrcf	223,w,c
  1443   001334  32E8               	rrcf	wreg,f,c
  1444   001336  32E8               	rrcf	wreg,f,c
  1445   001338  0B07               	andlw	7
  1446   00133A  6E6F               	movwf	??_gpio_pin_write_logic^0,c
  1447   00133C  0E08               	movlw	8
  1448   00133E  606F               	cpfslt	??_gpio_pin_write_logic^0,c
  1449   001340  EFA4  F009         	goto	u2691
  1450   001344  EFA6  F009         	goto	u2690
  1451   001348                     u2691:
  1452   001348  EF05  F00A         	goto	l4065
  1453   00134C                     u2690:
  1454   00134C                     
  1455                           ;MCAL_Layer/GPIO/mcal_gpio.c: 87:     {;MCAL_Layer/GPIO/mcal_gpio.c: 88:         if(_pin
      +                          _config->direction == GPIO_DIRECTION_OUTPUT)
  1456   00134C  506D               	movf	gpio_pin_write_logic@_pin_config^0,w,c
  1457   00134E  6ED9               	movwf	fsr2l,c
  1458   001350  6ADA               	clrf	fsr2h,c
  1459   001352  BCDF               	btfsc	indf2,6,c
  1460   001354  EFAE  F009         	goto	u2701
  1461   001358  EFB0  F009         	goto	u2700
  1462   00135C                     u2701:
  1463   00135C  EF05  F00A         	goto	l4065
  1464   001360                     u2700:
  1465   001360  EF09  F00A         	goto	l4067
  1466   001364                     l4061:
  1467                           
  1468                           ;MCAL_Layer/GPIO/mcal_gpio.c: 93:                     (*lat_registers[_pin_config->port]
      +                           &=~ ((uint8)0x01 << _pin_config->pin));
  1469   001364  506D               	movf	gpio_pin_write_logic@_pin_config^0,w,c
  1470   001366  6ED9               	movwf	fsr2l,c
  1471   001368  6ADA               	clrf	fsr2h,c
  1472   00136A  30DF               	rrcf	223,w,c
  1473   00136C  32E8               	rrcf	wreg,f,c
  1474   00136E  32E8               	rrcf	wreg,f,c
  1475   001370  0B07               	andlw	7
  1476   001372  6E6F               	movwf	??_gpio_pin_write_logic^0,c
  1477   001374  0E01               	movlw	1
  1478   001376  6E70               	movwf	(??_gpio_pin_write_logic+1)^0,c
  1479   001378  2A6F               	incf	??_gpio_pin_write_logic^0,f,c
  1480   00137A  EFC1  F009         	goto	u2714
  1481   00137E                     u2715:
  1482   00137E  90D8               	bcf	status,0,c
  1483   001380  3670               	rlcf	(??_gpio_pin_write_logic+1)^0,f,c
  1484   001382                     u2714:
  1485   001382  2E6F               	decfsz	??_gpio_pin_write_logic^0,f,c
  1486   001384  EFBF  F009         	goto	u2715
  1487   001388  5070               	movf	(??_gpio_pin_write_logic+1)^0,w,c
  1488   00138A  0AFF               	xorlw	255
  1489   00138C  6E71               	movwf	(??_gpio_pin_write_logic+2)^0,c
  1490   00138E  506D               	movf	gpio_pin_write_logic@_pin_config^0,w,c
  1491   001390  6ED9               	movwf	fsr2l,c
  1492   001392  6ADA               	clrf	fsr2h,c
  1493   001394  50DF               	movf	223,w,c
  1494   001396  0B07               	andlw	7
  1495   001398  0D02               	mullw	2
  1496   00139A  50F3               	movf	243,w,c
  1497   00139C  0F3F               	addlw	low _lat_registers
  1498   00139E  6ED9               	movwf	fsr2l,c
  1499   0013A0  6ADA               	clrf	fsr2h,c
  1500   0013A2  CFDE F072          	movff	postinc2,??_gpio_pin_write_logic+3
  1501   0013A6  CFDD F073          	movff	postdec2,??_gpio_pin_write_logic+4
  1502   0013AA  C072  FFD9         	movff	??_gpio_pin_write_logic+3,fsr2l
  1503   0013AE  C073  FFDA         	movff	??_gpio_pin_write_logic+4,fsr2h
  1504   0013B2  5071               	movf	(??_gpio_pin_write_logic+2)^0,w,c
  1505   0013B4  16DF               	andwf	indf2,f,c
  1506                           
  1507                           ;MCAL_Layer/GPIO/mcal_gpio.c: 94:                     break;
  1508   0013B6  EF1E  F00A         	goto	l583
  1509   0013BA                     l4063:
  1510                           
  1511                           ;MCAL_Layer/GPIO/mcal_gpio.c: 96:                     (*lat_registers[_pin_config->port]
      +                           |= ((uint8)0x01 << _pin_config->pin));
  1512   0013BA  506D               	movf	gpio_pin_write_logic@_pin_config^0,w,c
  1513   0013BC  6ED9               	movwf	fsr2l,c
  1514   0013BE  6ADA               	clrf	fsr2h,c
  1515   0013C0  30DF               	rrcf	223,w,c
  1516   0013C2  32E8               	rrcf	wreg,f,c
  1517   0013C4  32E8               	rrcf	wreg,f,c
  1518   0013C6  0B07               	andlw	7
  1519   0013C8  6E6F               	movwf	??_gpio_pin_write_logic^0,c
  1520   0013CA  0E01               	movlw	1
  1521   0013CC  6E70               	movwf	(??_gpio_pin_write_logic+1)^0,c
  1522   0013CE  2A6F               	incf	??_gpio_pin_write_logic^0,f,c
  1523   0013D0  EFEC  F009         	goto	u2724
  1524   0013D4                     u2725:
  1525   0013D4  90D8               	bcf	status,0,c
  1526   0013D6  3670               	rlcf	(??_gpio_pin_write_logic+1)^0,f,c
  1527   0013D8                     u2724:
  1528   0013D8  2E6F               	decfsz	??_gpio_pin_write_logic^0,f,c
  1529   0013DA  EFEA  F009         	goto	u2725
  1530   0013DE  506D               	movf	gpio_pin_write_logic@_pin_config^0,w,c
  1531   0013E0  6ED9               	movwf	fsr2l,c
  1532   0013E2  6ADA               	clrf	fsr2h,c
  1533   0013E4  50DF               	movf	223,w,c
  1534   0013E6  0B07               	andlw	7
  1535   0013E8  0D02               	mullw	2
  1536   0013EA  50F3               	movf	243,w,c
  1537   0013EC  0F3F               	addlw	low _lat_registers
  1538   0013EE  6ED9               	movwf	fsr2l,c
  1539   0013F0  6ADA               	clrf	fsr2h,c
  1540   0013F2  CFDE F071          	movff	postinc2,??_gpio_pin_write_logic+2
  1541   0013F6  CFDD F072          	movff	postdec2,??_gpio_pin_write_logic+3
  1542   0013FA  C071  FFD9         	movff	??_gpio_pin_write_logic+2,fsr2l
  1543   0013FE  C072  FFDA         	movff	??_gpio_pin_write_logic+3,fsr2h
  1544   001402  5070               	movf	(??_gpio_pin_write_logic+1)^0,w,c
  1545   001404  12DF               	iorwf	indf2,f,c
  1546                           
  1547                           ;MCAL_Layer/GPIO/mcal_gpio.c: 97:                     break;
  1548   001406  EF1E  F00A         	goto	l583
  1549   00140A                     l4065:
  1550   00140A  0E00               	movlw	0
  1551   00140C  6E74               	movwf	gpio_pin_write_logic@ret^0,c
  1552                           
  1553                           ;MCAL_Layer/GPIO/mcal_gpio.c: 99:             }
  1554   00140E  EF1E  F00A         	goto	l583
  1555   001412                     l4067:
  1556   001412  506E               	movf	gpio_pin_write_logic@logic^0,w,c
  1557   001414  6E6F               	movwf	??_gpio_pin_write_logic^0,c
  1558   001416  6A70               	clrf	(??_gpio_pin_write_logic+1)^0,c
  1559                           
  1560                           ; Switch on 2 bytes has been partitioned into a top level switch of size 1, and 1 sub-sw
      +                          itches
  1561                           ; Switch size 1, requested type "simple"
  1562                           ; Number of cases is 1, Range of values is 0 to 0
  1563                           ; switch strategies available:
  1564                           ; Name         Instructions Cycles
  1565                           ; simple_byte            4     3 (average)
  1566                           ;	Chosen strategy is simple_byte
  1567   001418  5070               	movf	(??_gpio_pin_write_logic+1)^0,w,c
  1568   00141A  0A00               	xorlw	0	; case 0
  1569   00141C  B4D8               	btfsc	status,2,c
  1570   00141E  EF13  F00A         	goto	l5025
  1571   001422  EF05  F00A         	goto	l4065
  1572   001426                     l5025:
  1573                           
  1574                           ; Switch size 1, requested type "simple"
  1575                           ; Number of cases is 2, Range of values is 0 to 1
  1576                           ; switch strategies available:
  1577                           ; Name         Instructions Cycles
  1578                           ; simple_byte            7     4 (average)
  1579                           ;	Chosen strategy is simple_byte
  1580   001426  506F               	movf	??_gpio_pin_write_logic^0,w,c
  1581   001428  0A00               	xorlw	0	; case 0
  1582   00142A  B4D8               	btfsc	status,2,c
  1583   00142C  EFB2  F009         	goto	l4061
  1584   001430  0A01               	xorlw	1	; case 1
  1585   001432  B4D8               	btfsc	status,2,c
  1586   001434  EFDD  F009         	goto	l4063
  1587   001438  EF05  F00A         	goto	l4065
  1588   00143C                     l583:
  1589                           
  1590                           ;MCAL_Layer/GPIO/mcal_gpio.c: 104:     return ret;
  1591   00143C  5074               	movf	gpio_pin_write_logic@ret^0,w,c
  1592   00143E  0012               	return		;funcret
  1593   001440                     __end_of_gpio_pin_write_logic:
  1594                           	callstack 0
  1595                           
  1596 ;; *************** function _gpio_pin_direction_initialize *****************
  1597 ;; Defined at:
  1598 ;;		line 34 in file "MCAL_Layer/GPIO/mcal_gpio.c"
  1599 ;; Parameters:    Size  Location     Type
  1600 ;;  _pin_config     1    2[COMRAM] PTR const struct .
  1601 ;;		 -> relay_initialize@pin(1), led_initialize@pin(1), 
  1602 ;; Auto vars:     Size  Location     Type
  1603 ;;  ret             1    8[COMRAM] unsigned char 
  1604 ;; Return value:  Size  Location     Type
  1605 ;;                  1    wreg      unsigned char 
  1606 ;; Registers used:
  1607 ;;		wreg, fsr2l, fsr2h, status,2, status,0, prodl, prodh
  1608 ;; Tracked objects:
  1609 ;;		On entry : 0/0
  1610 ;;		On exit  : 0/0
  1611 ;;		Unchanged: 0/0
  1612 ;; Data sizes:     COMRAM   BANK0   BANK1   BANK2   BANK3   BANK4   BANK5   BANK6   BANK7   BANK8   BANK9  BANK10  BANK1
      +1  BANK12  BANK13  BANK14  BANK15
  1613 ;;      Params:         1       0       0       0       0       0       0       0       0       0       0       0       
      +0       0       0       0       0
  1614 ;;      Locals:         1       0       0       0       0       0       0       0       0       0       0       0       
      +0       0       0       0       0
  1615 ;;      Temps:          5       0       0       0       0       0       0       0       0       0       0       0       
      +0       0       0       0       0
  1616 ;;      Totals:         7       0       0       0       0       0       0       0       0       0       0       0       
      +0       0       0       0       0
  1617 ;;Total ram usage:        7 bytes
  1618 ;; Hardware stack levels used: 1
  1619 ;; Hardware stack levels required when called: 4
  1620 ;; This function calls:
  1621 ;;		Nothing
  1622 ;; This function is called by:
  1623 ;;		_gpio_pin_initialize
  1624 ;;		_button_initialize
  1625 ;;		_keypad_initialize
  1626 ;;		_ext_interrupt_INTx_Init
  1627 ;;		_ext_interrupt_RBx_Init
  1628 ;; This function uses a non-reentrant model
  1629 ;;
  1630                           
  1631                           	psect	text10
  1632   001440                     __ptext10:
  1633                           	callstack 0
  1634   001440                     _gpio_pin_direction_initialize:
  1635                           	callstack 22
  1636   001440                     
  1637                           ;MCAL_Layer/GPIO/mcal_gpio.c: 34: Std_ReturnType gpio_pin_direction_initialize(const pin
      +                          _config_t *_pin_config);MCAL_Layer/GPIO/mcal_gpio.c: 35: {;MCAL_Layer/GPIO/mcal_gpio.c: 
      +                          36:     Std_ReturnType ret = (Std_ReturnType)0x01;
  1638   001440  0E01               	movlw	1
  1639   001442  6E73               	movwf	gpio_pin_direction_initialize@ret^0,c
  1640                           
  1641                           ;MCAL_Layer/GPIO/mcal_gpio.c: 38:     if((_pin_config != ((void*)0)) && (_pin_config->po
      +                          rt <= 5 -1) && (_pin_config->pin <= 8 -1))
  1642   001444  506D               	movf	gpio_pin_direction_initialize@_pin_config^0,w,c
  1643   001446  B4D8               	btfsc	status,2,c
  1644   001448  EF28  F00A         	goto	u2611
  1645   00144C  EF2A  F00A         	goto	u2610
  1646   001450                     u2611:
  1647   001450  EF9D  F00A         	goto	l4043
  1648   001454                     u2610:
  1649   001454  506D               	movf	gpio_pin_direction_initialize@_pin_config^0,w,c
  1650   001456  6ED9               	movwf	fsr2l,c
  1651   001458  6ADA               	clrf	fsr2h,c
  1652   00145A  50DF               	movf	223,w,c
  1653   00145C  0B07               	andlw	7
  1654   00145E  6E6E               	movwf	??_gpio_pin_direction_initialize^0,c
  1655   001460  0E05               	movlw	5
  1656   001462  606E               	cpfslt	??_gpio_pin_direction_initialize^0,c
  1657   001464  EF36  F00A         	goto	u2621
  1658   001468  EF38  F00A         	goto	u2620
  1659   00146C                     u2621:
  1660   00146C  EF9D  F00A         	goto	l4043
  1661   001470                     u2620:
  1662   001470  506D               	movf	gpio_pin_direction_initialize@_pin_config^0,w,c
  1663   001472  6ED9               	movwf	fsr2l,c
  1664   001474  6ADA               	clrf	fsr2h,c
  1665   001476  30DF               	rrcf	223,w,c
  1666   001478  32E8               	rrcf	wreg,f,c
  1667   00147A  32E8               	rrcf	wreg,f,c
  1668   00147C  0B07               	andlw	7
  1669   00147E  6E6E               	movwf	??_gpio_pin_direction_initialize^0,c
  1670   001480  0E08               	movlw	8
  1671   001482  606E               	cpfslt	??_gpio_pin_direction_initialize^0,c
  1672   001484  EF46  F00A         	goto	u2631
  1673   001488  EF48  F00A         	goto	u2630
  1674   00148C                     u2631:
  1675   00148C  EF9D  F00A         	goto	l4043
  1676   001490                     u2630:
  1677   001490  EFA1  F00A         	goto	l4045
  1678   001494                     l4039:
  1679                           
  1680                           ;MCAL_Layer/GPIO/mcal_gpio.c: 43:                 (*tris_registers[_pin_config->port] &=
      +                          ~ ((uint8)0x01 << _pin_config->pin));
  1681   001494  506D               	movf	gpio_pin_direction_initialize@_pin_config^0,w,c
  1682   001496  6ED9               	movwf	fsr2l,c
  1683   001498  6ADA               	clrf	fsr2h,c
  1684   00149A  30DF               	rrcf	223,w,c
  1685   00149C  32E8               	rrcf	wreg,f,c
  1686   00149E  32E8               	rrcf	wreg,f,c
  1687   0014A0  0B07               	andlw	7
  1688   0014A2  6E6E               	movwf	??_gpio_pin_direction_initialize^0,c
  1689   0014A4  0E01               	movlw	1
  1690   0014A6  6E6F               	movwf	(??_gpio_pin_direction_initialize+1)^0,c
  1691   0014A8  2A6E               	incf	??_gpio_pin_direction_initialize^0,f,c
  1692   0014AA  EF59  F00A         	goto	u2644
  1693   0014AE                     u2645:
  1694   0014AE  90D8               	bcf	status,0,c
  1695   0014B0  366F               	rlcf	(??_gpio_pin_direction_initialize+1)^0,f,c
  1696   0014B2                     u2644:
  1697   0014B2  2E6E               	decfsz	??_gpio_pin_direction_initialize^0,f,c
  1698   0014B4  EF57  F00A         	goto	u2645
  1699   0014B8  506F               	movf	(??_gpio_pin_direction_initialize+1)^0,w,c
  1700   0014BA  0AFF               	xorlw	255
  1701   0014BC  6E70               	movwf	(??_gpio_pin_direction_initialize+2)^0,c
  1702   0014BE  506D               	movf	gpio_pin_direction_initialize@_pin_config^0,w,c
  1703   0014C0  6ED9               	movwf	fsr2l,c
  1704   0014C2  6ADA               	clrf	fsr2h,c
  1705   0014C4  50DF               	movf	223,w,c
  1706   0014C6  0B07               	andlw	7
  1707   0014C8  0D02               	mullw	2
  1708   0014CA  50F3               	movf	243,w,c
  1709   0014CC  0F49               	addlw	low _tris_registers
  1710   0014CE  6ED9               	movwf	fsr2l,c
  1711   0014D0  6ADA               	clrf	fsr2h,c
  1712   0014D2  CFDE F071          	movff	postinc2,??_gpio_pin_direction_initialize+3
  1713   0014D6  CFDD F072          	movff	postdec2,??_gpio_pin_direction_initialize+4
  1714   0014DA  C071  FFD9         	movff	??_gpio_pin_direction_initialize+3,fsr2l
  1715   0014DE  C072  FFDA         	movff	??_gpio_pin_direction_initialize+4,fsr2h
  1716   0014E2  5070               	movf	(??_gpio_pin_direction_initialize+2)^0,w,c
  1717   0014E4  16DF               	andwf	indf2,f,c
  1718                           
  1719                           ;MCAL_Layer/GPIO/mcal_gpio.c: 44:                 break;
  1720   0014E6  EFB7  F00A         	goto	l566
  1721   0014EA                     l4041:
  1722                           
  1723                           ;MCAL_Layer/GPIO/mcal_gpio.c: 46:                 (*tris_registers[_pin_config->port] |=
      +                           ((uint8)0x01 << _pin_config->pin));
  1724   0014EA  506D               	movf	gpio_pin_direction_initialize@_pin_config^0,w,c
  1725   0014EC  6ED9               	movwf	fsr2l,c
  1726   0014EE  6ADA               	clrf	fsr2h,c
  1727   0014F0  30DF               	rrcf	223,w,c
  1728   0014F2  32E8               	rrcf	wreg,f,c
  1729   0014F4  32E8               	rrcf	wreg,f,c
  1730   0014F6  0B07               	andlw	7
  1731   0014F8  6E6E               	movwf	??_gpio_pin_direction_initialize^0,c
  1732   0014FA  0E01               	movlw	1
  1733   0014FC  6E6F               	movwf	(??_gpio_pin_direction_initialize+1)^0,c
  1734   0014FE  2A6E               	incf	??_gpio_pin_direction_initialize^0,f,c
  1735   001500  EF84  F00A         	goto	u2654
  1736   001504                     u2655:
  1737   001504  90D8               	bcf	status,0,c
  1738   001506  366F               	rlcf	(??_gpio_pin_direction_initialize+1)^0,f,c
  1739   001508                     u2654:
  1740   001508  2E6E               	decfsz	??_gpio_pin_direction_initialize^0,f,c
  1741   00150A  EF82  F00A         	goto	u2655
  1742   00150E  506D               	movf	gpio_pin_direction_initialize@_pin_config^0,w,c
  1743   001510  6ED9               	movwf	fsr2l,c
  1744   001512  6ADA               	clrf	fsr2h,c
  1745   001514  50DF               	movf	223,w,c
  1746   001516  0B07               	andlw	7
  1747   001518  0D02               	mullw	2
  1748   00151A  50F3               	movf	243,w,c
  1749   00151C  0F49               	addlw	low _tris_registers
  1750   00151E  6ED9               	movwf	fsr2l,c
  1751   001520  6ADA               	clrf	fsr2h,c
  1752   001522  CFDE F070          	movff	postinc2,??_gpio_pin_direction_initialize+2
  1753   001526  CFDD F071          	movff	postdec2,??_gpio_pin_direction_initialize+3
  1754   00152A  C070  FFD9         	movff	??_gpio_pin_direction_initialize+2,fsr2l
  1755   00152E  C071  FFDA         	movff	??_gpio_pin_direction_initialize+3,fsr2h
  1756   001532  506F               	movf	(??_gpio_pin_direction_initialize+1)^0,w,c
  1757   001534  12DF               	iorwf	indf2,f,c
  1758                           
  1759                           ;MCAL_Layer/GPIO/mcal_gpio.c: 47:                 break;
  1760   001536  EFB7  F00A         	goto	l566
  1761   00153A                     l4043:
  1762   00153A  0E00               	movlw	0
  1763   00153C  6E73               	movwf	gpio_pin_direction_initialize@ret^0,c
  1764                           
  1765                           ;MCAL_Layer/GPIO/mcal_gpio.c: 49:         }
  1766   00153E  EFB7  F00A         	goto	l566
  1767   001542                     l4045:
  1768   001542  506D               	movf	gpio_pin_direction_initialize@_pin_config^0,w,c
  1769   001544  6ED9               	movwf	fsr2l,c
  1770   001546  6ADA               	clrf	fsr2h,c
  1771   001548  BCDF               	btfsc	indf2,6,c
  1772   00154A  EFA9  F00A         	goto	u2661
  1773   00154E  EFAC  F00A         	goto	u2660
  1774   001552                     u2661:
  1775   001552  0E01               	movlw	1
  1776   001554  EFAD  F00A         	goto	u2666
  1777   001558                     u2660:
  1778   001558  0E00               	movlw	0
  1779   00155A                     u2666:
  1780                           
  1781                           ; Switch size 1, requested type "simple"
  1782                           ; Number of cases is 2, Range of values is 0 to 1
  1783                           ; switch strategies available:
  1784                           ; Name         Instructions Cycles
  1785                           ; simple_byte            7     4 (average)
  1786                           ;	Chosen strategy is simple_byte
  1787   00155A  0A00               	xorlw	0	; case 0
  1788   00155C  B4D8               	btfsc	status,2,c
  1789   00155E  EF4A  F00A         	goto	l4039
  1790   001562  0A01               	xorlw	1	; case 1
  1791   001564  B4D8               	btfsc	status,2,c
  1792   001566  EF75  F00A         	goto	l4041
  1793   00156A  EF9D  F00A         	goto	l4043
  1794   00156E                     l566:
  1795                           
  1796                           ;MCAL_Layer/GPIO/mcal_gpio.c: 53:     return ret;
  1797   00156E  5073               	movf	gpio_pin_direction_initialize@ret^0,w,c
  1798   001570  0012               	return		;funcret
  1799   001572                     __end_of_gpio_pin_direction_initialize:
  1800                           	callstack 0
  1801                           
  1802 ;; *************** function _InterruptManagerLow *****************
  1803 ;; Defined at:
  1804 ;;		line 138 in file "MCAL_Layer/Interrupt/mcal_interrupt_manager.c"
  1805 ;; Parameters:    Size  Location     Type
  1806 ;;		None
  1807 ;; Auto vars:     Size  Location     Type
  1808 ;;		None
  1809 ;; Return value:  Size  Location     Type
  1810 ;;                  1    wreg      void 
  1811 ;; Registers used:
  1812 ;;		cstack
  1813 ;; Tracked objects:
  1814 ;;		On entry : 0/0
  1815 ;;		On exit  : 0/0
  1816 ;;		Unchanged: 0/0
  1817 ;; Data sizes:     COMRAM   BANK0   BANK1   BANK2   BANK3   BANK4   BANK5   BANK6   BANK7   BANK8   BANK9  BANK10  BANK1
      +1  BANK12  BANK13  BANK14  BANK15
  1818 ;;      Params:         0       0       0       0       0       0       0       0       0       0       0       0       
      +0       0       0       0       0
  1819 ;;      Locals:         0       0       0       0       0       0       0       0       0       0       0       0       
      +0       0       0       0       0
  1820 ;;      Temps:          1       0       0       0       0       0       0       0       0       0       0       0       
      +0       0       0       0       0
  1821 ;;      Totals:         1       0       0       0       0       0       0       0       0       0       0       0       
      +0       0       0       0       0
  1822 ;;Total ram usage:        1 bytes
  1823 ;; Hardware stack levels used: 1
  1824 ;; Hardware stack levels required when called: 3
  1825 ;; This function calls:
  1826 ;;		_INT1_ISR
  1827 ;;		_INT2_ISR
  1828 ;; This function is called by:
  1829 ;;		Interrupt level 1
  1830 ;; This function uses a non-reentrant model
  1831 ;;
  1832                           
  1833                           	psect	intcodelo
  1834   000018                     __pintcodelo:
  1835                           	callstack 0
  1836   000018                     _InterruptManagerLow:
  1837                           	callstack 22
  1838                           
  1839                           ;incstack = 0
  1840   000018  807D               	bsf	int$flags,0,c	;set compiler interrupt flag (level 1)
  1841   00001A  CFE0 F06C          	movff	bsr,??_InterruptManagerLow
  1842   00001E                     
  1843                           ;MCAL_Layer/Interrupt/mcal_interrupt_manager.c: 143:     if((1 == INTCON3bits.INT1IE) &&
      +                           (1 == INTCON3bits.INT1IF))
  1844   00001E  A6F0               	btfss	240,3,c	;volatile
  1845   000020  EF14  F000         	goto	i1u204_21
  1846   000024  EF16  F000         	goto	i1u204_20
  1847   000028                     i1u204_21:
  1848   000028  EF1F  F000         	goto	i1l709
  1849   00002C                     i1u204_20:
  1850   00002C  A0F0               	btfss	240,0,c	;volatile
  1851   00002E  EF1B  F000         	goto	i1u205_21
  1852   000032  EF1D  F000         	goto	i1u205_20
  1853   000036                     i1u205_21:
  1854   000036  EF1F  F000         	goto	i1l709
  1855   00003A                     i1u205_20:
  1856   00003A                     
  1857                           ;MCAL_Layer/Interrupt/mcal_interrupt_manager.c: 144:     {;MCAL_Layer/Interrupt/mcal_int
      +                          errupt_manager.c: 145:         INT1_ISR();
  1858   00003A  ECB0  F00C         	call	_INT1_ISR	;wreg free
  1859   00003E                     i1l709:
  1860                           
  1861                           ;MCAL_Layer/Interrupt/mcal_interrupt_manager.c: 148:     if((1 == INTCON3bits.INT2IE) &&
      +                           (1 == INTCON3bits.INT2IF))
  1862   00003E  A8F0               	btfss	240,4,c	;volatile
  1863   000040  EF24  F000         	goto	i1u206_21
  1864   000044  EF26  F000         	goto	i1u206_20
  1865   000048                     i1u206_21:
  1866   000048  EF2F  F000         	goto	i1l712
  1867   00004C                     i1u206_20:
  1868   00004C  A2F0               	btfss	240,1,c	;volatile
  1869   00004E  EF2B  F000         	goto	i1u207_21
  1870   000052  EF2D  F000         	goto	i1u207_20
  1871   000056                     i1u207_21:
  1872   000056  EF2F  F000         	goto	i1l712
  1873   00005A                     i1u207_20:
  1874   00005A                     
  1875                           ;MCAL_Layer/Interrupt/mcal_interrupt_manager.c: 149:     {;MCAL_Layer/Interrupt/mcal_int
      +                          errupt_manager.c: 150:         INT2_ISR();
  1876   00005A  ECAE  F00C         	call	_INT2_ISR	;wreg free
  1877   00005E                     i1l712:
  1878   00005E  C06C  FFE0         	movff	??_InterruptManagerLow,bsr
  1879   000062  907D               	bcf	int$flags,0,c	;clear compiler interrupt flag (level 1)
  1880   000064  0010               	retfie	
  1881   000066                     __end_of_InterruptManagerLow:
  1882                           	callstack 0
  1883                           
  1884 ;; *************** function _INT2_ISR *****************
  1885 ;; Defined at:
  1886 ;;		line 218 in file "MCAL_Layer/Interrupt/mcal_external_interrupt.c"
  1887 ;; Parameters:    Size  Location     Type
  1888 ;;		None
  1889 ;; Auto vars:     Size  Location     Type
  1890 ;;		None
  1891 ;; Return value:  Size  Location     Type
  1892 ;;                  1    wreg      void 
  1893 ;; Registers used:
  1894 ;;		None
  1895 ;; Tracked objects:
  1896 ;;		On entry : 0/0
  1897 ;;		On exit  : 0/0
  1898 ;;		Unchanged: 0/0
  1899 ;; Data sizes:     COMRAM   BANK0   BANK1   BANK2   BANK3   BANK4   BANK5   BANK6   BANK7   BANK8   BANK9  BANK10  BANK1
      +1  BANK12  BANK13  BANK14  BANK15
  1900 ;;      Params:         0       0       0       0       0       0       0       0       0       0       0       0       
      +0       0       0       0       0
  1901 ;;      Locals:         0       0       0       0       0       0       0       0       0       0       0       0       
      +0       0       0       0       0
  1902 ;;      Temps:          0       0       0       0       0       0       0       0       0       0       0       0       
      +0       0       0       0       0
  1903 ;;      Totals:         0       0       0       0       0       0       0       0       0       0       0       0       
      +0       0       0       0       0
  1904 ;;Total ram usage:        0 bytes
  1905 ;; Hardware stack levels used: 1
  1906 ;; Hardware stack levels required when called: 2
  1907 ;; This function calls:
  1908 ;;		Nothing
  1909 ;; This function is called by:
  1910 ;;		_InterruptManagerLow
  1911 ;; This function uses a non-reentrant model
  1912 ;;
  1913                           
  1914                           	psect	text12
  1915   00195C                     __ptext12:
  1916                           	callstack 0
  1917   00195C                     _INT2_ISR:
  1918                           	callstack 22
  1919   00195C                     
  1920                           ;MCAL_Layer/Interrupt/mcal_external_interrupt.c: 221:     (INTCON3bits.INT2IF = 0);
  1921   00195C  92F0               	bcf	240,1,c	;volatile
  1922   00195E  0012               	return		;funcret
  1923   001960                     __end_of_INT2_ISR:
  1924                           	callstack 0
  1925                           
  1926 ;; *************** function _INT1_ISR *****************
  1927 ;; Defined at:
  1928 ;;		line 204 in file "MCAL_Layer/Interrupt/mcal_external_interrupt.c"
  1929 ;; Parameters:    Size  Location     Type
  1930 ;;		None
  1931 ;; Auto vars:     Size  Location     Type
  1932 ;;		None
  1933 ;; Return value:  Size  Location     Type
  1934 ;;                  1    wreg      void 
  1935 ;; Registers used:
  1936 ;;		None
  1937 ;; Tracked objects:
  1938 ;;		On entry : 0/0
  1939 ;;		On exit  : 0/0
  1940 ;;		Unchanged: 0/0
  1941 ;; Data sizes:     COMRAM   BANK0   BANK1   BANK2   BANK3   BANK4   BANK5   BANK6   BANK7   BANK8   BANK9  BANK10  BANK1
      +1  BANK12  BANK13  BANK14  BANK15
  1942 ;;      Params:         0       0       0       0       0       0       0       0       0       0       0       0       
      +0       0       0       0       0
  1943 ;;      Locals:         0       0       0       0       0       0       0       0       0       0       0       0       
      +0       0       0       0       0
  1944 ;;      Temps:          0       0       0       0       0       0       0       0       0       0       0       0       
      +0       0       0       0       0
  1945 ;;      Totals:         0       0       0       0       0       0       0       0       0       0       0       0       
      +0       0       0       0       0
  1946 ;;Total ram usage:        0 bytes
  1947 ;; Hardware stack levels used: 1
  1948 ;; Hardware stack levels required when called: 2
  1949 ;; This function calls:
  1950 ;;		Nothing
  1951 ;; This function is called by:
  1952 ;;		_InterruptManagerLow
  1953 ;; This function uses a non-reentrant model
  1954 ;;
  1955                           
  1956                           	psect	text13
  1957   001960                     __ptext13:
  1958                           	callstack 0
  1959   001960                     _INT1_ISR:
  1960                           	callstack 22
  1961   001960                     
  1962                           ;MCAL_Layer/Interrupt/mcal_external_interrupt.c: 207:     (INTCON3bits.INT1IF = 0);
  1963   001960  90F0               	bcf	240,0,c	;volatile
  1964   001962  0012               	return		;funcret
  1965   001964                     __end_of_INT1_ISR:
  1966                           	callstack 0
  1967                           
  1968 ;; *************** function _InterruptManagerHigh *****************
  1969 ;; Defined at:
  1970 ;;		line 28 in file "MCAL_Layer/Interrupt/mcal_interrupt_manager.c"
  1971 ;; Parameters:    Size  Location     Type
  1972 ;;		None
  1973 ;; Auto vars:     Size  Location     Type
  1974 ;;		None
  1975 ;; Return value:  Size  Location     Type
  1976 ;;                  1    wreg      void 
  1977 ;; Registers used:
  1978 ;;		wreg, status,2, status,0, cstack
  1979 ;; Tracked objects:
  1980 ;;		On entry : 0/0
  1981 ;;		On exit  : 0/0
  1982 ;;		Unchanged: 0/0
  1983 ;; Data sizes:     COMRAM   BANK0   BANK1   BANK2   BANK3   BANK4   BANK5   BANK6   BANK7   BANK8   BANK9  BANK10  BANK1
      +1  BANK12  BANK13  BANK14  BANK15
  1984 ;;      Params:         0       0       0       0       0       0       0       0       0       0       0       0       
      +0       0       0       0       0
  1985 ;;      Locals:         0       0       0       0       0       0       0       0       0       0       0       0       
      +0       0       0       0       0
  1986 ;;      Temps:          0       0       0       0       0       0       0       0       0       0       0       0       
      +0       0       0       0       0
  1987 ;;      Totals:         0       0       0       0       0       0       0       0       0       0       0       0       
      +0       0       0       0       0
  1988 ;;Total ram usage:        0 bytes
  1989 ;; Hardware stack levels used: 1
  1990 ;; Hardware stack levels required when called: 1
  1991 ;; This function calls:
  1992 ;;		_ADC_ISR
  1993 ;;		_INT0_ISR
  1994 ;;		_RB4_ISR
  1995 ;;		_RB5_ISR
  1996 ;;		_RB6_ISR
  1997 ;;		_RB7_ISR
  1998 ;;		_TIMER0_ISR
  1999 ;;		_TIMER1_ISR
  2000 ;;		_TIMER2_ISR
  2001 ;;		_TIMER3_ISR
  2002 ;; This function is called by:
  2003 ;;		Interrupt level 2
  2004 ;; This function uses a non-reentrant model
  2005 ;;
  2006                           
  2007                           	psect	intcode
  2008   000008                     __pintcode:
  2009                           	callstack 0
  2010   000008                     _InterruptManagerHigh:
  2011                           	callstack 22
  2012                           
  2013                           ;incstack = 0
  2014   000008  827D               	bsf	int$flags,1,c	;set compiler interrupt flag (level 2)
  2015   00000A  ED0B  F008         	call	int_func,f	;refresh shadow registers
  2016                           
  2017                           	psect	intcode_body
  2018   001016                     __pintcode_body:
  2019                           	callstack 22
  2020   001016                     int_func:
  2021                           	callstack 22
  2022   001016  0006               	pop		; remove dummy address from shadow register refresh
  2023   001018                     
  2024                           ;MCAL_Layer/Interrupt/mcal_interrupt_manager.c: 33:     if((1 == INTCONbits.INT0IE) && (
      +                          1 == INTCONbits.INT0IF))
  2025   001018  A8F2               	btfss	242,4,c	;volatile
  2026   00101A  EF11  F008         	goto	i2u160_41
  2027   00101E  EF13  F008         	goto	i2u160_40
  2028   001022                     i2u160_41:
  2029   001022  EF1C  F008         	goto	i2l676
  2030   001026                     i2u160_40:
  2031   001026  A2F2               	btfss	242,1,c	;volatile
  2032   001028  EF18  F008         	goto	i2u161_41
  2033   00102C  EF1A  F008         	goto	i2u161_40
  2034   001030                     i2u161_41:
  2035   001030  EF1C  F008         	goto	i2l676
  2036   001034                     i2u161_40:
  2037   001034                     
  2038                           ;MCAL_Layer/Interrupt/mcal_interrupt_manager.c: 34:     {;MCAL_Layer/Interrupt/mcal_inte
      +                          rrupt_manager.c: 35:         INT0_ISR();
  2039   001034  ECB2  F00C         	call	_INT0_ISR	;wreg free
  2040   001038                     i2l676:
  2041                           
  2042                           ;MCAL_Layer/Interrupt/mcal_interrupt_manager.c: 42:     if((1 == INTCONbits.RBIE) && (1 
      +                          == INTCONbits.RBIF) && (GPIO_LOGIC_LOW == PORTBbits.RB4) && (1 == RB4_flag))
  2043   001038  A6F2               	btfss	242,3,c	;volatile
  2044   00103A  EF21  F008         	goto	i2u162_41
  2045   00103E  EF23  F008         	goto	i2u162_40
  2046   001042                     i2u162_41:
  2047   001042  EF3E  F008         	goto	i2l678
  2048   001046                     i2u162_40:
  2049   001046  A0F2               	btfss	242,0,c	;volatile
  2050   001048  EF28  F008         	goto	i2u163_41
  2051   00104C  EF2A  F008         	goto	i2u163_40
  2052   001050                     i2u163_41:
  2053   001050  EF3E  F008         	goto	i2l678
  2054   001054                     i2u163_40:
  2055   001054  B881               	btfsc	129,4,c	;volatile
  2056   001056  EF2F  F008         	goto	i2u164_41
  2057   00105A  EF31  F008         	goto	i2u164_40
  2058   00105E                     i2u164_41:
  2059   00105E  EF3E  F008         	goto	i2l678
  2060   001062                     i2u164_40:
  2061   001062  0436               	decf	_RB4_flag^0,w,c	;volatile
  2062   001064  A4D8               	btfss	status,2,c
  2063   001066  EF37  F008         	goto	i2u165_41
  2064   00106A  EF39  F008         	goto	i2u165_40
  2065   00106E                     i2u165_41:
  2066   00106E  EF3E  F008         	goto	i2l678
  2067   001072                     i2u165_40:
  2068   001072                     
  2069                           ;MCAL_Layer/Interrupt/mcal_interrupt_manager.c: 43:     {;MCAL_Layer/Interrupt/mcal_inte
      +                          rrupt_manager.c: 44:         RB4_flag = 0;
  2070   001072  0E00               	movlw	0
  2071   001074  6E36               	movwf	_RB4_flag^0,c	;volatile
  2072   001076                     
  2073                           ;MCAL_Layer/Interrupt/mcal_interrupt_manager.c: 45:         RB4_ISR(0);
  2074   001076  0E00               	movlw	0
  2075   001078  EC73  F00C         	call	_RB4_ISR
  2076   00107C                     i2l678:
  2077                           
  2078                           ;MCAL_Layer/Interrupt/mcal_interrupt_manager.c: 48:     if((1 == INTCONbits.RBIE) && (1 
      +                          == INTCONbits.RBIF) && (GPIO_LOGIC_HIGH == PORTBbits.RB4) && (0 == RB4_flag))
  2079   00107C  A6F2               	btfss	242,3,c	;volatile
  2080   00107E  EF43  F008         	goto	i2u166_41
  2081   001082  EF45  F008         	goto	i2u166_40
  2082   001086                     i2u166_41:
  2083   001086  EF60  F008         	goto	i2l680
  2084   00108A                     i2u166_40:
  2085   00108A  A0F2               	btfss	242,0,c	;volatile
  2086   00108C  EF4A  F008         	goto	i2u167_41
  2087   001090  EF4C  F008         	goto	i2u167_40
  2088   001094                     i2u167_41:
  2089   001094  EF60  F008         	goto	i2l680
  2090   001098                     i2u167_40:
  2091   001098  A881               	btfss	129,4,c	;volatile
  2092   00109A  EF51  F008         	goto	i2u168_41
  2093   00109E  EF53  F008         	goto	i2u168_40
  2094   0010A2                     i2u168_41:
  2095   0010A2  EF60  F008         	goto	i2l680
  2096   0010A6                     i2u168_40:
  2097   0010A6  5036               	movf	_RB4_flag^0,w,c	;volatile
  2098   0010A8  A4D8               	btfss	status,2,c
  2099   0010AA  EF59  F008         	goto	i2u169_41
  2100   0010AE  EF5B  F008         	goto	i2u169_40
  2101   0010B2                     i2u169_41:
  2102   0010B2  EF60  F008         	goto	i2l680
  2103   0010B6                     i2u169_40:
  2104   0010B6                     
  2105                           ;MCAL_Layer/Interrupt/mcal_interrupt_manager.c: 49:     {;MCAL_Layer/Interrupt/mcal_inte
      +                          rrupt_manager.c: 50:         RB4_flag = 1;
  2106   0010B6  0E01               	movlw	1
  2107   0010B8  6E36               	movwf	_RB4_flag^0,c	;volatile
  2108   0010BA                     
  2109                           ;MCAL_Layer/Interrupt/mcal_interrupt_manager.c: 51:         RB4_ISR(1);
  2110   0010BA  0E01               	movlw	1
  2111   0010BC  EC73  F00C         	call	_RB4_ISR
  2112   0010C0                     i2l680:
  2113                           
  2114                           ;MCAL_Layer/Interrupt/mcal_interrupt_manager.c: 54:     if((1 == INTCONbits.RBIE) && (1 
      +                          == INTCONbits.RBIF) && (GPIO_LOGIC_LOW == PORTBbits.RB5) && (1 == RB5_flag))
  2115   0010C0  A6F2               	btfss	242,3,c	;volatile
  2116   0010C2  EF65  F008         	goto	i2u170_41
  2117   0010C6  EF67  F008         	goto	i2u170_40
  2118   0010CA                     i2u170_41:
  2119   0010CA  EF82  F008         	goto	i2l682
  2120   0010CE                     i2u170_40:
  2121   0010CE  A0F2               	btfss	242,0,c	;volatile
  2122   0010D0  EF6C  F008         	goto	i2u171_41
  2123   0010D4  EF6E  F008         	goto	i2u171_40
  2124   0010D8                     i2u171_41:
  2125   0010D8  EF82  F008         	goto	i2l682
  2126   0010DC                     i2u171_40:
  2127   0010DC  BA81               	btfsc	129,5,c	;volatile
  2128   0010DE  EF73  F008         	goto	i2u172_41
  2129   0010E2  EF75  F008         	goto	i2u172_40
  2130   0010E6                     i2u172_41:
  2131   0010E6  EF82  F008         	goto	i2l682
  2132   0010EA                     i2u172_40:
  2133   0010EA  0435               	decf	_RB5_flag^0,w,c	;volatile
  2134   0010EC  A4D8               	btfss	status,2,c
  2135   0010EE  EF7B  F008         	goto	i2u173_41
  2136   0010F2  EF7D  F008         	goto	i2u173_40
  2137   0010F6                     i2u173_41:
  2138   0010F6  EF82  F008         	goto	i2l682
  2139   0010FA                     i2u173_40:
  2140   0010FA                     
  2141                           ;MCAL_Layer/Interrupt/mcal_interrupt_manager.c: 55:     {;MCAL_Layer/Interrupt/mcal_inte
      +                          rrupt_manager.c: 56:         RB5_flag = 0;
  2142   0010FA  0E00               	movlw	0
  2143   0010FC  6E35               	movwf	_RB5_flag^0,c	;volatile
  2144   0010FE                     
  2145                           ;MCAL_Layer/Interrupt/mcal_interrupt_manager.c: 57:         RB5_ISR(0);
  2146   0010FE  0E00               	movlw	0
  2147   001100  EC66  F00C         	call	_RB5_ISR
  2148   001104                     i2l682:
  2149                           
  2150                           ;MCAL_Layer/Interrupt/mcal_interrupt_manager.c: 60:     if((1 == INTCONbits.RBIE) && (1 
      +                          == INTCONbits.RBIF) && (GPIO_LOGIC_HIGH == PORTBbits.RB5) && (0 == RB5_flag))
  2151   001104  A6F2               	btfss	242,3,c	;volatile
  2152   001106  EF87  F008         	goto	i2u174_41
  2153   00110A  EF89  F008         	goto	i2u174_40
  2154   00110E                     i2u174_41:
  2155   00110E  EFA4  F008         	goto	i2l684
  2156   001112                     i2u174_40:
  2157   001112  A0F2               	btfss	242,0,c	;volatile
  2158   001114  EF8E  F008         	goto	i2u175_41
  2159   001118  EF90  F008         	goto	i2u175_40
  2160   00111C                     i2u175_41:
  2161   00111C  EFA4  F008         	goto	i2l684
  2162   001120                     i2u175_40:
  2163   001120  AA81               	btfss	129,5,c	;volatile
  2164   001122  EF95  F008         	goto	i2u176_41
  2165   001126  EF97  F008         	goto	i2u176_40
  2166   00112A                     i2u176_41:
  2167   00112A  EFA4  F008         	goto	i2l684
  2168   00112E                     i2u176_40:
  2169   00112E  5035               	movf	_RB5_flag^0,w,c	;volatile
  2170   001130  A4D8               	btfss	status,2,c
  2171   001132  EF9D  F008         	goto	i2u177_41
  2172   001136  EF9F  F008         	goto	i2u177_40
  2173   00113A                     i2u177_41:
  2174   00113A  EFA4  F008         	goto	i2l684
  2175   00113E                     i2u177_40:
  2176   00113E                     
  2177                           ;MCAL_Layer/Interrupt/mcal_interrupt_manager.c: 61:     {;MCAL_Layer/Interrupt/mcal_inte
      +                          rrupt_manager.c: 62:         RB5_flag = 1;
  2178   00113E  0E01               	movlw	1
  2179   001140  6E35               	movwf	_RB5_flag^0,c	;volatile
  2180   001142                     
  2181                           ;MCAL_Layer/Interrupt/mcal_interrupt_manager.c: 63:         RB5_ISR(1);
  2182   001142  0E01               	movlw	1
  2183   001144  EC66  F00C         	call	_RB5_ISR
  2184   001148                     i2l684:
  2185                           
  2186                           ;MCAL_Layer/Interrupt/mcal_interrupt_manager.c: 66:     if((1 == INTCONbits.RBIE) && (1 
      +                          == INTCONbits.RBIF) && (GPIO_LOGIC_LOW == PORTBbits.RB6) && (1 == RB6_flag))
  2187   001148  A6F2               	btfss	242,3,c	;volatile
  2188   00114A  EFA9  F008         	goto	i2u178_41
  2189   00114E  EFAB  F008         	goto	i2u178_40
  2190   001152                     i2u178_41:
  2191   001152  EFC6  F008         	goto	i2l686
  2192   001156                     i2u178_40:
  2193   001156  A0F2               	btfss	242,0,c	;volatile
  2194   001158  EFB0  F008         	goto	i2u179_41
  2195   00115C  EFB2  F008         	goto	i2u179_40
  2196   001160                     i2u179_41:
  2197   001160  EFC6  F008         	goto	i2l686
  2198   001164                     i2u179_40:
  2199   001164  BC81               	btfsc	129,6,c	;volatile
  2200   001166  EFB7  F008         	goto	i2u180_41
  2201   00116A  EFB9  F008         	goto	i2u180_40
  2202   00116E                     i2u180_41:
  2203   00116E  EFC6  F008         	goto	i2l686
  2204   001172                     i2u180_40:
  2205   001172  0434               	decf	_RB6_flag^0,w,c	;volatile
  2206   001174  A4D8               	btfss	status,2,c
  2207   001176  EFBF  F008         	goto	i2u181_41
  2208   00117A  EFC1  F008         	goto	i2u181_40
  2209   00117E                     i2u181_41:
  2210   00117E  EFC6  F008         	goto	i2l686
  2211   001182                     i2u181_40:
  2212   001182                     
  2213                           ;MCAL_Layer/Interrupt/mcal_interrupt_manager.c: 67:     {;MCAL_Layer/Interrupt/mcal_inte
      +                          rrupt_manager.c: 68:         RB6_flag = 0;
  2214   001182  0E00               	movlw	0
  2215   001184  6E34               	movwf	_RB6_flag^0,c	;volatile
  2216   001186                     
  2217                           ;MCAL_Layer/Interrupt/mcal_interrupt_manager.c: 69:         RB6_ISR(0);
  2218   001186  0E00               	movlw	0
  2219   001188  EC59  F00C         	call	_RB6_ISR
  2220   00118C                     i2l686:
  2221                           
  2222                           ;MCAL_Layer/Interrupt/mcal_interrupt_manager.c: 72:     if((1 == INTCONbits.RBIE) && (1 
      +                          == INTCONbits.RBIF) && (GPIO_LOGIC_HIGH == PORTBbits.RB6) && (0 == RB6_flag))
  2223   00118C  A6F2               	btfss	242,3,c	;volatile
  2224   00118E  EFCB  F008         	goto	i2u182_41
  2225   001192  EFCD  F008         	goto	i2u182_40
  2226   001196                     i2u182_41:
  2227   001196  EFE8  F008         	goto	i2l688
  2228   00119A                     i2u182_40:
  2229   00119A  A0F2               	btfss	242,0,c	;volatile
  2230   00119C  EFD2  F008         	goto	i2u183_41
  2231   0011A0  EFD4  F008         	goto	i2u183_40
  2232   0011A4                     i2u183_41:
  2233   0011A4  EFE8  F008         	goto	i2l688
  2234   0011A8                     i2u183_40:
  2235   0011A8  AC81               	btfss	129,6,c	;volatile
  2236   0011AA  EFD9  F008         	goto	i2u184_41
  2237   0011AE  EFDB  F008         	goto	i2u184_40
  2238   0011B2                     i2u184_41:
  2239   0011B2  EFE8  F008         	goto	i2l688
  2240   0011B6                     i2u184_40:
  2241   0011B6  5034               	movf	_RB6_flag^0,w,c	;volatile
  2242   0011B8  A4D8               	btfss	status,2,c
  2243   0011BA  EFE1  F008         	goto	i2u185_41
  2244   0011BE  EFE3  F008         	goto	i2u185_40
  2245   0011C2                     i2u185_41:
  2246   0011C2  EFE8  F008         	goto	i2l688
  2247   0011C6                     i2u185_40:
  2248   0011C6                     
  2249                           ;MCAL_Layer/Interrupt/mcal_interrupt_manager.c: 73:     {;MCAL_Layer/Interrupt/mcal_inte
      +                          rrupt_manager.c: 74:         RB6_flag = 1;
  2250   0011C6  0E01               	movlw	1
  2251   0011C8  6E34               	movwf	_RB6_flag^0,c	;volatile
  2252   0011CA                     
  2253                           ;MCAL_Layer/Interrupt/mcal_interrupt_manager.c: 75:         RB6_ISR(1);
  2254   0011CA  0E01               	movlw	1
  2255   0011CC  EC59  F00C         	call	_RB6_ISR
  2256   0011D0                     i2l688:
  2257                           
  2258                           ;MCAL_Layer/Interrupt/mcal_interrupt_manager.c: 78:     if((1 == INTCONbits.RBIE) && (1 
      +                          == INTCONbits.RBIF) && (GPIO_LOGIC_LOW == PORTBbits.RB7) && (1 == RB7_flag))
  2259   0011D0  A6F2               	btfss	242,3,c	;volatile
  2260   0011D2  EFED  F008         	goto	i2u186_41
  2261   0011D6  EFEF  F008         	goto	i2u186_40
  2262   0011DA                     i2u186_41:
  2263   0011DA  EF0A  F009         	goto	i2l690
  2264   0011DE                     i2u186_40:
  2265   0011DE  A0F2               	btfss	242,0,c	;volatile
  2266   0011E0  EFF4  F008         	goto	i2u187_41
  2267   0011E4  EFF6  F008         	goto	i2u187_40
  2268   0011E8                     i2u187_41:
  2269   0011E8  EF0A  F009         	goto	i2l690
  2270   0011EC                     i2u187_40:
  2271   0011EC  BE81               	btfsc	129,7,c	;volatile
  2272   0011EE  EFFB  F008         	goto	i2u188_41
  2273   0011F2  EFFD  F008         	goto	i2u188_40
  2274   0011F6                     i2u188_41:
  2275   0011F6  EF0A  F009         	goto	i2l690
  2276   0011FA                     i2u188_40:
  2277   0011FA  0433               	decf	_RB7_flag^0,w,c	;volatile
  2278   0011FC  A4D8               	btfss	status,2,c
  2279   0011FE  EF03  F009         	goto	i2u189_41
  2280   001202  EF05  F009         	goto	i2u189_40
  2281   001206                     i2u189_41:
  2282   001206  EF0A  F009         	goto	i2l690
  2283   00120A                     i2u189_40:
  2284   00120A                     
  2285                           ;MCAL_Layer/Interrupt/mcal_interrupt_manager.c: 79:     {;MCAL_Layer/Interrupt/mcal_inte
      +                          rrupt_manager.c: 80:         RB7_flag = 0;
  2286   00120A  0E00               	movlw	0
  2287   00120C  6E33               	movwf	_RB7_flag^0,c	;volatile
  2288   00120E                     
  2289                           ;MCAL_Layer/Interrupt/mcal_interrupt_manager.c: 81:         RB7_ISR(0);
  2290   00120E  0E00               	movlw	0
  2291   001210  EC4C  F00C         	call	_RB7_ISR
  2292   001214                     i2l690:
  2293                           
  2294                           ;MCAL_Layer/Interrupt/mcal_interrupt_manager.c: 84:     if((1 == INTCONbits.RBIE) && (1 
      +                          == INTCONbits.RBIF) && (GPIO_LOGIC_HIGH == PORTBbits.RB7) && (0 == RB7_flag))
  2295   001214  A6F2               	btfss	242,3,c	;volatile
  2296   001216  EF0F  F009         	goto	i2u190_41
  2297   00121A  EF11  F009         	goto	i2u190_40
  2298   00121E                     i2u190_41:
  2299   00121E  EF2C  F009         	goto	i2l692
  2300   001222                     i2u190_40:
  2301   001222  A0F2               	btfss	242,0,c	;volatile
  2302   001224  EF16  F009         	goto	i2u191_41
  2303   001228  EF18  F009         	goto	i2u191_40
  2304   00122C                     i2u191_41:
  2305   00122C  EF2C  F009         	goto	i2l692
  2306   001230                     i2u191_40:
  2307   001230  AE81               	btfss	129,7,c	;volatile
  2308   001232  EF1D  F009         	goto	i2u192_41
  2309   001236  EF1F  F009         	goto	i2u192_40
  2310   00123A                     i2u192_41:
  2311   00123A  EF2C  F009         	goto	i2l692
  2312   00123E                     i2u192_40:
  2313   00123E  5033               	movf	_RB7_flag^0,w,c	;volatile
  2314   001240  A4D8               	btfss	status,2,c
  2315   001242  EF25  F009         	goto	i2u193_41
  2316   001246  EF27  F009         	goto	i2u193_40
  2317   00124A                     i2u193_41:
  2318   00124A  EF2C  F009         	goto	i2l692
  2319   00124E                     i2u193_40:
  2320   00124E                     
  2321                           ;MCAL_Layer/Interrupt/mcal_interrupt_manager.c: 85:     {;MCAL_Layer/Interrupt/mcal_inte
      +                          rrupt_manager.c: 86:         RB7_flag = 1;
  2322   00124E  0E01               	movlw	1
  2323   001250  6E33               	movwf	_RB7_flag^0,c	;volatile
  2324   001252                     
  2325                           ;MCAL_Layer/Interrupt/mcal_interrupt_manager.c: 87:         RB7_ISR(1);
  2326   001252  0E01               	movlw	1
  2327   001254  EC4C  F00C         	call	_RB7_ISR
  2328   001258                     i2l692:
  2329                           
  2330                           ;MCAL_Layer/Interrupt/mcal_interrupt_manager.c: 94:     if((1 == PIE1bits.ADIE) && (1 ==
      +                           PIR1bits.ADIF))
  2331   001258  AC9D               	btfss	157,6,c	;volatile
  2332   00125A  EF31  F009         	goto	i2u194_41
  2333   00125E  EF33  F009         	goto	i2u194_40
  2334   001262                     i2u194_41:
  2335   001262  EF3C  F009         	goto	i2l694
  2336   001266                     i2u194_40:
  2337   001266  AC9E               	btfss	158,6,c	;volatile
  2338   001268  EF38  F009         	goto	i2u195_41
  2339   00126C  EF3A  F009         	goto	i2u195_40
  2340   001270                     i2u195_41:
  2341   001270  EF3C  F009         	goto	i2l694
  2342   001274                     i2u195_40:
  2343   001274                     
  2344                           ;MCAL_Layer/Interrupt/mcal_interrupt_manager.c: 95:     {;MCAL_Layer/Interrupt/mcal_inte
      +                          rrupt_manager.c: 96:         ADC_ISR();
  2345   001274  ECB4  F00C         	call	_ADC_ISR	;wreg free
  2346   001278                     i2l694:
  2347                           
  2348                           ;MCAL_Layer/Interrupt/mcal_interrupt_manager.c: 103:     if((1 == INTCONbits.TMR0IE) && 
      +                          (1 == INTCONbits.TMR0IF))
  2349   001278  AAF2               	btfss	242,5,c	;volatile
  2350   00127A  EF41  F009         	goto	i2u196_41
  2351   00127E  EF43  F009         	goto	i2u196_40
  2352   001282                     i2u196_41:
  2353   001282  EF4C  F009         	goto	i2l696
  2354   001286                     i2u196_40:
  2355   001286  A4F2               	btfss	242,2,c	;volatile
  2356   001288  EF48  F009         	goto	i2u197_41
  2357   00128C  EF4A  F009         	goto	i2u197_40
  2358   001290                     i2u197_41:
  2359   001290  EF4C  F009         	goto	i2l696
  2360   001294                     i2u197_40:
  2361   001294                     
  2362                           ;MCAL_Layer/Interrupt/mcal_interrupt_manager.c: 104:     {;MCAL_Layer/Interrupt/mcal_int
      +                          errupt_manager.c: 105:         TIMER0_ISR();
  2363   001294  ECA0  F00C         	call	_TIMER0_ISR	;wreg free
  2364   001298                     i2l696:
  2365                           
  2366                           ;MCAL_Layer/Interrupt/mcal_interrupt_manager.c: 112:     if((1 == PIE1bits.TMR1IE) && (1
      +                           == PIR1bits.TMR1IF))
  2367   001298  A09D               	btfss	157,0,c	;volatile
  2368   00129A  EF51  F009         	goto	i2u198_41
  2369   00129E  EF53  F009         	goto	i2u198_40
  2370   0012A2                     i2u198_41:
  2371   0012A2  EF5C  F009         	goto	i2l698
  2372   0012A6                     i2u198_40:
  2373   0012A6  A09E               	btfss	158,0,c	;volatile
  2374   0012A8  EF58  F009         	goto	i2u199_41
  2375   0012AC  EF5A  F009         	goto	i2u199_40
  2376   0012B0                     i2u199_41:
  2377   0012B0  EF5C  F009         	goto	i2l698
  2378   0012B4                     i2u199_40:
  2379   0012B4                     
  2380                           ;MCAL_Layer/Interrupt/mcal_interrupt_manager.c: 113:     {;MCAL_Layer/Interrupt/mcal_int
      +                          errupt_manager.c: 114:         TIMER1_ISR();
  2381   0012B4  EC9A  F00C         	call	_TIMER1_ISR	;wreg free
  2382   0012B8                     i2l698:
  2383                           
  2384                           ;MCAL_Layer/Interrupt/mcal_interrupt_manager.c: 121:     if((1 == PIE1bits.TMR2IE) && (1
      +                           == PIR1bits.TMR2IF))
  2385   0012B8  A29D               	btfss	157,1,c	;volatile
  2386   0012BA  EF61  F009         	goto	i2u200_41
  2387   0012BE  EF63  F009         	goto	i2u200_40
  2388   0012C2                     i2u200_41:
  2389   0012C2  EF6C  F009         	goto	i2l700
  2390   0012C6                     i2u200_40:
  2391   0012C6  A29E               	btfss	158,1,c	;volatile
  2392   0012C8  EF68  F009         	goto	i2u201_41
  2393   0012CC  EF6A  F009         	goto	i2u201_40
  2394   0012D0                     i2u201_41:
  2395   0012D0  EF6C  F009         	goto	i2l700
  2396   0012D4                     i2u201_40:
  2397   0012D4                     
  2398                           ;MCAL_Layer/Interrupt/mcal_interrupt_manager.c: 122:     {;MCAL_Layer/Interrupt/mcal_int
      +                          errupt_manager.c: 123:         TIMER2_ISR();
  2399   0012D4  ECAA  F00C         	call	_TIMER2_ISR	;wreg free
  2400   0012D8                     i2l700:
  2401                           
  2402                           ;MCAL_Layer/Interrupt/mcal_interrupt_manager.c: 130:     if((1 == PIE2bits.TMR3IE) && (1
      +                           == PIR2bits.TMR3IF))
  2403   0012D8  A2A0               	btfss	160,1,c	;volatile
  2404   0012DA  EF71  F009         	goto	i2u202_41
  2405   0012DE  EF73  F009         	goto	i2u202_40
  2406   0012E2                     i2u202_41:
  2407   0012E2  EF7C  F009         	goto	i2l703
  2408   0012E6                     i2u202_40:
  2409   0012E6  A2A1               	btfss	161,1,c	;volatile
  2410   0012E8  EF78  F009         	goto	i2u203_41
  2411   0012EC  EF7A  F009         	goto	i2u203_40
  2412   0012F0                     i2u203_41:
  2413   0012F0  EF7C  F009         	goto	i2l703
  2414   0012F4                     i2u203_40:
  2415   0012F4                     
  2416                           ;MCAL_Layer/Interrupt/mcal_interrupt_manager.c: 131:     {;MCAL_Layer/Interrupt/mcal_int
      +                          errupt_manager.c: 132:         TIMER3_ISR();
  2417   0012F4  EC94  F00C         	call	_TIMER3_ISR	;wreg free
  2418   0012F8                     i2l703:
  2419   0012F8  927D               	bcf	int$flags,1,c	;clear compiler interrupt flag (level 2)
  2420   0012FA  0011               	retfie		f
  2421   0012FC                     __end_of_InterruptManagerHigh:
  2422                           	callstack 0
  2423                           
  2424 ;; *************** function _TIMER3_ISR *****************
  2425 ;; Defined at:
  2426 ;;		line 166 in file "MCAL_Layer/Timer3/mcal_timer3.c"
  2427 ;; Parameters:    Size  Location     Type
  2428 ;;		None
  2429 ;; Auto vars:     Size  Location     Type
  2430 ;;		None
  2431 ;; Return value:  Size  Location     Type
  2432 ;;                  1    wreg      void 
  2433 ;; Registers used:
  2434 ;;		wreg, status,2
  2435 ;; Tracked objects:
  2436 ;;		On entry : 0/0
  2437 ;;		On exit  : 0/0
  2438 ;;		Unchanged: 0/0
  2439 ;; Data sizes:     COMRAM   BANK0   BANK1   BANK2   BANK3   BANK4   BANK5   BANK6   BANK7   BANK8   BANK9  BANK10  BANK1
      +1  BANK12  BANK13  BANK14  BANK15
  2440 ;;      Params:         0       0       0       0       0       0       0       0       0       0       0       0       
      +0       0       0       0       0
  2441 ;;      Locals:         0       0       0       0       0       0       0       0       0       0       0       0       
      +0       0       0       0       0
  2442 ;;      Temps:          0       0       0       0       0       0       0       0       0       0       0       0       
      +0       0       0       0       0
  2443 ;;      Totals:         0       0       0       0       0       0       0       0       0       0       0       0       
      +0       0       0       0       0
  2444 ;;Total ram usage:        0 bytes
  2445 ;; Hardware stack levels used: 1
  2446 ;; This function calls:
  2447 ;;		Nothing
  2448 ;; This function is called by:
  2449 ;;		_InterruptManagerHigh
  2450 ;; This function uses a non-reentrant model
  2451 ;;
  2452                           
  2453                           	psect	text15
  2454   001928                     __ptext15:
  2455                           	callstack 0
  2456   001928                     _TIMER3_ISR:
  2457                           	callstack 22
  2458   001928                     
  2459                           ;MCAL_Layer/Timer3/mcal_timer3.c: 169:     (PIR2bits.TMR3IF = 0);
  2460   001928  92A1               	bcf	161,1,c	;volatile
  2461   00192A                     
  2462                           ;MCAL_Layer/Timer3/mcal_timer3.c: 171:     TMR3H = (timer3_preload) >> 8;
  2463   00192A  500C               	movf	(_timer3_preload+1)^0,w,c
  2464   00192C  6EB3               	movwf	179,c	;volatile
  2465   00192E                     
  2466                           ;MCAL_Layer/Timer3/mcal_timer3.c: 172:     TMR3L = (uint8)(timer3_preload);
  2467   00192E  C00B  FFB2         	movff	_timer3_preload,4018	;volatile
  2468   001932  0012               	return		;funcret
  2469   001934                     __end_of_TIMER3_ISR:
  2470                           	callstack 0
  2471                           
  2472 ;; *************** function _TIMER2_ISR *****************
  2473 ;; Defined at:
  2474 ;;		line 119 in file "MCAL_Layer/Timer2/mcal_timer2.c"
  2475 ;; Parameters:    Size  Location     Type
  2476 ;;		None
  2477 ;; Auto vars:     Size  Location     Type
  2478 ;;		None
  2479 ;; Return value:  Size  Location     Type
  2480 ;;                  1    wreg      void 
  2481 ;; Registers used:
  2482 ;;		None
  2483 ;; Tracked objects:
  2484 ;;		On entry : 0/0
  2485 ;;		On exit  : 0/0
  2486 ;;		Unchanged: 0/0
  2487 ;; Data sizes:     COMRAM   BANK0   BANK1   BANK2   BANK3   BANK4   BANK5   BANK6   BANK7   BANK8   BANK9  BANK10  BANK1
      +1  BANK12  BANK13  BANK14  BANK15
  2488 ;;      Params:         0       0       0       0       0       0       0       0       0       0       0       0       
      +0       0       0       0       0
  2489 ;;      Locals:         0       0       0       0       0       0       0       0       0       0       0       0       
      +0       0       0       0       0
  2490 ;;      Temps:          0       0       0       0       0       0       0       0       0       0       0       0       
      +0       0       0       0       0
  2491 ;;      Totals:         0       0       0       0       0       0       0       0       0       0       0       0       
      +0       0       0       0       0
  2492 ;;Total ram usage:        0 bytes
  2493 ;; Hardware stack levels used: 1
  2494 ;; This function calls:
  2495 ;;		Nothing
  2496 ;; This function is called by:
  2497 ;;		_InterruptManagerHigh
  2498 ;; This function uses a non-reentrant model
  2499 ;;
  2500                           
  2501                           	psect	text16
  2502   001954                     __ptext16:
  2503                           	callstack 0
  2504   001954                     _TIMER2_ISR:
  2505                           	callstack 22
  2506   001954                     
  2507                           ;MCAL_Layer/Timer2/mcal_timer2.c: 122:     (PIR1bits.TMR2IF = 0);
  2508   001954  929E               	bcf	158,1,c	;volatile
  2509                           
  2510                           ;MCAL_Layer/Timer2/mcal_timer2.c: 124:     TMR2 = timer2_preload;
  2511   001956  C031  FFCC         	movff	_timer2_preload,4044	;volatile
  2512   00195A  0012               	return		;funcret
  2513   00195C                     __end_of_TIMER2_ISR:
  2514                           	callstack 0
  2515                           
  2516 ;; *************** function _TIMER1_ISR *****************
  2517 ;; Defined at:
  2518 ;;		line 180 in file "MCAL_Layer/Timer1/mcal_timer1.c"
  2519 ;; Parameters:    Size  Location     Type
  2520 ;;		None
  2521 ;; Auto vars:     Size  Location     Type
  2522 ;;		None
  2523 ;; Return value:  Size  Location     Type
  2524 ;;                  1    wreg      void 
  2525 ;; Registers used:
  2526 ;;		wreg, status,2
  2527 ;; Tracked objects:
  2528 ;;		On entry : 0/0
  2529 ;;		On exit  : 0/0
  2530 ;;		Unchanged: 0/0
  2531 ;; Data sizes:     COMRAM   BANK0   BANK1   BANK2   BANK3   BANK4   BANK5   BANK6   BANK7   BANK8   BANK9  BANK10  BANK1
      +1  BANK12  BANK13  BANK14  BANK15
  2532 ;;      Params:         0       0       0       0       0       0       0       0       0       0       0       0       
      +0       0       0       0       0
  2533 ;;      Locals:         0       0       0       0       0       0       0       0       0       0       0       0       
      +0       0       0       0       0
  2534 ;;      Temps:          0       0       0       0       0       0       0       0       0       0       0       0       
      +0       0       0       0       0
  2535 ;;      Totals:         0       0       0       0       0       0       0       0       0       0       0       0       
      +0       0       0       0       0
  2536 ;;Total ram usage:        0 bytes
  2537 ;; Hardware stack levels used: 1
  2538 ;; This function calls:
  2539 ;;		Nothing
  2540 ;; This function is called by:
  2541 ;;		_InterruptManagerHigh
  2542 ;; This function uses a non-reentrant model
  2543 ;;
  2544                           
  2545                           	psect	text17
  2546   001934                     __ptext17:
  2547                           	callstack 0
  2548   001934                     _TIMER1_ISR:
  2549                           	callstack 22
  2550   001934                     
  2551                           ;MCAL_Layer/Timer1/mcal_timer1.c: 183:     (PIR1bits.TMR1IF = 0);
  2552   001934  909E               	bcf	158,0,c	;volatile
  2553   001936                     
  2554                           ;MCAL_Layer/Timer1/mcal_timer1.c: 185:     TMR1H = (timer1_preload) >> 8;
  2555   001936  5012               	movf	(_timer1_preload+1)^0,w,c
  2556   001938  6ECF               	movwf	207,c	;volatile
  2557   00193A                     
  2558                           ;MCAL_Layer/Timer1/mcal_timer1.c: 186:     TMR1L = (uint8)(timer1_preload);
  2559   00193A  C011  FFCE         	movff	_timer1_preload,4046	;volatile
  2560   00193E  0012               	return		;funcret
  2561   001940                     __end_of_TIMER1_ISR:
  2562                           	callstack 0
  2563                           
  2564 ;; *************** function _TIMER0_ISR *****************
  2565 ;; Defined at:
  2566 ;;		line 180 in file "MCAL_Layer/Timer0/mcal_timer0.c"
  2567 ;; Parameters:    Size  Location     Type
  2568 ;;		None
  2569 ;; Auto vars:     Size  Location     Type
  2570 ;;		None
  2571 ;; Return value:  Size  Location     Type
  2572 ;;                  1    wreg      void 
  2573 ;; Registers used:
  2574 ;;		wreg, status,2
  2575 ;; Tracked objects:
  2576 ;;		On entry : 0/0
  2577 ;;		On exit  : 0/0
  2578 ;;		Unchanged: 0/0
  2579 ;; Data sizes:     COMRAM   BANK0   BANK1   BANK2   BANK3   BANK4   BANK5   BANK6   BANK7   BANK8   BANK9  BANK10  BANK1
      +1  BANK12  BANK13  BANK14  BANK15
  2580 ;;      Params:         0       0       0       0       0       0       0       0       0       0       0       0       
      +0       0       0       0       0
  2581 ;;      Locals:         0       0       0       0       0       0       0       0       0       0       0       0       
      +0       0       0       0       0
  2582 ;;      Temps:          0       0       0       0       0       0       0       0       0       0       0       0       
      +0       0       0       0       0
  2583 ;;      Totals:         0       0       0       0       0       0       0       0       0       0       0       0       
      +0       0       0       0       0
  2584 ;;Total ram usage:        0 bytes
  2585 ;; Hardware stack levels used: 1
  2586 ;; This function calls:
  2587 ;;		Nothing
  2588 ;; This function is called by:
  2589 ;;		_InterruptManagerHigh
  2590 ;; This function uses a non-reentrant model
  2591 ;;
  2592                           
  2593                           	psect	text18
  2594   001940                     __ptext18:
  2595                           	callstack 0
  2596   001940                     _TIMER0_ISR:
  2597                           	callstack 22
  2598   001940                     
  2599                           ;MCAL_Layer/Timer0/mcal_timer0.c: 183:     (INTCONbits.TMR0IF = 0);
  2600   001940  94F2               	bcf	242,2,c	;volatile
  2601   001942                     
  2602                           ;MCAL_Layer/Timer0/mcal_timer0.c: 185:     TMR0H = (timer0_preload) >> 8;
  2603   001942  5016               	movf	(_timer0_preload+1)^0,w,c
  2604   001944  6ED7               	movwf	215,c	;volatile
  2605   001946                     
  2606                           ;MCAL_Layer/Timer0/mcal_timer0.c: 186:     TMR0L = (uint8) (timer0_preload);
  2607   001946  C015  FFD6         	movff	_timer0_preload,4054	;volatile
  2608   00194A  0012               	return		;funcret
  2609   00194C                     __end_of_TIMER0_ISR:
  2610                           	callstack 0
  2611                           
  2612 ;; *************** function _RB7_ISR *****************
  2613 ;; Defined at:
  2614 ;;		line 306 in file "MCAL_Layer/Interrupt/mcal_external_interrupt.c"
  2615 ;; Parameters:    Size  Location     Type
  2616 ;;  source          1    wreg     unsigned char 
  2617 ;; Auto vars:     Size  Location     Type
  2618 ;;  source          1    0[COMRAM] unsigned char 
  2619 ;; Return value:  Size  Location     Type
  2620 ;;                  1    wreg      void 
  2621 ;; Registers used:
  2622 ;;		wreg, status,2, status,0
  2623 ;; Tracked objects:
  2624 ;;		On entry : 0/0
  2625 ;;		On exit  : 0/0
  2626 ;;		Unchanged: 0/0
  2627 ;; Data sizes:     COMRAM   BANK0   BANK1   BANK2   BANK3   BANK4   BANK5   BANK6   BANK7   BANK8   BANK9  BANK10  BANK1
      +1  BANK12  BANK13  BANK14  BANK15
  2628 ;;      Params:         0       0       0       0       0       0       0       0       0       0       0       0       
      +0       0       0       0       0
  2629 ;;      Locals:         1       0       0       0       0       0       0       0       0       0       0       0       
      +0       0       0       0       0
  2630 ;;      Temps:          0       0       0       0       0       0       0       0       0       0       0       0       
      +0       0       0       0       0
  2631 ;;      Totals:         1       0       0       0       0       0       0       0       0       0       0       0       
      +0       0       0       0       0
  2632 ;;Total ram usage:        1 bytes
  2633 ;; Hardware stack levels used: 1
  2634 ;; This function calls:
  2635 ;;		Nothing
  2636 ;; This function is called by:
  2637 ;;		_InterruptManagerHigh
  2638 ;; This function uses a non-reentrant model
  2639 ;;
  2640                           
  2641                           	psect	text19
  2642   001898                     __ptext19:
  2643                           	callstack 0
  2644   001898                     _RB7_ISR:
  2645                           	callstack 22
  2646                           
  2647                           ;incstack = 0
  2648                           ;RB7_ISR@source stored from wreg
  2649   001898  6E6B               	movwf	RB7_ISR@source^0,c
  2650   00189A                     
  2651                           ;MCAL_Layer/Interrupt/mcal_external_interrupt.c: 306: void RB7_ISR(uint8 source);MCAL_La
      +                          yer/Interrupt/mcal_external_interrupt.c: 307: {;MCAL_Layer/Interrupt/mcal_external_inter
      +                          rupt.c: 309:     (INTCONbits.RBIF = 0);
  2652   00189A  90F2               	bcf	242,0,c	;volatile
  2653   00189C                     
  2654                           ;MCAL_Layer/Interrupt/mcal_external_interrupt.c: 313:     if(0 == source)
  2655   00189C  506B               	movf	RB7_ISR@source^0,w,c
  2656   00189E  A4D8               	btfss	status,2,c
  2657   0018A0  EF54  F00C         	goto	i2u58_41
  2658   0018A4  EF56  F00C         	goto	i2u58_40
  2659   0018A8                     i2u58_41:
  2660   0018A8  EF58  F00C         	goto	i2l2367
  2661   0018AC                     i2u58_40:
  2662   0018AC  EF58  F00C         	goto	i2l839
  2663   0018B0                     i2l2367:
  2664   0018B0                     i2l839:
  2665   0018B0  0012               	return		;funcret
  2666   0018B2                     __end_of_RB7_ISR:
  2667                           	callstack 0
  2668                           
  2669 ;; *************** function _RB6_ISR *****************
  2670 ;; Defined at:
  2671 ;;		line 283 in file "MCAL_Layer/Interrupt/mcal_external_interrupt.c"
  2672 ;; Parameters:    Size  Location     Type
  2673 ;;  source          1    wreg     unsigned char 
  2674 ;; Auto vars:     Size  Location     Type
  2675 ;;  source          1    0[COMRAM] unsigned char 
  2676 ;; Return value:  Size  Location     Type
  2677 ;;                  1    wreg      void 
  2678 ;; Registers used:
  2679 ;;		wreg, status,2, status,0
  2680 ;; Tracked objects:
  2681 ;;		On entry : 0/0
  2682 ;;		On exit  : 0/0
  2683 ;;		Unchanged: 0/0
  2684 ;; Data sizes:     COMRAM   BANK0   BANK1   BANK2   BANK3   BANK4   BANK5   BANK6   BANK7   BANK8   BANK9  BANK10  BANK1
      +1  BANK12  BANK13  BANK14  BANK15
  2685 ;;      Params:         0       0       0       0       0       0       0       0       0       0       0       0       
      +0       0       0       0       0
  2686 ;;      Locals:         1       0       0       0       0       0       0       0       0       0       0       0       
      +0       0       0       0       0
  2687 ;;      Temps:          0       0       0       0       0       0       0       0       0       0       0       0       
      +0       0       0       0       0
  2688 ;;      Totals:         1       0       0       0       0       0       0       0       0       0       0       0       
      +0       0       0       0       0
  2689 ;;Total ram usage:        1 bytes
  2690 ;; Hardware stack levels used: 1
  2691 ;; This function calls:
  2692 ;;		Nothing
  2693 ;; This function is called by:
  2694 ;;		_InterruptManagerHigh
  2695 ;; This function uses a non-reentrant model
  2696 ;;
  2697                           
  2698                           	psect	text20
  2699   0018B2                     __ptext20:
  2700                           	callstack 0
  2701   0018B2                     _RB6_ISR:
  2702                           	callstack 22
  2703                           
  2704                           ;incstack = 0
  2705                           ;RB6_ISR@source stored from wreg
  2706   0018B2  6E6B               	movwf	RB6_ISR@source^0,c
  2707   0018B4                     
  2708                           ;MCAL_Layer/Interrupt/mcal_external_interrupt.c: 283: void RB6_ISR(uint8 source);MCAL_La
      +                          yer/Interrupt/mcal_external_interrupt.c: 284: {;MCAL_Layer/Interrupt/mcal_external_inter
      +                          rupt.c: 286:     (INTCONbits.RBIF = 0);
  2709   0018B4  90F2               	bcf	242,0,c	;volatile
  2710   0018B6                     
  2711                           ;MCAL_Layer/Interrupt/mcal_external_interrupt.c: 290:     if(0 == source)
  2712   0018B6  506B               	movf	RB6_ISR@source^0,w,c
  2713   0018B8  A4D8               	btfss	status,2,c
  2714   0018BA  EF61  F00C         	goto	i2u57_41
  2715   0018BE  EF63  F00C         	goto	i2u57_40
  2716   0018C2                     i2u57_41:
  2717   0018C2  EF65  F00C         	goto	i2l2353
  2718   0018C6                     i2u57_40:
  2719   0018C6  EF65  F00C         	goto	i2l828
  2720   0018CA                     i2l2353:
  2721   0018CA                     i2l828:
  2722   0018CA  0012               	return		;funcret
  2723   0018CC                     __end_of_RB6_ISR:
  2724                           	callstack 0
  2725                           
  2726 ;; *************** function _RB5_ISR *****************
  2727 ;; Defined at:
  2728 ;;		line 260 in file "MCAL_Layer/Interrupt/mcal_external_interrupt.c"
  2729 ;; Parameters:    Size  Location     Type
  2730 ;;  source          1    wreg     unsigned char 
  2731 ;; Auto vars:     Size  Location     Type
  2732 ;;  source          1    0[COMRAM] unsigned char 
  2733 ;; Return value:  Size  Location     Type
  2734 ;;                  1    wreg      void 
  2735 ;; Registers used:
  2736 ;;		wreg, status,2, status,0
  2737 ;; Tracked objects:
  2738 ;;		On entry : 0/0
  2739 ;;		On exit  : 0/0
  2740 ;;		Unchanged: 0/0
  2741 ;; Data sizes:     COMRAM   BANK0   BANK1   BANK2   BANK3   BANK4   BANK5   BANK6   BANK7   BANK8   BANK9  BANK10  BANK1
      +1  BANK12  BANK13  BANK14  BANK15
  2742 ;;      Params:         0       0       0       0       0       0       0       0       0       0       0       0       
      +0       0       0       0       0
  2743 ;;      Locals:         1       0       0       0       0       0       0       0       0       0       0       0       
      +0       0       0       0       0
  2744 ;;      Temps:          0       0       0       0       0       0       0       0       0       0       0       0       
      +0       0       0       0       0
  2745 ;;      Totals:         1       0       0       0       0       0       0       0       0       0       0       0       
      +0       0       0       0       0
  2746 ;;Total ram usage:        1 bytes
  2747 ;; Hardware stack levels used: 1
  2748 ;; This function calls:
  2749 ;;		Nothing
  2750 ;; This function is called by:
  2751 ;;		_InterruptManagerHigh
  2752 ;; This function uses a non-reentrant model
  2753 ;;
  2754                           
  2755                           	psect	text21
  2756   0018CC                     __ptext21:
  2757                           	callstack 0
  2758   0018CC                     _RB5_ISR:
  2759                           	callstack 22
  2760                           
  2761                           ;incstack = 0
  2762                           ;RB5_ISR@source stored from wreg
  2763   0018CC  6E6B               	movwf	RB5_ISR@source^0,c
  2764   0018CE                     
  2765                           ;MCAL_Layer/Interrupt/mcal_external_interrupt.c: 260: void RB5_ISR(uint8 source);MCAL_La
      +                          yer/Interrupt/mcal_external_interrupt.c: 261: {;MCAL_Layer/Interrupt/mcal_external_inter
      +                          rupt.c: 263:     (INTCONbits.RBIF = 0);
  2766   0018CE  90F2               	bcf	242,0,c	;volatile
  2767   0018D0                     
  2768                           ;MCAL_Layer/Interrupt/mcal_external_interrupt.c: 267:     if(0 == source)
  2769   0018D0  506B               	movf	RB5_ISR@source^0,w,c
  2770   0018D2  A4D8               	btfss	status,2,c
  2771   0018D4  EF6E  F00C         	goto	i2u56_41
  2772   0018D8  EF70  F00C         	goto	i2u56_40
  2773   0018DC                     i2u56_41:
  2774   0018DC  EF72  F00C         	goto	i2l2339
  2775   0018E0                     i2u56_40:
  2776   0018E0  EF72  F00C         	goto	i2l817
  2777   0018E4                     i2l2339:
  2778   0018E4                     i2l817:
  2779   0018E4  0012               	return		;funcret
  2780   0018E6                     __end_of_RB5_ISR:
  2781                           	callstack 0
  2782                           
  2783 ;; *************** function _RB4_ISR *****************
  2784 ;; Defined at:
  2785 ;;		line 237 in file "MCAL_Layer/Interrupt/mcal_external_interrupt.c"
  2786 ;; Parameters:    Size  Location     Type
  2787 ;;  source          1    wreg     unsigned char 
  2788 ;; Auto vars:     Size  Location     Type
  2789 ;;  source          1    0[COMRAM] unsigned char 
  2790 ;; Return value:  Size  Location     Type
  2791 ;;                  1    wreg      void 
  2792 ;; Registers used:
  2793 ;;		wreg, status,2, status,0
  2794 ;; Tracked objects:
  2795 ;;		On entry : 0/0
  2796 ;;		On exit  : 0/0
  2797 ;;		Unchanged: 0/0
  2798 ;; Data sizes:     COMRAM   BANK0   BANK1   BANK2   BANK3   BANK4   BANK5   BANK6   BANK7   BANK8   BANK9  BANK10  BANK1
      +1  BANK12  BANK13  BANK14  BANK15
  2799 ;;      Params:         0       0       0       0       0       0       0       0       0       0       0       0       
      +0       0       0       0       0
  2800 ;;      Locals:         1       0       0       0       0       0       0       0       0       0       0       0       
      +0       0       0       0       0
  2801 ;;      Temps:          0       0       0       0       0       0       0       0       0       0       0       0       
      +0       0       0       0       0
  2802 ;;      Totals:         1       0       0       0       0       0       0       0       0       0       0       0       
      +0       0       0       0       0
  2803 ;;Total ram usage:        1 bytes
  2804 ;; Hardware stack levels used: 1
  2805 ;; This function calls:
  2806 ;;		Nothing
  2807 ;; This function is called by:
  2808 ;;		_InterruptManagerHigh
  2809 ;; This function uses a non-reentrant model
  2810 ;;
  2811                           
  2812                           	psect	text22
  2813   0018E6                     __ptext22:
  2814                           	callstack 0
  2815   0018E6                     _RB4_ISR:
  2816                           	callstack 22
  2817                           
  2818                           ;incstack = 0
  2819                           ;RB4_ISR@source stored from wreg
  2820   0018E6  6E6B               	movwf	RB4_ISR@source^0,c
  2821   0018E8                     
  2822                           ;MCAL_Layer/Interrupt/mcal_external_interrupt.c: 237: void RB4_ISR(uint8 source);MCAL_La
      +                          yer/Interrupt/mcal_external_interrupt.c: 238: {;MCAL_Layer/Interrupt/mcal_external_inter
      +                          rupt.c: 240:     (INTCONbits.RBIF = 0);
  2823   0018E8  90F2               	bcf	242,0,c	;volatile
  2824   0018EA                     
  2825                           ;MCAL_Layer/Interrupt/mcal_external_interrupt.c: 244:     if(0 == source)
  2826   0018EA  506B               	movf	RB4_ISR@source^0,w,c
  2827   0018EC  A4D8               	btfss	status,2,c
  2828   0018EE  EF7B  F00C         	goto	i2u55_41
  2829   0018F2  EF7D  F00C         	goto	i2u55_40
  2830   0018F6                     i2u55_41:
  2831   0018F6  EF7F  F00C         	goto	i2l2325
  2832   0018FA                     i2u55_40:
  2833   0018FA  EF7F  F00C         	goto	i2l806
  2834   0018FE                     i2l2325:
  2835   0018FE                     i2l806:
  2836   0018FE  0012               	return		;funcret
  2837   001900                     __end_of_RB4_ISR:
  2838                           	callstack 0
  2839                           
  2840 ;; *************** function _INT0_ISR *****************
  2841 ;; Defined at:
  2842 ;;		line 190 in file "MCAL_Layer/Interrupt/mcal_external_interrupt.c"
  2843 ;; Parameters:    Size  Location     Type
  2844 ;;		None
  2845 ;; Auto vars:     Size  Location     Type
  2846 ;;		None
  2847 ;; Return value:  Size  Location     Type
  2848 ;;                  1    wreg      void 
  2849 ;; Registers used:
  2850 ;;		None
  2851 ;; Tracked objects:
  2852 ;;		On entry : 0/0
  2853 ;;		On exit  : 0/0
  2854 ;;		Unchanged: 0/0
  2855 ;; Data sizes:     COMRAM   BANK0   BANK1   BANK2   BANK3   BANK4   BANK5   BANK6   BANK7   BANK8   BANK9  BANK10  BANK1
      +1  BANK12  BANK13  BANK14  BANK15
  2856 ;;      Params:         0       0       0       0       0       0       0       0       0       0       0       0       
      +0       0       0       0       0
  2857 ;;      Locals:         0       0       0       0       0       0       0       0       0       0       0       0       
      +0       0       0       0       0
  2858 ;;      Temps:          0       0       0       0       0       0       0       0       0       0       0       0       
      +0       0       0       0       0
  2859 ;;      Totals:         0       0       0       0       0       0       0       0       0       0       0       0       
      +0       0       0       0       0
  2860 ;;Total ram usage:        0 bytes
  2861 ;; Hardware stack levels used: 1
  2862 ;; This function calls:
  2863 ;;		Nothing
  2864 ;; This function is called by:
  2865 ;;		_InterruptManagerHigh
  2866 ;; This function uses a non-reentrant model
  2867 ;;
  2868                           
  2869                           	psect	text23
  2870   001964                     __ptext23:
  2871                           	callstack 0
  2872   001964                     _INT0_ISR:
  2873                           	callstack 22
  2874   001964                     
  2875                           ;MCAL_Layer/Interrupt/mcal_external_interrupt.c: 193:     (INTCONbits.INT0IF = 0);
  2876   001964  92F2               	bcf	242,1,c	;volatile
  2877   001966  0012               	return		;funcret
  2878   001968                     __end_of_INT0_ISR:
  2879                           	callstack 0
  2880                           
  2881 ;; *************** function _ADC_ISR *****************
  2882 ;; Defined at:
  2883 ;;		line 368 in file "MCAL_Layer/ADC/mcal_adc.c"
  2884 ;; Parameters:    Size  Location     Type
  2885 ;;		None
  2886 ;; Auto vars:     Size  Location     Type
  2887 ;;		None
  2888 ;; Return value:  Size  Location     Type
  2889 ;;                  1    wreg      void 
  2890 ;; Registers used:
  2891 ;;		None
  2892 ;; Tracked objects:
  2893 ;;		On entry : 0/0
  2894 ;;		On exit  : 0/0
  2895 ;;		Unchanged: 0/0
  2896 ;; Data sizes:     COMRAM   BANK0   BANK1   BANK2   BANK3   BANK4   BANK5   BANK6   BANK7   BANK8   BANK9  BANK10  BANK1
      +1  BANK12  BANK13  BANK14  BANK15
  2897 ;;      Params:         0       0       0       0       0       0       0       0       0       0       0       0       
      +0       0       0       0       0
  2898 ;;      Locals:         0       0       0       0       0       0       0       0       0       0       0       0       
      +0       0       0       0       0
  2899 ;;      Temps:          0       0       0       0       0       0       0       0       0       0       0       0       
      +0       0       0       0       0
  2900 ;;      Totals:         0       0       0       0       0       0       0       0       0       0       0       0       
      +0       0       0       0       0
  2901 ;;Total ram usage:        0 bytes
  2902 ;; Hardware stack levels used: 1
  2903 ;; This function calls:
  2904 ;;		Nothing
  2905 ;; This function is called by:
  2906 ;;		_InterruptManagerHigh
  2907 ;; This function uses a non-reentrant model
  2908 ;;
  2909                           
  2910                           	psect	text24
  2911   001968                     __ptext24:
  2912                           	callstack 0
  2913   001968                     _ADC_ISR:
  2914                           	callstack 22
  2915   001968                     
  2916                           ;MCAL_Layer/ADC/mcal_adc.c: 371:     (PIR1bits.ADIF = 0);
  2917   001968  9C9E               	bcf	158,6,c	;volatile
  2918   00196A  0012               	return		;funcret
  2919   00196C                     __end_of_ADC_ISR:
  2920                           	callstack 0
  2921                           
  2922                           	psect	rparam
  2923   000000                     
  2924                           	psect	temp
  2925   00007D                     btemp:
  2926                           	callstack 0
  2927   00007D                     	ds	1
  2928   000000                     int$flags	set	btemp
  2929   000000                     wtemp8	set	btemp+1
  2930   000000                     ttemp5	set	btemp+1
  2931   000000                     ttemp6	set	btemp+4
  2932   000000                     ttemp7	set	btemp+8
  2933                           
  2934                           	psect	config
  2935                           
  2936                           ; Padding undefined space
  2937   300000                     	org	3145728
  2938   300000  FF                 	db	255
  2939                           
  2940                           ;Config register CONFIG1H @ 0x300001
  2941                           ;	Oscillator Selection bits
  2942                           ;	OSC = HS, HS oscillator
  2943                           ;	Fail-Safe Clock Monitor Enable bit
  2944                           ;	FCMEN = OFF, Fail-Safe Clock Monitor disabled
  2945                           ;	Internal/External Oscillator Switchover bit
  2946                           ;	IESO = OFF, Oscillator Switchover mode disabled
  2947   300001                     	org	3145729
  2948   300001  02                 	db	2
  2949                           
  2950                           ;Config register CONFIG2L @ 0x300002
  2951                           ;	Power-up Timer Enable bit
  2952                           ;	PWRT = OFF, PWRT disabled
  2953                           ;	Brown-out Reset Enable bits
  2954                           ;	BOREN = OFF, Brown-out Reset disabled in hardware and software
  2955                           ;	Brown Out Reset Voltage bits
  2956                           ;	BORV = 1, 
  2957   300002                     	org	3145730
  2958   300002  09                 	db	9
  2959                           
  2960                           ;Config register CONFIG2H @ 0x300003
  2961                           ;	Watchdog Timer Enable bit
  2962                           ;	WDT = OFF, WDT disabled (control is placed on the SWDTEN bit)
  2963                           ;	Watchdog Timer Postscale Select bits
  2964                           ;	WDTPS = 32768, 1:32768
  2965   300003                     	org	3145731
  2966   300003  1E                 	db	30
  2967                           
  2968                           ; Padding undefined space
  2969   300004                     	org	3145732
  2970   300004  FF                 	db	255
  2971                           
  2972                           ;Config register CONFIG3H @ 0x300005
  2973                           ;	CCP2 MUX bit
  2974                           ;	CCP2MX = PORTC, CCP2 input/output is multiplexed with RC1
  2975                           ;	PORTB A/D Enable bit
  2976                           ;	PBADEN = OFF, PORTB<4:0> pins are configured as digital I/O on Reset
  2977                           ;	Low-Power Timer1 Oscillator Enable bit
  2978                           ;	LPT1OSC = OFF, Timer1 configured for higher power operation
  2979                           ;	MCLR Pin Enable bit
  2980                           ;	MCLRE = ON, MCLR pin enabled; RE3 input pin disabled
  2981   300005                     	org	3145733
  2982   300005  81                 	db	129
  2983                           
  2984                           ;Config register CONFIG4L @ 0x300006
  2985                           ;	Stack Full/Underflow Reset Enable bit
  2986                           ;	STVREN = ON, Stack full/underflow will cause Reset
  2987                           ;	Single-Supply ICSP Enable bit
  2988                           ;	LVP = OFF, Single-Supply ICSP disabled
  2989                           ;	Extended Instruction Set Enable bit
  2990                           ;	XINST = OFF, Instruction set extension and Indexed Addressing mode disabled (Legacy mo
      +                          de)
  2991                           ;	Background Debugger Enable bit
  2992                           ;	DEBUG = 0x1, unprogrammed default
  2993   300006                     	org	3145734
  2994   300006  81                 	db	129
  2995                           
  2996                           ; Padding undefined space
  2997   300007                     	org	3145735
  2998   300007  FF                 	db	255
  2999                           
  3000                           ;Config register CONFIG5L @ 0x300008
  3001                           ;	Code Protection bit
  3002                           ;	CP0 = OFF, Block 0 (000800-003FFFh) not code-protected
  3003                           ;	Code Protection bit
  3004                           ;	CP1 = OFF, Block 1 (004000-007FFFh) not code-protected
  3005                           ;	Code Protection bit
  3006                           ;	CP2 = OFF, Block 2 (008000-00BFFFh) not code-protected
  3007                           ;	Code Protection bit
  3008                           ;	CP3 = OFF, Block 3 (00C000-00FFFFh) not code-protected
  3009   300008                     	org	3145736
  3010   300008  0F                 	db	15
  3011                           
  3012                           ;Config register CONFIG5H @ 0x300009
  3013                           ;	Boot Block Code Protection bit
  3014                           ;	CPB = OFF, Boot block (000000-0007FFh) not code-protected
  3015                           ;	Data EEPROM Code Protection bit
  3016                           ;	CPD = OFF, Data EEPROM not code-protected
  3017   300009                     	org	3145737
  3018   300009  C0                 	db	192
  3019                           
  3020                           ;Config register CONFIG6L @ 0x30000A
  3021                           ;	Write Protection bit
  3022                           ;	WRT0 = OFF, Block 0 (000800-003FFFh) not write-protected
  3023                           ;	Write Protection bit
  3024                           ;	WRT1 = OFF, Block 1 (004000-007FFFh) not write-protected
  3025                           ;	Write Protection bit
  3026                           ;	WRT2 = OFF, Block 2 (008000-00BFFFh) not write-protected
  3027                           ;	Write Protection bit
  3028                           ;	WRT3 = OFF, Block 3 (00C000-00FFFFh) not write-protected
  3029   30000A                     	org	3145738
  3030   30000A  0F                 	db	15
  3031                           
  3032                           ;Config register CONFIG6H @ 0x30000B
  3033                           ;	Configuration Register Write Protection bit
  3034                           ;	WRTC = OFF, Configuration registers (300000-3000FFh) not write-protected
  3035                           ;	Boot Block Write Protection bit
  3036                           ;	WRTB = OFF, Boot Block (000000-0007FFh) not write-protected
  3037                           ;	Data EEPROM Write Protection bit
  3038                           ;	WRTD = OFF, Data EEPROM not write-protected
  3039   30000B                     	org	3145739
  3040   30000B  E0                 	db	224
  3041                           
  3042                           ;Config register CONFIG7L @ 0x30000C
  3043                           ;	Table Read Protection bit
  3044                           ;	EBTR0 = OFF, Block 0 (000800-003FFFh) not protected from table reads executed in other
      +                           blocks
  3045                           ;	Table Read Protection bit
  3046                           ;	EBTR1 = OFF, Block 1 (004000-007FFFh) not protected from table reads executed in other
      +                           blocks
  3047                           ;	Table Read Protection bit
  3048                           ;	EBTR2 = OFF, Block 2 (008000-00BFFFh) not protected from table reads executed in other
      +                           blocks
  3049                           ;	Table Read Protection bit
  3050                           ;	EBTR3 = OFF, Block 3 (00C000-00FFFFh) not protected from table reads executed in other
      +                           blocks
  3051   30000C                     	org	3145740
  3052   30000C  0F                 	db	15
  3053                           
  3054                           ;Config register CONFIG7H @ 0x30000D
  3055                           ;	Boot Block Table Read Protection bit
  3056                           ;	EBTRB = OFF, Boot Block (000000-0007FFh) not protected from table reads executed in ot
      +                          her blocks
  3057   30000D                     	org	3145741
  3058   30000D  40                 	db	64
  3059                           tosu	equ	0xFFF
  3060                           tosh	equ	0xFFE
  3061                           tosl	equ	0xFFD
  3062                           stkptr	equ	0xFFC
  3063                           pclatu	equ	0xFFB
  3064                           pclath	equ	0xFFA
  3065                           pcl	equ	0xFF9
  3066                           tblptru	equ	0xFF8
  3067                           tblptrh	equ	0xFF7
  3068                           tblptrl	equ	0xFF6
  3069                           tablat	equ	0xFF5
  3070                           prodh	equ	0xFF4
  3071                           prodl	equ	0xFF3
  3072                           indf0	equ	0xFEF
  3073                           postinc0	equ	0xFEE
  3074                           postdec0	equ	0xFED
  3075                           preinc0	equ	0xFEC
  3076                           plusw0	equ	0xFEB
  3077                           fsr0h	equ	0xFEA
  3078                           fsr0l	equ	0xFE9
  3079                           wreg	equ	0xFE8
  3080                           indf1	equ	0xFE7
  3081                           postinc1	equ	0xFE6
  3082                           postdec1	equ	0xFE5
  3083                           preinc1	equ	0xFE4
  3084                           plusw1	equ	0xFE3
  3085                           fsr1h	equ	0xFE2
  3086                           fsr1l	equ	0xFE1
  3087                           bsr	equ	0xFE0
  3088                           indf2	equ	0xFDF
  3089                           postinc2	equ	0xFDE
  3090                           postdec2	equ	0xFDD
  3091                           preinc2	equ	0xFDC
  3092                           plusw2	equ	0xFDB
  3093                           fsr2h	equ	0xFDA
  3094                           fsr2l	equ	0xFD9
  3095                           status	equ	0xFD8

Data Sizes:
    Strings     3
    Constant    16
    Data        72
    BSS         73
    Persistent  0
    Stack       0

Auto Spaces:
    Space          Size  Autos    Used
    COMRAM          126     18     124
    BANK0           128      0      39
    BANK1           256      0       0
    BANK2           256      0       0
    BANK3           256      0       0
    BANK4           256      0       0
    BANK5           256      0       0
    BANK6           256      0       0
    BANK7           256      0       0
    BANK8           256      0       0
    BANK9           256      0       0
    BANK10          256      0       0
    BANK11          256      0       0
    BANK12          256      0       0
    BANK13          256      0       0
    BANK14          256      0       0
    BANK15          128      0       0

Pointer List with Targets:

    adc_GetConversionResult@_adc$ADC_InterruptHandler	PTR FTN()void  size(2) Largest target is 0

    adc_Init@_adc$ADC_InterruptHandler	PTR FTN()void  size(2) Largest target is 0

    ADC_InterruptHandler	PTR FTN()void  size(2) Largest target is 1
		 -> NULL(), 

    configure_voltage_reference@_adc$ADC_InterruptHandler	PTR FTN()void  size(2) Largest target is 0

    counter3$TIMER3_InterruptHandler	PTR FTN()void  size(2) Largest target is 1
		 -> NULL(), 

    ext_interrupt_INTx_Clear_Flag@int_obj$ext_interrupt_INTx_handler	PTR FTN()void  size(2) Largest target is 0

    ext_interrupt_INTx_Disable@int_obj$ext_interrupt_INTx_handler	PTR FTN()void  size(2) Largest target is 0

    ext_interrupt_INTx_Edge_Init@int_obj$ext_interrupt_INTx_handler	PTR FTN()void  size(2) Largest target is 0

    ext_interrupt_INTx_Enable@int_obj$ext_interrupt_INTx_handler	PTR FTN()void  size(2) Largest target is 0

    ext_interrupt_INTx_Init@int_obj$ext_interrupt_INTx_handler	PTR FTN()void  size(2) Largest target is 0

    ext_interrupt_INTx_Priority_Init@int_obj$ext_interrupt_INTx_handler	PTR FTN()void  size(2) Largest target is 0

    ext_interrupt_INTx_SetInterruptHandler@int_obj$ext_interrupt_INTx_handler	PTR FTN()void  size(2) Largest target is 0

    ext_interrupt_RBx_Init@int_obj$ext_interrupt_RBx_high_handler	PTR FTN()void  size(2) Largest target is 0

    ext_interrupt_RBx_Init@int_obj$ext_interrupt_RBx_low_handler	PTR FTN()void  size(2) Largest target is 0

    ext_interrupt_RBx_Priority_Init@int_obj$ext_interrupt_RBx_high_handler	PTR FTN()void  size(2) Largest target is 0

    ext_interrupt_RBx_Priority_Init@int_obj$ext_interrupt_RBx_low_handler	PTR FTN()void  size(2) Largest target is 0

    ext_interrupt_RBx_SetInterruptHandler@int_obj$ext_interrupt_RBx_high_handler	PTR FTN()void  size(2) Largest target is 0

    ext_interrupt_RBx_SetInterruptHandler@int_obj$ext_interrupt_RBx_low_handler	PTR FTN()void  size(2) Largest target is 0

    f$.$buffer	PTR unsigned char  size(2) Largest target is 0

    f$.$source	PTR const unsigned char  size(2) Largest target is 0

    gpio_pin_direction_initialize@_pin_config	PTR const struct . size(1) Largest target is 1
		 -> led_initialize@pin(COMRAM[1]), relay_initialize@pin(COMRAM[1]), 

    gpio_pin_initialize@_pin_config	PTR const struct . size(1) Largest target is 1
		 -> led_initialize@pin(COMRAM[1]), relay_initialize@pin(COMRAM[1]), 

    gpio_pin_write_logic@_pin_config	PTR const struct . size(1) Largest target is 1
		 -> led_initialize@pin(COMRAM[1]), led_turn_off@pin(COMRAM[1]), led_turn_on@pin(COMRAM[1]), relay_initialize@pin(COMRAM[1]), 
		 -> relay_turn_off@pin(COMRAM[1]), relay_turn_on@pin(COMRAM[1]), 

    INT0_InterruptHandler	PTR FTN()void  size(2) Largest target is 1
		 -> NULL(), 

    INT1_InterruptHandler	PTR FTN()void  size(2) Largest target is 1
		 -> NULL(), 

    INT2_InterruptHandler	PTR FTN()void  size(2) Largest target is 1
		 -> NULL(), 

    lat_registers	PTR volatile unsigned char [5] size(2) Largest target is 1
		 -> LATA(BITBIGSFRllll[1]), LATB(BITBIGSFRlllh[1]), LATC(BITBIGSFRlllh[1]), LATD(BITBIGSFRlllh[1]), 
		 -> LATE(BITBIGSFRlllh[1]), 

    led_initialize@led	PTR const struct . size(1) Largest target is 1
		 -> led1(COMRAM[1]), 

    port_registers	PTR volatile unsigned char [5] size(2) Largest target is 1
		 -> PORTA(BITBIGSFRllll[1]), PORTB(BITBIGSFRllll[1]), PORTC(BITBIGSFRllll[1]), PORTD(BITBIGSFRllll[1]), 
		 -> PORTE(BITBIGSFRllll[1]), 

    RB4_High_InterruptHandler	PTR FTN()void  size(2) Largest target is 1
		 -> NULL(), 

    RB4_Low_InterruptHandler	PTR FTN()void  size(2) Largest target is 1
		 -> NULL(), 

    RB5_High_InterruptHandler	PTR FTN()void  size(2) Largest target is 1
		 -> NULL(), 

    RB5_Low_InterruptHandler	PTR FTN()void  size(2) Largest target is 1
		 -> NULL(), 

    RB6_High_InterruptHandler	PTR FTN()void  size(2) Largest target is 1
		 -> NULL(), 

    RB6_Low_InterruptHandler	PTR FTN()void  size(2) Largest target is 1
		 -> NULL(), 

    RB7_High_InterruptHandler	PTR FTN()void  size(2) Largest target is 1
		 -> NULL(), 

    RB7_Low_InterruptHandler	PTR FTN()void  size(2) Largest target is 1
		 -> NULL(), 

    S1777$ext_interrupt_INTx_handler	PTR FTN()void  size(2) Largest target is 0

    S1816$ext_interrupt_RBx_high_handler	PTR FTN()void  size(2) Largest target is 0

    S1816$ext_interrupt_RBx_low_handler	PTR FTN()void  size(2) Largest target is 0

    S2202$TIMER0_InterruptHandler	PTR FTN()void  size(2) Largest target is 0

    S2382$TIMER3_InterruptHandler	PTR FTN()void  size(2) Largest target is 1
		 -> NULL(), 

    S2427$TIMER1_InterruptHandler	PTR FTN()void  size(2) Largest target is 0

    S2646$TIMER2_InterruptHandler	PTR FTN()void  size(2) Largest target is 0

    S3423$buffer	PTR unsigned char  size(2) Largest target is 0

    S3423$source	PTR const unsigned char  size(2) Largest target is 0

    S813$ADC_InterruptHandler	PTR FTN()void  size(2) Largest target is 0

    select_result_format@_adc$ADC_InterruptHandler	PTR FTN()void  size(2) Largest target is 0

    sp__memset	PTR void  size(2) Largest target is 0

    timer0_Init@_timer$TIMER0_InterruptHandler	PTR FTN()void  size(2) Largest target is 0

    TIMER0_InterruptHandler	PTR FTN()void  size(2) Largest target is 1
		 -> NULL(), 

    timer0_Mode_Select@_timer$TIMER0_InterruptHandler	PTR FTN()void  size(2) Largest target is 0

    timer0_Prescaler_Config@_timer$TIMER0_InterruptHandler	PTR FTN()void  size(2) Largest target is 0

    timer0_Register_Size_Config@_timer$TIMER0_InterruptHandler	PTR FTN()void  size(2) Largest target is 0

    timer1_Init@_timer$TIMER1_InterruptHandler	PTR FTN()void  size(2) Largest target is 0

    TIMER1_InterruptHandler	PTR FTN()void  size(2) Largest target is 1
		 -> NULL(), 

    timer1_Mode_Select@_timer$TIMER1_InterruptHandler	PTR FTN()void  size(2) Largest target is 0

    timer1_OSC_HW_Mode_Select@_timer$TIMER1_InterruptHandler	PTR FTN()void  size(2) Largest target is 0

    timer1_RW_REG_Bit_Mode_Select@_timer$TIMER1_InterruptHandler	PTR FTN()void  size(2) Largest target is 0

    timer2_Init@_timer$TIMER2_InterruptHandler	PTR FTN()void  size(2) Largest target is 0

    TIMER2_InterruptHandler	PTR FTN()void  size(2) Largest target is 1
		 -> NULL(), 

    timer3_Init@_timer	PTR const struct . size(1) Largest target is 6
		 -> counter3(COMRAM[6]), 

    timer3_Init@_timer$TIMER3_InterruptHandler	PTR FTN()void  size(2) Largest target is 1
		 -> NULL(), 

    TIMER3_InterruptHandler	PTR FTN()void  size(2) Largest target is 1
		 -> NULL(), 

    timer3_Mode_Select@_timer	PTR const struct . size(1) Largest target is 6
		 -> counter3(COMRAM[6]), 

    timer3_Mode_Select@_timer$TIMER3_InterruptHandler	PTR FTN()void  size(2) Largest target is 1
		 -> NULL(), 

    timer3_RW_REG_Bit_Mode_Select@_timer	PTR const struct . size(1) Largest target is 6
		 -> counter3(COMRAM[6]), 

    timer3_RW_REG_Bit_Mode_Select@_timer$TIMER3_InterruptHandler	PTR FTN()void  size(2) Largest target is 1
		 -> NULL(), 

    tris_registers	PTR volatile unsigned char [5] size(2) Largest target is 1
		 -> TRISA(BITBIGSFRllll[1]), TRISB(ABS[1]), TRISC(ABS[1]), TRISD(ABS[1]), 
		 -> TRISE(ABS[1]), 

    vfprintf$0	PTR struct _IO_FILE size(1) Largest target is 12
		 -> sprintf@f(COMRAM[12]), 

    vfprintf$1	PTR const unsigned char  size(1) Largest target is 3
		 -> STR_1(CODE[3]), STR_2(CODE[3]), STR_3(CODE[3]), 

    vfprintf$2	PTR PTR void  size(1) Largest target is 1
		 -> sprintf@ap(COMRAM[1]), 


Critical Paths under _main in COMRAM

    _application_initialize->_ecu_layer_initialize
    _timer3_Init->_timer3_Mode_Select
    _timer3_Init->_timer3_RW_REG_Bit_Mode_Select
    _ecu_layer_initialize->_led_initialize
    _led_initialize->_gpio_pin_initialize
    _gpio_pin_initialize->_gpio_pin_write_logic

Critical Paths under _InterruptManagerLow in COMRAM

    None.

Critical Paths under _InterruptManagerHigh in COMRAM

    _InterruptManagerHigh->_RB4_ISR
    _InterruptManagerHigh->_RB5_ISR
    _InterruptManagerHigh->_RB6_ISR
    _InterruptManagerHigh->_RB7_ISR

Critical Paths under _main in BANK0

    None.

Critical Paths under _InterruptManagerLow in BANK0

    None.

Critical Paths under _InterruptManagerHigh in BANK0

    None.

Critical Paths under _main in BANK1

    None.

Critical Paths under _InterruptManagerLow in BANK1

    None.

Critical Paths under _InterruptManagerHigh in BANK1

    None.

Critical Paths under _main in BANK2

    None.

Critical Paths under _InterruptManagerLow in BANK2

    None.

Critical Paths under _InterruptManagerHigh in BANK2

    None.

Critical Paths under _main in BANK3

    None.

Critical Paths under _InterruptManagerLow in BANK3

    None.

Critical Paths under _InterruptManagerHigh in BANK3

    None.

Critical Paths under _main in BANK4

    None.

Critical Paths under _InterruptManagerLow in BANK4

    None.

Critical Paths under _InterruptManagerHigh in BANK4

    None.

Critical Paths under _main in BANK5

    None.

Critical Paths under _InterruptManagerLow in BANK5

    None.

Critical Paths under _InterruptManagerHigh in BANK5

    None.

Critical Paths under _main in BANK6

    None.

Critical Paths under _InterruptManagerLow in BANK6

    None.

Critical Paths under _InterruptManagerHigh in BANK6

    None.

Critical Paths under _main in BANK7

    None.

Critical Paths under _InterruptManagerLow in BANK7

    None.

Critical Paths under _InterruptManagerHigh in BANK7

    None.

Critical Paths under _main in BANK8

    None.

Critical Paths under _InterruptManagerLow in BANK8

    None.

Critical Paths under _InterruptManagerHigh in BANK8

    None.

Critical Paths under _main in BANK9

    None.

Critical Paths under _InterruptManagerLow in BANK9

    None.

Critical Paths under _InterruptManagerHigh in BANK9

    None.

Critical Paths under _main in BANK10

    None.

Critical Paths under _InterruptManagerLow in BANK10

    None.

Critical Paths under _InterruptManagerHigh in BANK10

    None.

Critical Paths under _main in BANK11

    None.

Critical Paths under _InterruptManagerLow in BANK11

    None.

Critical Paths under _InterruptManagerHigh in BANK11

    None.

Critical Paths under _main in BANK12

    None.

Critical Paths under _InterruptManagerLow in BANK12

    None.

Critical Paths under _InterruptManagerHigh in BANK12

    None.

Critical Paths under _main in BANK13

    None.

Critical Paths under _InterruptManagerLow in BANK13

    None.

Critical Paths under _InterruptManagerHigh in BANK13

    None.

Critical Paths under _main in BANK14

    None.

Critical Paths under _InterruptManagerLow in BANK14

    None.

Critical Paths under _InterruptManagerHigh in BANK14

    None.

Critical Paths under _main in BANK15

    None.

Critical Paths under _InterruptManagerLow in BANK15

    None.

Critical Paths under _InterruptManagerHigh in BANK15

    None.

Call Graph Tables:

 ---------------------------------------------------------------------------------
 (Depth) Function   	        Calls       Base Space   Used Autos Params    Refs
 ---------------------------------------------------------------------------------
 (0) _main                                                 0     0      0    7223
             _application_initialize
 ---------------------------------------------------------------------------------
 (1) _application_initialize                               1     1      0    7223
               _ecu_layer_initialize
                        _timer3_Init
 ---------------------------------------------------------------------------------
 (2) _timer3_Init                                          4     3      1     604
                                              3 COMRAM     4     3      1
            _global_interrupt_Enable
                 _timer3_Mode_Select
      _timer3_RW_REG_Bit_Mode_Select
 ---------------------------------------------------------------------------------
 (3) _timer3_RW_REG_Bit_Mode_Select                        1     0      1     120
                                              2 COMRAM     1     0      1
 ---------------------------------------------------------------------------------
 (3) _timer3_Mode_Select                                   1     0      1     164
                                              2 COMRAM     1     0      1
 ---------------------------------------------------------------------------------
 (3) _global_interrupt_Enable                              0     0      0       0
 ---------------------------------------------------------------------------------
 (2) _ecu_layer_initialize                                 1     1      0    6616
                                             17 COMRAM     1     1      0
                     _led_initialize
 ---------------------------------------------------------------------------------
 (3) _led_initialize                                       4     3      1    6592
                                             13 COMRAM     4     3      1
                _gpio_pin_initialize
 ---------------------------------------------------------------------------------
 (4) _gpio_pin_initialize                                  3     2      1    6359
                                             10 COMRAM     3     2      1
      _gpio_pin_direction_initialize
               _gpio_pin_write_logic
 ---------------------------------------------------------------------------------
 (5) _gpio_pin_write_logic                                 8     6      2    4480
                                              2 COMRAM     8     6      2
 ---------------------------------------------------------------------------------
 (5) _gpio_pin_direction_initialize                        7     6      1     581
                                              2 COMRAM     7     6      1
 ---------------------------------------------------------------------------------
 Estimated maximum stack depth 5
 ---------------------------------------------------------------------------------
 (Depth) Function   	        Calls       Base Space   Used Autos Params    Refs
 ---------------------------------------------------------------------------------
 (6) _InterruptManagerLow                                  1     1      0       0
                                              1 COMRAM     1     1      0
                           _INT1_ISR
                           _INT2_ISR
 ---------------------------------------------------------------------------------
 (7) _INT2_ISR                                             0     0      0       0
 ---------------------------------------------------------------------------------
 (7) _INT1_ISR                                             0     0      0       0
 ---------------------------------------------------------------------------------
 Estimated maximum stack depth 7
 ---------------------------------------------------------------------------------
 (Depth) Function   	        Calls       Base Space   Used Autos Params    Refs
 ---------------------------------------------------------------------------------
 (8) _InterruptManagerHigh                                 0     0      0     120
                            _ADC_ISR
                           _INT0_ISR
                            _RB4_ISR
                            _RB5_ISR
                            _RB6_ISR
                            _RB7_ISR
                         _TIMER0_ISR
                         _TIMER1_ISR
                         _TIMER2_ISR
                         _TIMER3_ISR
 ---------------------------------------------------------------------------------
 (9) _TIMER3_ISR                                           0     0      0       0
 ---------------------------------------------------------------------------------
 (9) _TIMER2_ISR                                           0     0      0       0
 ---------------------------------------------------------------------------------
 (9) _TIMER1_ISR                                           0     0      0       0
 ---------------------------------------------------------------------------------
 (9) _TIMER0_ISR                                           0     0      0       0
 ---------------------------------------------------------------------------------
 (9) _RB7_ISR                                              1     1      0      30
                                              0 COMRAM     1     1      0
 ---------------------------------------------------------------------------------
 (9) _RB6_ISR                                              1     1      0      30
                                              0 COMRAM     1     1      0
 ---------------------------------------------------------------------------------
 (9) _RB5_ISR                                              1     1      0      30
                                              0 COMRAM     1     1      0
 ---------------------------------------------------------------------------------
 (9) _RB4_ISR                                              1     1      0      30
                                              0 COMRAM     1     1      0
 ---------------------------------------------------------------------------------
 (9) _INT0_ISR                                             0     0      0       0
 ---------------------------------------------------------------------------------
 (9) _ADC_ISR                                              0     0      0       0
 ---------------------------------------------------------------------------------
 Estimated maximum stack depth 9
 ---------------------------------------------------------------------------------

 Call Graph Graphs:

 _main (ROOT)
   _application_initialize
     _ecu_layer_initialize
       _led_initialize
         _gpio_pin_initialize
           _gpio_pin_direction_initialize
           _gpio_pin_write_logic
     _timer3_Init
       _global_interrupt_Enable
       _timer3_Mode_Select
       _timer3_RW_REG_Bit_Mode_Select

 _InterruptManagerLow (ROOT)
   _INT1_ISR
   _INT2_ISR

 _InterruptManagerHigh (ROOT)
   _ADC_ISR
   _INT0_ISR
   _RB4_ISR
   _RB5_ISR
   _RB6_ISR
   _RB7_ISR
   _TIMER0_ISR
   _TIMER1_ISR
   _TIMER2_ISR
   _TIMER3_ISR

 Address spaces:
Name               Size   Autos  Total    Cost      Usage
BIGRAM             F7F      0       0      48        0.0%
EEDATA             400      0       0       0        0.0%
BITBANK14          100      0       0      32        0.0%
BANK14             100      0       0      33        0.0%
BITBANK13          100      0       0      30        0.0%
BANK13             100      0       0      31        0.0%
BITBANK12          100      0       0      28        0.0%
BANK12             100      0       0      29        0.0%
BITBANK11          100      0       0      26        0.0%
BANK11             100      0       0      27        0.0%
BITBANK10          100      0       0      24        0.0%
BANK10             100      0       0      25        0.0%
BITBANK9           100      0       0      22        0.0%
BANK9              100      0       0      23        0.0%
BITBANK8           100      0       0      20        0.0%
BANK8              100      0       0      21        0.0%
BITBANK7           100      0       0      18        0.0%
BANK7              100      0       0      19        0.0%
BITBANK6           100      0       0      16        0.0%
BANK6              100      0       0      17        0.0%
BITBANK5           100      0       0      14        0.0%
BANK5              100      0       0      15        0.0%
BITBANK4           100      0       0      12        0.0%
BANK4              100      0       0      13        0.0%
BITBANK3           100      0       0      10        0.0%
BANK3              100      0       0      11        0.0%
BITBANK2           100      0       0       8        0.0%
BANK2              100      0       0       9        0.0%
BITBANK1           100      0       0       6        0.0%
BANK1              100      0       0       7        0.0%
BITBANK15           80      0       0      34        0.0%
BANK15              80      0       0      35        0.0%
BITBANK0            80      0       0       4        0.0%
BANK0               80      0      27       5       30.5%
BITCOMRAM           7E      0       0       0        0.0%
COMRAM              7E     12      7C       1       98.4%
BITBIGSFRhhllhh     18      0       0      37        0.0%
BITBIGSFRhhh         D      0       0      36        0.0%
BITBIGSFRlhhhh       C      0       0      41        0.0%
BITBIGSFRlhhl        6      0       0      42        0.0%
BITBIGSFRllhh        6      0       0      44        0.0%
BITBIGSFRhhllll      5      0       0      40        0.0%
BITBIGSFRhhllhl      4      0       0      38        0.0%
BITBIGSFRlllh        4      0       0      45        0.0%
BITBIGSFRllll        4      0       0      46        0.0%
BITBIGSFRlhll        3      0       0      43        0.0%
BITBIGSFRhhllll      1      0       0      39        0.0%
BIGSFR               0      0       0     200        0.0%
BITSFR               0      0       0     200        0.0%
SFR                  0      0       0     200        0.0%
STACK                0      0       0       2        0.0%
NULL                 0      0       0       0        0.0%
ABS                  0      0      A3      47        0.0%
DATA                 0      0      A3       3        0.0%
CODE                 0      0       0       0        0.0%


Microchip Technology PIC18 Macro Assembler V2.46 build 20240104201356 
Symbol Table                                                                                   Mon Sep 16 23:56:28 2024

                                      bsr 0FE0                     ??_InterruptManagerLow 006C  
                                     l287 17B0                                       l288 17B2  
                                     l369 191A                                       l566 156E  
                                     l567 1570                                       l583 143C  
                                     l584 143E                                       l598 16C6  
                                     l599 16C8                                       l958 1952  
                  ??_InterruptManagerHigh 006C                           __end_of_ADC_ISR 196C  
                                     _ret 0063                       led_initialize@F3062 003E  
                   relay_initialize@F3060 003A                                       wreg 0FE8  
                _RB4_Low_InterruptHandler 0027                  _RB7_Low_InterruptHandler 001B  
                         __end_of_RB4_ISR 1900                           __end_of_RB5_ISR 18E6  
                         __end_of_RB6_ISR 18CC                           __end_of_RB7_ISR 18B2  
                                    l1220 163A                                      l1062 190C  
                                    l1223 164C                                      l1224 164E  
                                    l1056 1920                                      l1057 1920  
                                    l1250 1740                                      l2027 194C  
                                    l1249 1740                                      l1257 184E  
                                    l4101 179E                                      l4031 1440  
                                    l4103 17AC                                      l4111 16E8  
                                    l4041 14EA                                      l4033 1454  
                                    l4121 1722                                      l4113 1700  
                                    l4035 1470                                      l4043 153A  
                                    l4051 12FC                                      l4211 190E  
                                    l4123 173A                                      l4115 1702  
                                    l4107 16CA                                      l4131 184C  
                                    l4045 1542                                      l4061 1364  
                                    l4053 1310                                      l4213 190E  
                                    l4117 1704                                      l4109 16E2  
                                    l4125 1816                                      l4221 1586  
                                    l4039 1494                                      l4063 13BA  
                                    l4055 132C                                      l4215 1918  
                                    l4119 171C                                      l4127 182E  
                                    l4231 15FE                                      l4223 1588  
                                    l5025 1426                                      l4057 134C  
                                    l4065 140A                                      l4081 1660  
                                    l4129 1834                                      l4241 1642  
                                    l4233 1618                                      l4225 15A4  
                                    l4067 1412                                      l4083 167C  
                                    l4091 1742                                      l4235 161E  
                                    l4227 15AC                                      l4243 1648  
                                    l4219 1572                                      l5019 191C  
                                    l4085 169C                                      l4093 1752  
                                    l4237 1638                                      l4229 15F0  
                                    l4341 1904                                      l4087 16C2  
                                    l4079 1650                                      l4095 1756  
                                    l4239 163E                                      l4097 178C  
                                    l4337 1900                                      l4099 178E  
                                    l4339 1900                                      STR_1 1011  
                                    _LATA 0F89                                      _LATB 0F8A  
                                    _LATC 0F8B                                      _LATD 0F8C  
                                    _LATE 0F8D                                      u2610 1454  
                                    u2611 1450                                      u2620 1470  
                                    u2700 1360                                      u2621 146C  
                                    u2701 135C                                      u2630 1490  
                                    u2631 148C                                      u2800 171C  
                                    u2801 1718                                      u2714 1382  
                                    u2730 1660                                      u2810 173A  
                                    u2715 137E                                      u2731 165C  
                                    u2811 1736                                      u2660 1558  
                                    u2644 14B2                                      u2724 13D8  
                                    u2740 167C                                      u2820 182E  
                                    u2661 1552                                      u2645 14AE  
                                    u2725 13D4                                      u2741 1678  
                                    u2821 182A                                      u2654 1508  
                                    u2670 1310                                      u2750 169C  
                                    u2830 184C                                      u2655 1504  
                                    u2671 130C                                      u2751 1698  
                                    u2831 1848                                      u2680 132C  
                                    u2760 1752                                      u2681 1328  
                                    u2761 174E                                      u2666 155A  
                                    u2690 134C                                      u2930 1586  
                                    u2691 1348                                      u2931 1582  
                                    u2780 16E2                                      u2940 1618  
                                    u2781 16DE                                      u2941 1614  
                                    u2790 1700                                      u2950 1638  
                                    u2775 179C                                      u2791 16FC  
                                    u2951 1634                                      u2777 179E  
                                    _TMR2 0FCC                                      _lcd1 0053  
                                    _lcd2 008A                                      _btn1 005E  
                                    _led1 006A                                      _main 191C  
                                    fsr2h 0FDA                                      indf2 0FDF  
                                    fsr1l 0FE1                                      fsr2l 0FD9  
                                    btemp 007D                    __end_of_led_initialize 17B4  
                                    prodl 0FF3                                      start 0066  
              __end_of_timer3_Mode_Select 1742                              ___param_bank 0000  
                    _gpio_pin_write_logic 12FC                               ?_TIMER0_ISR 006B  
                             ?_TIMER1_ISR 006B                               ?_TIMER2_ISR 006B  
                             ?_TIMER3_ISR 006B                          __end_of_INT0_ISR 1968  
                        __end_of_INT1_ISR 1964                          __end_of_INT2_ISR 1960  
                                   ?_main 006B                  ??_application_initialize 007D  
                                   _EEADR 0FA9                 ??_global_interrupt_Enable 006D  
                                   i1l712 005E                                     i1l709 003E  
                                   i2l700 12D8                                     i1l790 1962  
                                   i2l703 12F8                                     i1l795 195E  
                                   i2l806 18FE                                     i2l496 196A  
                                   i2l680 10C0                                     i2l817 18E4  
                                   i2l690 1214                                     i2l682 1104  
                                   i2l828 18CA                                     i2l692 1258  
                                   i2l684 1148                                     i2l676 1038  
                                   i2l694 1278                                     i2l686 118C  
                                   i2l678 107C                                     i2l839 18B0  
                                   i2l696 1298                                     i2l688 11D0  
                                   i2l785 1966                                     i2l698 12B8  
                     relay_turn_off@F3070 0038                                     _TMR0H 0FD7  
                                   _TMR1H 0FCF                                     _TMR0L 0FD6  
                                   _TMR1L 0FCE                                     _TMR3H 0FB3  
                                   _TMR3L 0FB2                                     _PORTA 0F80  
                                   _PORTB 0F81                                     _PORTC 0F82  
                                   _PORTD 0F83                                     _PORTE 0F84  
                                   _TRISA 0F92                                     _TRISB 0F93  
                                   _TRISC 0F94                                     _TRISD 0F95  
                                   _TRISE 0F96                                     tablat 0FF5  
                                   ttemp5 007E                                     ttemp6 0081  
                                   ttemp7 0085                                     status 0FD8  
                                   wtemp8 007E                           ?_led_initialize 0078  
          ?_gpio_pin_direction_initialize 006D                           __initialization 17B4  
                            __end_of_main 1928                     ?_gpio_pin_write_logic 006D  
                               ??_ADC_ISR 006B                             _lat_registers 003F  
                                  ??_main 007D                             __activetblptr 0003  
                        led_turn_on@F3067 003D                                 ??_RB4_ISR 006B  
                               ??_RB5_ISR 006B                                 ??_RB6_ISR 006B  
                               ??_RB7_ISR 006B                 _RB5_High_InterruptHandler 0021  
                                  _ADRESH 0FC4                                    _EEADRH 0FAA  
                                  _ADRESL 0FC3                                    _EEDATA 0FA8  
                                  _EECON2 0FA7                                    i1l2415 195C  
                                  i1l2409 1960                                    i1l3451 001E  
                                  i1l3453 002C                                    i2l1039 194A  
                                  i1l3455 003A                                    i1l3457 004C  
                                  i2l1146 193E                                    i1l3459 005A  
                                  i2l1262 1932                                    i2l2311 1964  
                                  i2l1191 195A                                    i2l2305 1968  
                                  i2l2401 192A                                    i2l2331 18CE  
                                  i2l2403 192E                                    i2l2325 18FE  
                                  i2l2317 18E8                                    i2l2333 18D0  
                                  i2l2319 18EA                                    i2l2353 18CA  
                                  i2l2345 18B4                                    i2l2361 189C  
                                  i2l3401 119A                                    i2l2339 18E4  
                                  i2l2347 18B6                                    i2l3411 11DE  
                                  i2l3403 11A8                                    i2l2373 1940  
                                  i2l3421 1222                                    i2l3413 11EC  
                                  i2l3405 11B6                                    i2l2367 18B0  
                                  i2l2359 189A                                    i2l2375 1942  
                                  i2l2383 1934                                    i2l3431 1266  
                                  i2l3423 1230                                    i2l3415 11FA  
                                  i2l3407 11C6                                    i2l3351 1046  
                                  i2l2377 1946                                    i2l2385 1936  
                                  i2l2393 1954                                    i2l3441 12B4  
                                  i2l3433 1274                                    i2l3425 123E  
                                  i2l3417 120A                                    i2l3409 11CA  
                                  i2l3361 108A                                    i2l3353 1054  
                                  i2l3345 1018                                    i2l2387 193A  
                                  i2l3443 12C6                                    i2l3435 1286  
                                  i2l3427 124E                                    i2l3419 120E  
                                  i2l3371 10CE                                    i2l3363 1098  
                                  i2l3355 1062                                    i2l3347 1026  
                                  i2l3445 12D4                                    i2l3437 1294  
                                  i2l3429 1252                                    i2l3381 1112  
                                  i2l3373 10DC                                    i2l3365 10A6  
                                  i2l3357 1072                                    i2l3349 1034  
                                  i2l2399 1928                                    i2l3447 12E6  
                                  i2l3439 12A6                                    i2l3391 1156  
                                  i2l3383 1120                                    i2l3375 10EA  
                                  i2l3367 10B6                                    i2l3359 1076  
                                  i2l3449 12F4                                    i2l3393 1164  
                                  i2l3385 112E                                    i2l3377 10FA  
                                  i2l3369 10BA                                    i2l3395 1172  
                                  i2l3387 113E                                    i2l3379 10FE  
                                  i2l3397 1182                                    i2l3389 1142  
                                  i2l3399 1186               convert_uin8_to_string@F3227 0007  
                 _TIMER0_InterruptHandler 0017           __end_of_global_interrupt_Enable 1954  
                            ?_timer3_Init 006E                                    clear_0 17FA  
                                  clear_1 1806                                    _relay1 0037  
                                  _motor1 0061                                    isa$std 0001  
                            __pdataCOMRAM 003F                              __mediumconst 0000  
                                  tblptrh 0FF7                                    tblptrl 0FF6  
                                  tblptru 0FF8                                __accesstop 0080  
                 __end_of__initialization 180C                                 ?_INT0_ISR 006B  
                               ?_INT1_ISR 006B                                 ?_INT2_ISR 006B  
                           ___rparam_used 0001                         led_initialize@led 0078  
                       led_initialize@pin 007B                         led_initialize@ret 007A  
                  ??_gpio_pin_write_logic 006F                            __pcstackCOMRAM 006B  
                            __pidataBANK0 187C                             RB4_ISR@source 006B  
gpio_pin_direction_initialize@_pin_config 006D                             RB5_ISR@source 006B  
                              __pbssBANK0 009C                     _INT0_InterruptHandler 002D  
                              ??_INT0_ISR 006B                                ??_INT1_ISR 006C  
                              ??_INT2_ISR 006C                    _application_initialize 1900  
             __end_of_InterruptManagerLow 0066                             RB6_ISR@source 006B  
                       led_turn_off@F3072 003C                              ??_TIMER0_ISR 006B  
                            ??_TIMER1_ISR 006B                              ??_TIMER2_ISR 006B  
                            ??_TIMER3_ISR 006B                                   _ADC_ISR 1968  
                 _TIMER1_InterruptHandler 0013              ecu_layer_initialize@ret_init 007C  
                      _timer3_Mode_Select 16CA                                   _RB4_ISR 18E6  
                                 _RB5_ISR 18CC                                   _RB6_ISR 18B2  
                                 _RB7_ISR 1898                             _keypad_values 1001  
                _RB6_Low_InterruptHandler 001F                      led_turn_toggle@F3077 003B  
                                 i2u55_40 18FA                                   i2u55_41 18F6  
                                 i2u56_40 18E0                                   i2u56_41 18DC  
                                 i2u57_40 18C6                                   i2u57_41 18C2  
                                 i2u58_40 18AC                                   i2u58_41 18A8  
                     ?_timer3_Mode_Select 006D                             RB7_ISR@source 006B  
                        ??_led_initialize 0079                            _tris_registers 0049  
                      __end_of_TIMER0_ISR 194C                        __end_of_TIMER1_ISR 1940  
                      __end_of_TIMER2_ISR 195C                        __end_of_TIMER3_ISR 1934  
                    _ADC_InterruptHandler 002F                                   __Hparam 0000  
                                 __Lparam 0000                      ??_timer3_Mode_Select 006E  
                     _gpio_pin_initialize 1650                              __psmallconst 1000  
                                 __pcinit 17B4                                   __ramtop 1000  
                                 __ptext0 191C                                   __ptext1 1900  
                                 __ptext2 1572                                   __ptext3 1816  
                                 __ptext4 16CA                                   __ptext5 194C  
                                 __ptext6 190E                                   __ptext7 1742  
                                 __ptext8 1650                                   __ptext9 12FC  
                               _T0CONbits 0FD5                                 _T1CONbits 0FCD  
         ??_gpio_pin_direction_initialize 006E                                 _T2CONbits 0FCA  
                                 _keypad1 0094                                 _T3CONbits 0FB1  
                    ?_gpio_pin_initialize 0075                            __pintcode_body 1016  
                    end_of_initialization 180C                                   int_func 1016  
                                 postdec1 0FE5                                   postdec2 0FDD  
                                 postinc0 0FEE                                   postinc2 0FDE  
                ?_global_interrupt_Enable 006B                     _INT1_InterruptHandler 002B  
                               _PORTBbits 0F81                     ??_gpio_pin_initialize 0076  
               _RB6_High_InterruptHandler 001D                   _TIMER2_InterruptHandler 000F  
                      relay_turn_on@F3065 0039             convert_uint32_to_string@F3241 009C  
           convert_uint16_to_string@F3234 0001                             __pidataCOMRAM 1850  
                          _timer0_preload 0015                            _timer1_preload 0011  
                          _timer2_preload 0031                       start_initialization 17B4  
                          _timer3_preload 000B     __end_of_gpio_pin_direction_initialize 1572  
           _gpio_pin_direction_initialize 1440                   ?_application_initialize 006B  
                          timer3_Init@ret 0071           ??_timer3_RW_REG_Bit_Mode_Select 006E  
                             __pdataBANK0 0080                                  ?_ADC_ISR 006B  
            __end_of_ecu_layer_initialize 191C                                  ?_RB4_ISR 006B  
                                ?_RB5_ISR 006B                                  ?_RB6_ISR 006B  
                                ?_RB7_ISR 006B                               __pbssCOMRAM 0001  
                       timer3_Init@_timer 006E            __end_of_application_initialize 190E  
                   _INT2_InterruptHandler 0029              __end_of_InterruptManagerHigh 12FC  
                               __pintcode 0008           gpio_pin_write_logic@_pin_config 006D  
                             __pintcodelo 0018                 gpio_pin_write_logic@logic 006E  
                 _TIMER3_InterruptHandler 000D                               __smallconst 1000  
                _RB5_Low_InterruptHandler 0023                                  _INT0_ISR 1964  
                                _INT1_ISR 1960                                  _INT2_ISR 195C  
                                _IPR1bits 0F9F                                  _IPR2bits 0FA2  
                                _RB4_flag 0036                                  _PIE1bits 0F9D  
                                _PIE2bits 0FA0                                  _RB5_flag 0035  
                                _RB6_flag 0034                                  _RB7_flag 0033  
                                i1u204_20 002C                                  i1u204_21 0028  
                                i1u205_20 003A                                  i1u205_21 0036  
                                i1u206_20 004C                                  i1u206_21 0048  
                                i1u207_20 005A                                  i1u207_21 0056  
                                i2u200_40 12C6                                  i2u200_41 12C2  
                                i2u201_40 12D4                                  i2u201_41 12D0  
                                i2u202_40 12E6                                  i2u202_41 12E2  
                                i2u203_40 12F4                                  i2u203_41 12F0  
                                i2u160_40 1026                                  i2u160_41 1022  
                                i2u161_40 1034                                  i2u161_41 1030  
                                i2u170_40 10CE                                  i2u162_40 1046  
                                i2u170_41 10CA                                  i2u162_41 1042  
                                i2u171_40 10DC                                  i2u163_40 1054  
                                i2u171_41 10D8                                  i2u163_41 1050  
                                i2u180_40 1172                                  i2u172_40 10EA  
                                i2u164_40 1062                                  i2u180_41 116E  
                                i2u172_41 10E6                                  i2u164_41 105E  
                                i2u181_40 1182                                  i2u173_40 10FA  
                                i2u165_40 1072                                  i2u181_41 117E  
                                i2u173_41 10F6                                  i2u165_41 106E  
                                i2u190_40 1222                                  i2u182_40 119A  
                                i2u174_40 1112                                  i2u166_40 108A  
                                i2u190_41 121E                                  i2u182_41 1196  
                                i2u174_41 110E                                  i2u166_41 1086  
                                i2u191_40 1230                                  i2u183_40 11A8  
                                i2u175_40 1120                                  i2u167_40 1098  
                                i2u191_41 122C                                  i2u183_41 11A4  
                                i2u175_41 111C                                  i2u167_41 1094  
                                i2u192_40 123E                                  i2u184_40 11B6  
                                i2u176_40 112E                                  i2u168_40 10A6  
                                i2u192_41 123A                                  i2u184_41 11B2  
                                i2u176_41 112A                                  i2u168_41 10A2  
                                i2u193_40 124E                                  i2u185_40 11C6  
                                i2u177_40 113E                                  i2u169_40 10B6  
                                i2u193_41 124A                                  i2u185_41 11C2  
                                i2u177_41 113A                                  i2u169_41 10B2  
                                _PIR1bits 0F9E                                  i2u194_40 1266  
                                i2u186_40 11DE                                  i2u178_40 1156  
                                i2u194_41 1262                                  i2u186_41 11DA  
                                i2u178_41 1152                                  i2u195_40 1274  
                                i2u187_40 11EC                                  i2u179_40 1164  
                                i2u195_41 1270                                  i2u187_41 11E8  
                                i2u179_41 1160                                  _PIR2bits 0FA1  
                                i2u196_40 1286                                  i2u188_40 11FA  
                                i2u196_41 1282                                  i2u188_41 11F6  
                                i2u197_40 1294                                  i2u189_40 120A  
                                i2u197_41 1290                                  i2u189_41 1206  
                                i2u198_40 12A6                                  i2u198_41 12A2  
                                i2u199_40 12B4                                  i2u199_41 12B0  
     timer3_RW_REG_Bit_Mode_Select@_timer 006D     __end_of_timer3_RW_REG_Bit_Mode_Select 1850  
           _timer3_RW_REG_Bit_Mode_Select 1816                                  _RCONbits 0FD0  
                           ??_timer3_Init 006F          gpio_pin_direction_initialize@ret 0073  
                              _ADCON0bits 0FC2                                _ADCON1bits 0FC1  
                              _ADCON2bits 0FC0                    gpio_pin_initialize@ret 0077  
                 gpio_pin_write_logic@ret 0074                               _INTCON2bits 0FF1  
                             _INTCON3bits 0FF0                                 copy_data0 17C8  
                               copy_data1 17E8                      _ecu_layer_initialize 190E  
                              _EECON1bits 0FA6                                  __Hrparam 0000  
                                __Lrparam 0000                  timer3_Mode_Select@_timer 006D  
             __end_of_gpio_pin_initialize 16CA                       __end_of_timer3_Init 1650  
          gpio_pin_initialize@_pin_config 0075                 _RB4_High_InterruptHandler 0025  
                    _InterruptManagerHigh 0008                                  __ptext10 1440  
                                __ptext20 18B2                                  __ptext12 195C  
                                __ptext21 18CC                                  __ptext13 1960  
                                __ptext22 18E6                                  __ptext23 1964  
                                __ptext15 1928                                  __ptext24 1968  
                                __ptext16 1954                                  __ptext17 1934  
                                __ptext18 1940                                  __ptext19 1898  
               _RB7_High_InterruptHandler 0019                                  _counter3 0064  
                   ?_ecu_layer_initialize 006B                                  _segment1 0059  
                                isa$xinst 0000                                  int$flags 007D  
          ?_timer3_RW_REG_Bit_Mode_Select 006D                              _timer3_value 0032  
                   __end_of_keypad_values 1011                                _INTCONbits 0FF2  
                   ?_InterruptManagerHigh 006B              __end_of_gpio_pin_write_logic 1440  
                                intlevel1 0000                                  intlevel2 0000  
                     _InterruptManagerLow 0018                               _timer3_Init 1572  
                              _TIMER0_ISR 1940                                _TIMER1_ISR 1934  
                              _TIMER2_ISR 1954                                _TIMER3_ISR 1928  
                    ?_InterruptManagerLow 006B                            _port_registers 0080  
                 _global_interrupt_Enable 194C                    ??_ecu_layer_initialize 007C  
                          _led_initialize 1742  
