

Microchip MPLAB XC8 Assembler V2.46 build 20240104201356 
                                                                                               Fri Sep 20 09:51:41 2024

Microchip MPLAB XC8 C Compiler v2.46 (Free license) build 20240104201356 Og1 
     1                           	processor	18F4620
     2                           	fnconf	rparam,??,?,0
     3                           	pagewidth 120
     4                           	opt	flic
     5                           	psect	idataCOMRAM,global,class=CODE,delta=1,noexec
     6                           	psect	idataBANK0,global,class=CODE,delta=1,noexec
     7                           	psect	smallconst,global,reloc=2,class=SMALLCONST,delta=1,noexec
     8                           	psect	cinit,global,reloc=2,class=CODE,delta=1
     9                           	psect	bssCOMRAM,global,class=COMRAM,space=1,delta=1,lowdata,noexec
    10                           	psect	dataCOMRAM,global,class=COMRAM,space=1,delta=1,lowdata,noexec
    11                           	psect	bssBANK0,global,class=BANK0,space=1,delta=1,lowdata,noexec
    12                           	psect	dataBANK0,global,class=BANK0,space=1,delta=1,lowdata,noexec
    13                           	psect	cstackBANK0,global,class=BANK0,space=1,delta=1,lowdata,noexec
    14                           	psect	cstackCOMRAM,global,class=COMRAM,space=1,delta=1,lowdata,noexec
    15                           	psect	text0,global,reloc=2,class=CODE,delta=1
    16                           	psect	text1,global,reloc=2,class=CODE,delta=1
    17                           	psect	text2,global,reloc=2,class=CODE,delta=1
    18                           	psect	text3,global,reloc=2,class=CODE,delta=1
    19                           	psect	text4,global,reloc=2,class=CODE,delta=1,inline
    20                           	psect	text5,global,reloc=2,class=CODE,delta=1,inline
    21                           	psect	text6,global,reloc=2,class=CODE,delta=1,inline
    22                           	psect	text7,global,reloc=2,class=CODE,delta=1
    23                           	psect	text8,global,reloc=2,class=CODE,delta=1
    24                           	psect	text9,global,reloc=2,class=CODE,delta=1
    25                           	psect	text10,global,reloc=2,class=CODE,delta=1
    26                           	psect	text11,global,reloc=2,class=CODE,delta=1
    27                           	psect	text12,global,reloc=2,class=CODE,delta=1
    28                           	psect	text13,global,reloc=2,class=CODE,delta=1
    29                           	psect	text14,global,reloc=2,class=CODE,delta=1
    30                           	psect	text15,global,reloc=2,class=CODE,delta=1
    31                           	psect	text16,global,reloc=2,class=CODE,delta=1
    32                           	psect	intcode,global,reloc=2,class=CODE,delta=1
    33                           	psect	intcode_body,global,reloc=2,class=CODE,delta=1
    34                           	psect	text18,global,reloc=2,class=CODE,delta=1
    35                           	psect	text19,global,reloc=2,class=CODE,delta=1
    36                           	psect	text20,global,reloc=2,class=CODE,delta=1
    37                           	psect	text21,global,reloc=2,class=CODE,delta=1
    38                           	psect	text22,global,reloc=2,class=CODE,delta=1
    39                           	psect	text23,global,reloc=2,class=CODE,delta=1
    40                           	psect	intsave_regs,global,class=BIGRAM,space=1,delta=1,noexec
    41                           	psect	rparam,global,class=COMRAM,space=1,delta=1,noexec
    42                           	psect	temp,global,ovrld,common,class=COMRAM,space=1,delta=1,lowdata
    43                           	psect	config,global,abs,ovrld,class=CONFIG,space=4,delta=1,noexec
    44   000000                     
    45                           ; Generated 17/10/2023 GMT
    46                           ; 
    47                           ; Copyright © 2023, Microchip Technology Inc. and its subsidiaries ("Microchip")
    48                           ; All rights reserved.
    49                           ; 
    50                           ; This software is developed by Microchip Technology Inc. and its subsidiaries ("Microch
      +                          ip").
    51                           ; 
    52                           ; Redistribution and use in source and binary forms, with or without modification, are
    53                           ; permitted provided that the following conditions are met:
    54                           ; 
    55                           ;     1. Redistributions of source code must retain the above copyright notice, this lis
      +                          t of
    56                           ;        conditions and the following disclaimer.
    57                           ; 
    58                           ;     2. Redistributions in binary form must reproduce the above copyright notice, this 
      +                          list
    59                           ;        of conditions and the following disclaimer in the documentation and/or other
    60                           ;        materials provided with the distribution. Publication is not required when
    61                           ;        this file is used in an embedded application.
    62                           ; 
    63                           ;     3. Microchip's name may not be used to endorse or promote products derived from th
      +                          is
    64                           ;        software without specific prior written permission.
    65                           ; 
    66                           ; THIS SOFTWARE IS PROVIDED BY MICROCHIP "AS IS" AND ANY EXPRESS OR IMPLIED WARRANTIES,
    67                           ; INCLUDING, BUT NOT LIMITED TO, THE IMPLIED WARRANTIES OF MERCHANTABILITY AND FITNESS F
      +                          OR
    68                           ; PURPOSE ARE DISCLAIMED.  IN NO EVENT SHALL MICROCHIP BE LIABLE FOR ANY DIRECT, INDIREC
      +                          T,
    69                           ; INCIDENTAL, SPECIAL, EXEMPLARY, OR CONSEQUENTIAL DAMAGES (INCLUDING BUT NOT LIMITED TO
    70                           ; PROCUREMENT OF SUBSTITUTE GOODS OR SERVICES; LOSS OF USE, DATA OR PROFITS; OR BUSINESS
    71                           ; INTERRUPTION) HOWSOEVER CAUSED AND ON ANY THEORY OF LIABILITY, WHETHER IN CONTRACT, ST
      +                          RICT
    72                           ; LIABILITY, OR TORT (INCLUDING NEGLIGENCE OR OTHERWISE) ARISING IN ANY WAY OUT OF THE U
      +                          SE OF
    73                           ; THIS SOFTWARE, EVEN IF ADVISED OF THE POSSIBILITY OF SUCH DAMAGE.
    74                           ; 
    75                           ; 
    76                           ; Code-generator required, PIC18F4620 Definitions
    77                           ; 
    78                           ; SFR Addresses
    79   000000                     
    80                           	psect	idataCOMRAM
    81   00170C                     __pidataCOMRAM:
    82                           	callstack 0
    83                           
    84                           ;initializer for _port_registers
    85   00170C  80                 	db	128
    86   00170D  0F                 	db	15
    87   00170E  81                 	db	129
    88   00170F  0F                 	db	15
    89   001710  82                 	db	130
    90   001711  0F                 	db	15
    91   001712  83                 	db	131
    92   001713  0F                 	db	15
    93   001714  84                 	db	132
    94   001715  0F                 	db	15
    95                           
    96                           ;initializer for _lat_registers
    97   001716  89                 	db	137
    98   001717  0F                 	db	15
    99   001718  8A                 	db	138
   100   001719  0F                 	db	15
   101   00171A  8B                 	db	139
   102   00171B  0F                 	db	15
   103   00171C  8C                 	db	140
   104   00171D  0F                 	db	15
   105   00171E  8D                 	db	141
   106   00171F  0F                 	db	15
   107                           
   108                           ;initializer for _tris_registers
   109   001720  92                 	db	146
   110   001721  0F                 	db	15
   111   001722  93                 	db	147
   112   001723  0F                 	db	15
   113   001724  94                 	db	148
   114   001725  0F                 	db	15
   115   001726  95                 	db	149
   116   001727  0F                 	db	15
   117   001728  96                 	db	150
   118   001729  0F                 	db	15
   119                           
   120                           ;initializer for _keypad1
   121   00172A  02                 	db	2
   122   00172B  0A                 	db	10
   123   00172C  12                 	db	18
   124   00172D  1A                 	db	26
   125   00172E  62                 	db	98
   126   00172F  6A                 	db	106
   127   001730  72                 	db	114
   128   001731  7A                 	db	122
   129                           
   130                           ;initializer for _lcd1
   131   001732  02                 	db	2
   132   001733  0A                 	db	10
   133   001734  12                 	db	18
   134   001735  1A                 	db	26
   135   001736  22                 	db	34
   136   001737  2A                 	db	42
   137                           
   138                           ;initializer for _segment1
   139   001738  02                 	db	2
   140   001739  0A                 	db	10
   141   00173A  12                 	db	18
   142   00173B  1A                 	db	26
   143   00173C  00                 	db	0
   144                           
   145                           ;initializer for _btn1
   146   00173D  4B                 	db	75
   147   00173E  00                 	db	0
   148   00173F  01                 	db	1
   149                           
   150                           ;initializer for _motor1
   151   001740  02                 	db	2
   152   001741  0A                 	db	10
   153                           
   154                           ;initializer for _ret
   155   001742  01                 	db	1
   156                           
   157                           ;initializer for _ccp
   158   001743  92                 	db	146
   159   001744  02                 	db	2
   160   001745  66                 	db	low _CCP1_APP_ISR
   161   001746  16                 	db	high _CCP1_APP_ISR
   162   001747  00                 	db	0
   163                           
   164                           ;initializer for _led1
   165   001748  03                 	db	3
   166                           
   167                           	psect	idataBANK0
   168   0018E4                     __pidataBANK0:
   169                           	callstack 0
   170                           
   171                           ;initializer for _lcd2
   172   0018E4  32                 	db	50
   173   0018E5  3A                 	db	58
   174   0018E6  03                 	db	3
   175   0018E7  0B                 	db	11
   176   0018E8  13                 	db	19
   177   0018E9  1B                 	db	27
   178   0018EA  23                 	db	35
   179   0018EB  2B                 	db	43
   180   0018EC  33                 	db	51
   181   0018ED  3B                 	db	59
   182                           
   183                           	psect	smallconst
   184   001000                     __psmallconst:
   185                           	callstack 0
   186   001000  00                 	db	0
   187   001001                     _keypad_values:
   188                           	callstack 0
   189   001001  37                 	db	55
   190   001002  38                 	db	56
   191   001003  39                 	db	57
   192   001004  2F                 	db	47
   193   001005  34                 	db	52
   194   001006  35                 	db	53
   195   001007  36                 	db	54
   196   001008  2A                 	db	42
   197   001009  31                 	db	49
   198   00100A  32                 	db	50
   199   00100B  33                 	db	51
   200   00100C  2D                 	db	45
   201   00100D  63                 	db	99
   202   00100E  30                 	db	48
   203   00100F  3D                 	db	61
   204   001010  2B                 	db	43
   205   001011                     __end_of_keypad_values:
   206                           	callstack 0
   207   000000                     _CCPR1H	set	4031
   208   000000                     _CCPR1L	set	4030
   209   000000                     _TMR3L	set	4018
   210   000000                     _TMR3H	set	4019
   211   000000                     _TMR1L	set	4046
   212   000000                     _TMR1H	set	4047
   213   000000                     _TMR0L	set	4054
   214   000000                     _TMR0H	set	4055
   215   000000                     _EECON2	set	4007
   216   000000                     _ADRESL	set	4035
   217   000000                     _ADRESH	set	4036
   218   000000                     _TRISD	set	3989
   219   000000                     _TRISC	set	3988
   220   000000                     _TRISB	set	3987
   221   000000                     _TRISE	set	3990
   222   000000                     _ADCON2bits	set	4032
   223   000000                     _ADCON1bits	set	4033
   224   000000                     _ADCON0bits	set	4034
   225   000000                     _PORTE	set	3972
   226   000000                     _PORTD	set	3971
   227   000000                     _PORTC	set	3970
   228   000000                     _PORTB	set	3969
   229   000000                     _PORTA	set	3968
   230   000000                     _LATA	set	3977
   231   000000                     _TRISA	set	3986
   232   000000                     _T2CONbits	set	4042
   233   000000                     _T1CONbits	set	4045
   234   000000                     _T0CONbits	set	4053
   235   000000                     _INTCONbits	set	4082
   236   000000                     _PIE1bits	set	3997
   237   000000                     _EECON1bits	set	4006
   238   000000                     _EEDATA	set	4008
   239   000000                     _EEADR	set	4009
   240   000000                     _EEADRH	set	4010
   241   000000                     _T3CONbits	set	4017
   242   000000                     _LATE	set	3981
   243   000000                     _LATD	set	3980
   244   000000                     _LATC	set	3979
   245   000000                     _LATB	set	3978
   246   000000                     _PIE2bits	set	4000
   247   000000                     _PIR1bits	set	3998
   248   000000                     _PIR2bits	set	4001
   249   000000                     _TMR2	set	4044
   250   000000                     _CCP1CONbits	set	4029
   251   001011                     STR_1:
   252   001011  25                 	db	37
   253   001012  69                 	db	105	;'i'
   254   001013  00                 	db	0
   255   001014  00                 	db	0	; dummy byte at the end
   256   000000                     
   257                           ; #config settings
   258                           
   259                           	psect	cinit
   260   001604                     __pcinit:
   261                           	callstack 0
   262   001604                     start_initialization:
   263                           	callstack 0
   264   001604                     __initialization:
   265                           	callstack 0
   266                           
   267                           ; Initialize objects allocated to BANK0 (10 bytes)
   268                           ; load TBLPTR registers with __pidataBANK0
   269   001604  0EE4               	movlw	low __pidataBANK0
   270   001606  6EF6               	movwf	tblptrl,c
   271   001608  0E18               	movlw	high __pidataBANK0
   272   00160A  6EF7               	movwf	tblptrh,c
   273   00160C  0E00               	movlw	low (__pidataBANK0 shr (0+16))
   274   00160E  6EF8               	movwf	tblptru,c
   275   001610  EE00  F08B         	lfsr	0,__pdataBANK0
   276   001614  EE10 F00A          	lfsr	1,10
   277   001618                     copy_data0:
   278   001618  0009               	tblrd		*+
   279   00161A  CFF5 FFEE          	movff	tablat,postinc0
   280   00161E  50E5               	movf	postdec1,w,c
   281   001620  50E1               	movf	fsr1l,w,c
   282   001622  E1FA               	bnz	copy_data0
   283                           
   284                           ; Initialize objects allocated to COMRAM (61 bytes)
   285                           ; load TBLPTR registers with __pidataCOMRAM
   286   001624  0E0C               	movlw	low __pidataCOMRAM
   287   001626  6EF6               	movwf	tblptrl,c
   288   001628  0E17               	movlw	high __pidataCOMRAM
   289   00162A  6EF7               	movwf	tblptrh,c
   290   00162C  0E00               	movlw	low (__pidataCOMRAM shr (0+16))
   291   00162E  6EF8               	movwf	tblptru,c
   292   001630  EE00  F001         	lfsr	0,__pdataCOMRAM
   293   001634  EE10 F03D          	lfsr	1,61
   294   001638                     copy_data1:
   295   001638  0009               	tblrd		*+
   296   00163A  CFF5 FFEE          	movff	tablat,postinc0
   297   00163E  50E5               	movf	postdec1,w,c
   298   001640  50E1               	movf	fsr1l,w,c
   299   001642  E1FA               	bnz	copy_data1
   300                           
   301                           ; Clear objects allocated to BANK0 (11 bytes)
   302   001644  EE00  F080         	lfsr	0,__pbssBANK0
   303   001648  0E0B               	movlw	11
   304   00164A                     clear_0:
   305   00164A  6AEE               	clrf	postinc0,c
   306   00164C  06E8               	decf	wreg,f,c
   307   00164E  E1FD               	bnz	clear_0
   308                           
   309                           ; Clear objects allocated to COMRAM (39 bytes)
   310   001650  EE00  F03E         	lfsr	0,__pbssCOMRAM
   311   001654  0E27               	movlw	39
   312   001656                     clear_1:
   313   001656  6AEE               	clrf	postinc0,c
   314   001658  06E8               	decf	wreg,f,c
   315   00165A  E1FD               	bnz	clear_1
   316   00165C                     end_of_initialization:
   317                           	callstack 0
   318   00165C                     __end_of__initialization:
   319                           	callstack 0
   320   00165C  9077               	bcf	int$flags,0,c	;clear compiler interrupt flag (level 1)
   321   00165E  9277               	bcf	int$flags,1,c	;clear compiler interrupt flag (level 2)
   322   001660  0100               	movlb	0
   323   001662  EF3A  F00C         	goto	_main	;jump to C main() function
   324                           
   325                           	psect	bssCOMRAM
   326   00003E                     __pbssCOMRAM:
   327                           	callstack 0
   328   00003E                     	ds	6
   329   000044                     	ds	4
   330   000048                     ccp1_Compare_Mode_Set_Value@F3103:
   331                           	callstack 0
   332   000048                     	ds	2
   333   00004A                     _CCP2_InterruptHandler:
   334                           	callstack 0
   335   00004A                     	ds	2
   336   00004C                     _CCP1_InterruptHandler:
   337                           	callstack 0
   338   00004C                     	ds	2
   339   00004E                     _timer3_preload:
   340                           	callstack 0
   341   00004E                     	ds	2
   342   000050                     _timer1_preload:
   343                           	callstack 0
   344   000050                     	ds	2
   345   000052                     _TIMER1_InterruptHandler:
   346                           	callstack 0
   347   000052                     	ds	2
   348   000054                     _timer0_preload:
   349                           	callstack 0
   350   000054                     	ds	2
   351   000056                     CCP1_APP_ISR@flag:
   352                           	callstack 0
   353   000056                     	ds	1
   354   000057                     _timer2_preload:
   355                           	callstack 0
   356   000057                     	ds	1
   357   000058                     _relay1:
   358                           	callstack 0
   359   000058                     	ds	1
   360   000059                     relay_turn_off@F3070:
   361                           	callstack 0
   362   000059                     	ds	1
   363   00005A                     relay_turn_on@F3065:
   364                           	callstack 0
   365   00005A                     	ds	1
   366   00005B                     relay_initialize@F3060:
   367                           	callstack 0
   368   00005B                     	ds	1
   369   00005C                     led_turn_toggle@F3077:
   370                           	callstack 0
   371   00005C                     	ds	1
   372   00005D                     led_turn_off@F3072:
   373                           	callstack 0
   374   00005D                     	ds	1
   375   00005E                     led_turn_on@F3067:
   376                           	callstack 0
   377   00005E                     	ds	1
   378   00005F                     led_initialize@F3062:
   379                           	callstack 0
   380   00005F                     	ds	1
   381   000060                     _timer1:
   382                           	callstack 0
   383   000060                     	ds	5
   384                           
   385                           	psect	dataCOMRAM
   386   000001                     __pdataCOMRAM:
   387                           	callstack 0
   388   000001                     _port_registers:
   389                           	callstack 0
   390   000001                     	ds	10
   391   00000B                     _lat_registers:
   392                           	callstack 0
   393   00000B                     	ds	10
   394   000015                     _tris_registers:
   395                           	callstack 0
   396   000015                     	ds	10
   397   00001F                     _keypad1:
   398                           	callstack 0
   399   00001F                     	ds	8
   400   000027                     _lcd1:
   401                           	callstack 0
   402   000027                     	ds	6
   403   00002D                     _segment1:
   404                           	callstack 0
   405   00002D                     	ds	5
   406   000032                     _btn1:
   407                           	callstack 0
   408   000032                     	ds	3
   409   000035                     _motor1:
   410                           	callstack 0
   411   000035                     	ds	2
   412   000037                     _ret:
   413                           	callstack 0
   414   000037                     	ds	1
   415   000038                     _ccp:
   416                           	callstack 0
   417   000038                     	ds	5
   418   00003D                     _led1:
   419                           	callstack 0
   420   00003D                     	ds	1
   421                           
   422                           	psect	bssBANK0
   423   000080                     __pbssBANK0:
   424                           	callstack 0
   425   000080                     	ds	11
   426                           
   427                           	psect	dataBANK0
   428   00008B                     __pdataBANK0:
   429                           	callstack 0
   430   00008B                     _lcd2:
   431                           	callstack 0
   432   00008B                     	ds	10
   433                           
   434                           	psect	cstackBANK0
   435   000095                     __pcstackBANK0:
   436                           	callstack 0
   437   000095                     gpio_pin_initialize@ret:
   438                           	callstack 0
   439                           
   440                           ; 1 bytes @ 0x0
   441   000095                     	ds	1
   442   000096                     led_initialize@led:
   443                           	callstack 0
   444   000096                     ccp1_Init@_ccp_obj:
   445                           	callstack 0
   446                           
   447                           ; 1 bytes @ 0x1
   448   000096                     	ds	1
   449   000097                     ??_led_initialize:
   450   000097                     ccp1_Init@ret:
   451                           	callstack 0
   452                           
   453                           ; 1 bytes @ 0x2
   454   000097                     	ds	1
   455   000098                     led_initialize@ret:
   456                           	callstack 0
   457                           
   458                           ; 1 bytes @ 0x3
   459   000098                     	ds	1
   460   000099                     led_initialize@pin:
   461                           	callstack 0
   462                           
   463                           ; 1 bytes @ 0x4
   464   000099                     	ds	1
   465   00009A                     ecu_layer_initialize@ret_init:
   466                           	callstack 0
   467                           
   468                           ; 1 bytes @ 0x5
   469   00009A                     	ds	1
   470                           
   471                           	psect	cstackCOMRAM
   472   000065                     __pcstackCOMRAM:
   473                           	callstack 0
   474   000065                     timer1_Write_Value@_timer:
   475                           	callstack 0
   476   000065                     i2ccp1_Compare_Mode_Set_Value@_ccp_obj:
   477                           	callstack 0
   478                           
   479                           ; 1 bytes @ 0x0
   480   000065                     	ds	1
   481   000066                     timer1_Write_Value@_value:
   482                           	callstack 0
   483   000066                     i2ccp1_Compare_Mode_Set_Value@compare_value:
   484                           	callstack 0
   485                           
   486                           ; 2 bytes @ 0x1
   487   000066                     	ds	2
   488   000068                     timer1_Write_Value@ret:
   489                           	callstack 0
   490   000068                     i2ccp1_Compare_Mode_Set_Value@ret:
   491                           	callstack 0
   492                           
   493                           ; 1 bytes @ 0x3
   494   000068                     	ds	1
   495   000069                     i2ccp1_Compare_Mode_Set_Value@capture_temp_value:
   496                           	callstack 0
   497                           
   498                           ; 2 bytes @ 0x4
   499   000069                     	ds	2
   500   00006B                     ??_InterruptManager:
   501                           
   502                           ; 1 bytes @ 0x6
   503   00006B                     	ds	2
   504   00006D                     gpio_pin_direction_initialize@_pin_config:
   505                           	callstack 0
   506   00006D                     gpio_pin_write_logic@_pin_config:
   507                           	callstack 0
   508   00006D                     timer1_Mode_Select@_timer:
   509                           	callstack 0
   510   00006D                     timer1_RW_REG_Bit_Mode_Select@_timer:
   511                           	callstack 0
   512   00006D                     timer1_OSC_HW_Mode_Select@_timer:
   513                           	callstack 0
   514   00006D                     ccp1_Compare_Mode_Set_Value@_ccp_obj:
   515                           	callstack 0
   516   00006D                     ccp1_Compare_Mode_Config@_ccp_obj:
   517                           	callstack 0
   518   00006D                     ccp1_Interrupt_Config@_ccp_obj:
   519                           	callstack 0
   520   00006D                     ccp_Mode_Timer_Select@_ccp_obj:
   521                           	callstack 0
   522                           
   523                           ; 1 bytes @ 0x8
   524   00006D                     	ds	1
   525   00006E                     ??_gpio_pin_direction_initialize:
   526   00006E                     gpio_pin_write_logic@logic:
   527                           	callstack 0
   528   00006E                     timer1_Init@_timer:
   529                           	callstack 0
   530   00006E                     ccp1_Compare_Mode_Set_Value@compare_value:
   531                           	callstack 0
   532                           
   533                           ; 2 bytes @ 0x9
   534   00006E                     	ds	1
   535   00006F                     ??_gpio_pin_write_logic:
   536   00006F                     ??_timer1_Init:
   537                           
   538                           ; 1 bytes @ 0xA
   539   00006F                     	ds	1
   540   000070                     ccp1_Compare_Mode_Set_Value@ret:
   541                           	callstack 0
   542                           
   543                           ; 1 bytes @ 0xB
   544   000070                     	ds	1
   545   000071                     timer1_Init@ret:
   546                           	callstack 0
   547   000071                     ccp1_Compare_Mode_Set_Value@capture_temp_value:
   548                           	callstack 0
   549                           
   550                           ; 2 bytes @ 0xC
   551   000071                     	ds	2
   552   000073                     gpio_pin_direction_initialize@ret:
   553                           	callstack 0
   554                           
   555                           ; 1 bytes @ 0xE
   556   000073                     	ds	1
   557   000074                     gpio_pin_write_logic@ret:
   558                           	callstack 0
   559                           
   560                           ; 1 bytes @ 0xF
   561   000074                     	ds	1
   562   000075                     gpio_pin_initialize@_pin_config:
   563                           	callstack 0
   564                           
   565                           ; 1 bytes @ 0x10
   566   000075                     	ds	1
   567   000076                     ??_gpio_pin_initialize:
   568                           
   569                           ; 1 bytes @ 0x11
   570   000076                     	ds	1
   571   000077                     
   572                           ; 1 bytes @ 0x12
   573 ;;
   574 ;;Main: autosize = 0, tempsize = 0, incstack = 0, save=0
   575 ;;
   576 ;; *************** function _main *****************
   577 ;; Defined at:
   578 ;;		line 46 in file "Application1.c"
   579 ;; Parameters:    Size  Location     Type
   580 ;;		None
   581 ;; Auto vars:     Size  Location     Type
   582 ;;		None
   583 ;; Return value:  Size  Location     Type
   584 ;;                  2  874[None  ] int 
   585 ;; Registers used:
   586 ;;		wreg, fsr2l, fsr2h, status,2, status,0, prodl, prodh, cstack
   587 ;; Tracked objects:
   588 ;;		On entry : 0/0
   589 ;;		On exit  : 0/0
   590 ;;		Unchanged: 0/0
   591 ;; Data sizes:     COMRAM   BANK0   BANK1   BANK2   BANK3   BANK4   BANK5   BANK6   BANK7   BANK8   BANK9  BANK10  BANK1
      +1  BANK12  BANK13  BANK14  BANK15
   592 ;;      Params:         0       0       0       0       0       0       0       0       0       0       0       0       
      +0       0       0       0       0
   593 ;;      Locals:         0       0       0       0       0       0       0       0       0       0       0       0       
      +0       0       0       0       0
   594 ;;      Temps:          0       0       0       0       0       0       0       0       0       0       0       0       
      +0       0       0       0       0
   595 ;;      Totals:         0       0       0       0       0       0       0       0       0       0       0       0       
      +0       0       0       0       0
   596 ;;Total ram usage:        0 bytes
   597 ;; Hardware stack levels required when called: 9
   598 ;; This function calls:
   599 ;;		_application_initialize
   600 ;;		_ccp1_Compare_Mode_Set_Value
   601 ;; This function is called by:
   602 ;;		Startup code after reset
   603 ;; This function uses a non-reentrant model
   604 ;;
   605                           
   606                           	psect	text0
   607   001874                     __ptext0:
   608                           	callstack 0
   609   001874                     _main:
   610                           	callstack 22
   611   001874                     
   612                           ;Application1.c: 48:     application_initialize();
   613   001874  EC57  F00C         	call	_application_initialize	;wreg free
   614   001878                     
   615                           ;Application1.c: 49:     ret = ccp1_Compare_Mode_Set_Value(&ccp,37500);
   616   001878  0E38               	movlw	low _ccp
   617   00187A  6E6D               	movwf	ccp1_Compare_Mode_Set_Value@_ccp_obj^0,c
   618   00187C  0E92               	movlw	146
   619   00187E  6E6F               	movwf	(ccp1_Compare_Mode_Set_Value@compare_value+1)^0,c
   620   001880  0E7C               	movlw	124
   621   001882  6E6E               	movwf	ccp1_Compare_Mode_Set_Value@compare_value^0,c
   622   001884  ECDF  F00B         	call	_ccp1_Compare_Mode_Set_Value	;wreg free
   623   001888  6E37               	movwf	_ret^0,c
   624   00188A                     l875:
   625   00188A  EF45  F00C         	goto	l875
   626   00188E  EF07  F000         	goto	start
   627   001892                     __end_of_main:
   628                           	callstack 0
   629                           
   630 ;; *************** function _ccp1_Compare_Mode_Set_Value *****************
   631 ;; Defined at:
   632 ;;		line 216 in file "MCAL_Layer/CCP/mcal_ccp.c"
   633 ;; Parameters:    Size  Location     Type
   634 ;;  _ccp_obj        1    8[COMRAM] PTR const struct .
   635 ;;		 -> ccp(5), 
   636 ;;  compare_valu    2    9[COMRAM] unsigned short 
   637 ;; Auto vars:     Size  Location     Type
   638 ;;  capture_temp    2   12[COMRAM] struct .
   639 ;;  ret             1   11[COMRAM] unsigned char 
   640 ;; Return value:  Size  Location     Type
   641 ;;                  1    wreg      unsigned char 
   642 ;; Registers used:
   643 ;;		wreg, status,2
   644 ;; Tracked objects:
   645 ;;		On entry : 0/0
   646 ;;		On exit  : 0/0
   647 ;;		Unchanged: 0/0
   648 ;; Data sizes:     COMRAM   BANK0   BANK1   BANK2   BANK3   BANK4   BANK5   BANK6   BANK7   BANK8   BANK9  BANK10  BANK1
      +1  BANK12  BANK13  BANK14  BANK15
   649 ;;      Params:         3       0       0       0       0       0       0       0       0       0       0       0       
      +0       0       0       0       0
   650 ;;      Locals:         3       0       0       0       0       0       0       0       0       0       0       0       
      +0       0       0       0       0
   651 ;;      Temps:          0       0       0       0       0       0       0       0       0       0       0       0       
      +0       0       0       0       0
   652 ;;      Totals:         6       0       0       0       0       0       0       0       0       0       0       0       
      +0       0       0       0       0
   653 ;;Total ram usage:        6 bytes
   654 ;; Hardware stack levels used: 1
   655 ;; Hardware stack levels required when called: 4
   656 ;; This function calls:
   657 ;;		Nothing
   658 ;; This function is called by:
   659 ;;		_main
   660 ;; This function uses a non-reentrant model
   661 ;;
   662                           
   663                           	psect	text1
   664   0017BE                     __ptext1:
   665                           	callstack 0
   666   0017BE                     _ccp1_Compare_Mode_Set_Value:
   667                           	callstack 26
   668   0017BE                     
   669                           ;MCAL_Layer/CCP/mcal_ccp.c: 216:         Std_ReturnType ccp1_Compare_Mode_Set_Value(cons
      +                          t ccp_config_t *_ccp_obj, uint16 compare_value);MCAL_Layer/CCP/mcal_ccp.c: 217:         
      +                          {;MCAL_Layer/CCP/mcal_ccp.c: 218:             Std_ReturnType ret = (Std_ReturnType)0x01;
   670   0017BE  0E01               	movlw	1
   671   0017C0  6E70               	movwf	ccp1_Compare_Mode_Set_Value@ret^0,c
   672   0017C2                     
   673                           ;MCAL_Layer/CCP/mcal_ccp.c: 221:             if(((void*)0) != _ccp_obj)
   674   0017C2  506D               	movf	ccp1_Compare_Mode_Set_Value@_ccp_obj^0,w,c
   675   0017C4  B4D8               	btfsc	status,2,c
   676   0017C6  EFE7  F00B         	goto	u2621
   677   0017CA  EFE9  F00B         	goto	u2620
   678   0017CE                     u2621:
   679   0017CE  EFF3  F00B         	goto	l3773
   680   0017D2                     u2620:
   681   0017D2                     
   682                           ;MCAL_Layer/CCP/mcal_ccp.c: 222:             {;MCAL_Layer/CCP/mcal_ccp.c: 224:          
      +                                 capture_temp_value.ccpr_16Bit = compare_value;
   683   0017D2  C06E  F071         	movff	ccp1_Compare_Mode_Set_Value@compare_value,ccp1_Compare_Mode_Set_Value@capture_tem
      +                          p_value
   684   0017D6  C06F  F072         	movff	ccp1_Compare_Mode_Set_Value@compare_value+1,ccp1_Compare_Mode_Set_Value@capture_t
      +                          emp_value+1
   685                           
   686                           ;MCAL_Layer/CCP/mcal_ccp.c: 225:                 CCPR1L = capture_temp_value.ccpr_low;
   687   0017DA  C071  FFBE         	movff	ccp1_Compare_Mode_Set_Value@capture_temp_value,4030	;volatile
   688                           
   689                           ;MCAL_Layer/CCP/mcal_ccp.c: 226:                 CCPR1H = capture_temp_value.ccpr_high;
   690   0017DE  C072  FFBF         	movff	ccp1_Compare_Mode_Set_Value@capture_temp_value+1,4031	;volatile
   691                           
   692                           ;MCAL_Layer/CCP/mcal_ccp.c: 227:             }
   693   0017E2  EFF5  F00B         	goto	l940
   694   0017E6                     l3773:
   695   0017E6  0E00               	movlw	0
   696   0017E8  6E70               	movwf	ccp1_Compare_Mode_Set_Value@ret^0,c
   697   0017EA                     l940:
   698                           
   699                           ;MCAL_Layer/CCP/mcal_ccp.c: 230:             return ret;
   700   0017EA  5070               	movf	ccp1_Compare_Mode_Set_Value@ret^0,w,c
   701   0017EC  0012               	return		;funcret
   702   0017EE                     __end_of_ccp1_Compare_Mode_Set_Value:
   703                           	callstack 0
   704                           
   705 ;; *************** function _application_initialize *****************
   706 ;; Defined at:
   707 ;;		line 58 in file "Application1.c"
   708 ;; Parameters:    Size  Location     Type
   709 ;;		None
   710 ;; Auto vars:     Size  Location     Type
   711 ;;  ret_init        1    0        unsigned char 
   712 ;; Return value:  Size  Location     Type
   713 ;;                  1    wreg      void 
   714 ;; Registers used:
   715 ;;		wreg, fsr2l, fsr2h, status,2, status,0, prodl, prodh, cstack
   716 ;; Tracked objects:
   717 ;;		On entry : 0/0
   718 ;;		On exit  : 0/0
   719 ;;		Unchanged: 0/0
   720 ;; Data sizes:     COMRAM   BANK0   BANK1   BANK2   BANK3   BANK4   BANK5   BANK6   BANK7   BANK8   BANK9  BANK10  BANK1
      +1  BANK12  BANK13  BANK14  BANK15
   721 ;;      Params:         0       0       0       0       0       0       0       0       0       0       0       0       
      +0       0       0       0       0
   722 ;;      Locals:         0       0       0       0       0       0       0       0       0       0       0       0       
      +0       0       0       0       0
   723 ;;      Temps:          0       0       0       0       0       0       0       0       0       0       0       0       
      +0       0       0       0       0
   724 ;;      Totals:         0       0       0       0       0       0       0       0       0       0       0       0       
      +0       0       0       0       0
   725 ;;Total ram usage:        0 bytes
   726 ;; Hardware stack levels used: 1
   727 ;; Hardware stack levels required when called: 8
   728 ;; This function calls:
   729 ;;		_ccp1_Init
   730 ;;		_ecu_layer_initialize
   731 ;;		_timer1_Init
   732 ;; This function is called by:
   733 ;;		_main
   734 ;; This function uses a non-reentrant model
   735 ;;
   736                           
   737                           	psect	text2
   738   0018AE                     __ptext2:
   739                           	callstack 0
   740   0018AE                     _application_initialize:
   741                           	callstack 22
   742   0018AE  EC63  F00C         	call	_ecu_layer_initialize	;wreg free
   743   0018B2  0E60               	movlw	low _timer1
   744   0018B4  6E6E               	movwf	timer1_Init@_timer^0,c
   745   0018B6  EC46  F009         	call	_timer1_Init	;wreg free
   746   0018BA  0E38               	movlw	low _ccp
   747   0018BC  0100               	movlb	0	; () banked
   748   0018BE  6F96               	movwf	ccp1_Init@_ccp_obj& (0+255),b
   749   0018C0  EC62  F00B         	call	_ccp1_Init	;wreg free
   750   0018C4  0012               	return		;funcret
   751   0018C6                     __end_of_application_initialize:
   752                           	callstack 0
   753                           
   754 ;; *************** function _timer1_Init *****************
   755 ;; Defined at:
   756 ;;		line 27 in file "MCAL_Layer/Timer1/mcal_timer1.c"
   757 ;; Parameters:    Size  Location     Type
   758 ;;  _timer          1    9[COMRAM] PTR const struct .
   759 ;;		 -> timer1(5), 
   760 ;; Auto vars:     Size  Location     Type
   761 ;;  ret             1   12[COMRAM] unsigned char 
   762 ;; Return value:  Size  Location     Type
   763 ;;                  1    wreg      unsigned char 
   764 ;; Registers used:
   765 ;;		wreg, fsr2l, fsr2h, status,2, status,0, cstack
   766 ;; Tracked objects:
   767 ;;		On entry : 0/0
   768 ;;		On exit  : 0/0
   769 ;;		Unchanged: 0/0
   770 ;; Data sizes:     COMRAM   BANK0   BANK1   BANK2   BANK3   BANK4   BANK5   BANK6   BANK7   BANK8   BANK9  BANK10  BANK1
      +1  BANK12  BANK13  BANK14  BANK15
   771 ;;      Params:         1       0       0       0       0       0       0       0       0       0       0       0       
      +0       0       0       0       0
   772 ;;      Locals:         1       0       0       0       0       0       0       0       0       0       0       0       
      +0       0       0       0       0
   773 ;;      Temps:          2       0       0       0       0       0       0       0       0       0       0       0       
      +0       0       0       0       0
   774 ;;      Totals:         4       0       0       0       0       0       0       0       0       0       0       0       
      +0       0       0       0       0
   775 ;;Total ram usage:        4 bytes
   776 ;; Hardware stack levels used: 1
   777 ;; Hardware stack levels required when called: 5
   778 ;; This function calls:
   779 ;;		_global_interrupt_Enable
   780 ;;		_timer1_Mode_Select
   781 ;;		_timer1_OSC_HW_Mode_Select
   782 ;;		_timer1_RW_REG_Bit_Mode_Select
   783 ;; This function is called by:
   784 ;;		_application_initialize
   785 ;; This function uses a non-reentrant model
   786 ;;
   787                           
   788                           	psect	text3
   789   00128C                     __ptext3:
   790                           	callstack 0
   791   00128C                     _timer1_Init:
   792                           	callstack 24
   793   00128C                     
   794                           ;MCAL_Layer/Timer1/mcal_timer1.c: 27: Std_ReturnType timer1_Init(const timer1_config_t *
      +                          _timer);MCAL_Layer/Timer1/mcal_timer1.c: 28: {;MCAL_Layer/Timer1/mcal_timer1.c: 29:     
      +                          Std_ReturnType ret = (Std_ReturnType)0x01;
   795   00128C  0E01               	movlw	1
   796   00128E  6E71               	movwf	timer1_Init@ret^0,c
   797                           
   798                           ;MCAL_Layer/Timer1/mcal_timer1.c: 31:     if (((void*)0) != _timer)
   799   001290  506E               	movf	timer1_Init@_timer^0,w,c
   800   001292  B4D8               	btfsc	status,2,c
   801   001294  EF4E  F009         	goto	u3521
   802   001298  EF50  F009         	goto	u3520
   803   00129C                     u3521:
   804   00129C  EF97  F009         	goto	l4607
   805   0012A0                     u3520:
   806   0012A0                     
   807                           ;MCAL_Layer/Timer1/mcal_timer1.c: 32:     {;MCAL_Layer/Timer1/mcal_timer1.c: 34:        
      +                           (T1CONbits.TMR1ON = 0);
   808   0012A0  90CD               	bcf	205,0,c	;volatile
   809   0012A2                     
   810                           ;MCAL_Layer/Timer1/mcal_timer1.c: 36:         timer1_Mode_Select(_timer);
   811   0012A2  C06E  F06D         	movff	timer1_Init@_timer,timer1_Mode_Select@_timer
   812   0012A6  EC1A  F00A         	call	_timer1_Mode_Select	;wreg free
   813                           
   814                           ;MCAL_Layer/Timer1/mcal_timer1.c: 37:         timer1_RW_REG_Bit_Mode_Select(_timer);
   815   0012AA  C06E  F06D         	movff	timer1_Init@_timer,timer1_RW_REG_Bit_Mode_Select@_timer
   816   0012AE  ECA5  F00B         	call	_timer1_RW_REG_Bit_Mode_Select	;wreg free
   817                           
   818                           ;MCAL_Layer/Timer1/mcal_timer1.c: 38:         timer1_OSC_HW_Mode_Select(_timer);
   819   0012B2  C06E  F06D         	movff	timer1_Init@_timer,timer1_OSC_HW_Mode_Select@_timer
   820   0012B6  ECC2  F00B         	call	_timer1_OSC_HW_Mode_Select	;wreg free
   821   0012BA                     
   822                           ;MCAL_Layer/Timer1/mcal_timer1.c: 40:         (T1CONbits.T1CKPS = _timer->timer1_prescal
      +                          er_value);
   823   0012BA  506E               	movf	timer1_Init@_timer^0,w,c
   824   0012BC  6ED9               	movwf	fsr2l,c
   825   0012BE  6ADA               	clrf	fsr2h,c
   826   0012C0  0E04               	movlw	4
   827   0012C2  26D9               	addwf	fsr2l,f,c
   828   0012C4  50DF               	movf	223,w,c
   829   0012C6  0B03               	andlw	3
   830   0012C8  6E6F               	movwf	??_timer1_Init^0,c
   831   0012CA  3A6F               	swapf	??_timer1_Init^0,f,c
   832   0012CC  50CD               	movf	205,w,c	;volatile
   833   0012CE  186F               	xorwf	??_timer1_Init^0,w,c
   834   0012D0  0BCF               	andlw	-49
   835   0012D2  186F               	xorwf	??_timer1_Init^0,w,c
   836   0012D4  6ECD               	movwf	205,c	;volatile
   837   0012D6                     
   838                           ;MCAL_Layer/Timer1/mcal_timer1.c: 42:         TMR0H = (_timer->timer1_preload_value) >> 
      +                          8;
   839   0012D6  506E               	movf	timer1_Init@_timer^0,w,c
   840   0012D8  6ED9               	movwf	fsr2l,c
   841   0012DA  6ADA               	clrf	fsr2h,c
   842   0012DC  0E02               	movlw	2
   843   0012DE  26D9               	addwf	fsr2l,f,c
   844   0012E0  CFDE F06F          	movff	postinc2,??_timer1_Init
   845   0012E4  CFDD F070          	movff	postdec2,??_timer1_Init+1
   846   0012E8  C070  F06F         	movff	??_timer1_Init+1,??_timer1_Init
   847   0012EC  6A70               	clrf	(??_timer1_Init+1)^0,c
   848   0012EE  506F               	movf	??_timer1_Init^0,w,c
   849   0012F0  6ED7               	movwf	215,c	;volatile
   850   0012F2                     
   851                           ;MCAL_Layer/Timer1/mcal_timer1.c: 43:         TMR0L = (uint8) (_timer->timer1_preload_va
      +                          lue);
   852   0012F2  506E               	movf	timer1_Init@_timer^0,w,c
   853   0012F4  6ED9               	movwf	fsr2l,c
   854   0012F6  6ADA               	clrf	fsr2h,c
   855   0012F8  0E02               	movlw	2
   856   0012FA  26D9               	addwf	fsr2l,f,c
   857   0012FC  50DF               	movf	indf2,w,c
   858   0012FE  6ED6               	movwf	214,c	;volatile
   859   001300                     
   860                           ;MCAL_Layer/Timer1/mcal_timer1.c: 45:         timer1_preload = _timer->timer1_preload_va
      +                          lue;
   861   001300  506E               	movf	timer1_Init@_timer^0,w,c
   862   001302  6ED9               	movwf	fsr2l,c
   863   001304  6ADA               	clrf	fsr2h,c
   864   001306  0E02               	movlw	2
   865   001308  26D9               	addwf	fsr2l,f,c
   866   00130A  CFDE F050          	movff	postinc2,_timer1_preload
   867   00130E  CFDD F051          	movff	postdec2,_timer1_preload+1
   868   001312                     
   869                           ;MCAL_Layer/Timer1/mcal_timer1.c: 48:         TIMER1_InterruptHandler = _timer->TIMER1_I
      +                          nterruptHandler;
   870   001312  506E               	movf	timer1_Init@_timer^0,w,c
   871   001314  6ED9               	movwf	fsr2l,c
   872   001316  6ADA               	clrf	fsr2h,c
   873   001318  CFDE F052          	movff	postinc2,_TIMER1_InterruptHandler
   874   00131C  CFDD F053          	movff	postdec2,_TIMER1_InterruptHandler+1
   875   001320                     
   876                           ;MCAL_Layer/Timer1/mcal_timer1.c: 61:         (PIR1bits.TMR1IF = 0);
   877   001320  909E               	bcf	158,0,c	;volatile
   878   001322                     
   879                           ;MCAL_Layer/Timer1/mcal_timer1.c: 62:         (PIE1bits.TMR1IE = 1);
   880   001322  809D               	bsf	157,0,c	;volatile
   881   001324                     
   882                           ;MCAL_Layer/Timer1/mcal_timer1.c: 63:         global_interrupt_Enable();
   883   001324  EC77  F00C         	call	_global_interrupt_Enable	;wreg free
   884   001328                     
   885                           ;MCAL_Layer/Timer1/mcal_timer1.c: 66:         (T1CONbits.TMR1ON = 1);
   886   001328  80CD               	bsf	205,0,c	;volatile
   887                           
   888                           ;MCAL_Layer/Timer1/mcal_timer1.c: 67:     }
   889   00132A  EF99  F009         	goto	l726
   890   00132E                     l4607:
   891   00132E  0E00               	movlw	0
   892   001330  6E71               	movwf	timer1_Init@ret^0,c
   893   001332                     l726:
   894                           
   895                           ;MCAL_Layer/Timer1/mcal_timer1.c: 70:     return ret;
   896   001332  5071               	movf	timer1_Init@ret^0,w,c
   897   001334  0012               	return		;funcret
   898   001336                     __end_of_timer1_Init:
   899                           	callstack 0
   900                           
   901 ;; *************** function _timer1_RW_REG_Bit_Mode_Select *****************
   902 ;; Defined at:
   903 ;;		line 149 in file "MCAL_Layer/Timer1/mcal_timer1.c"
   904 ;; Parameters:    Size  Location     Type
   905 ;;  _timer          1    8[COMRAM] PTR const struct .
   906 ;;		 -> timer1(5), 
   907 ;; Auto vars:     Size  Location     Type
   908 ;;		None
   909 ;; Return value:  Size  Location     Type
   910 ;;                  1    wreg      void 
   911 ;; Registers used:
   912 ;;		wreg, fsr2l, fsr2h, status,2, status,0
   913 ;; Tracked objects:
   914 ;;		On entry : 0/0
   915 ;;		On exit  : 0/0
   916 ;;		Unchanged: 0/0
   917 ;; Data sizes:     COMRAM   BANK0   BANK1   BANK2   BANK3   BANK4   BANK5   BANK6   BANK7   BANK8   BANK9  BANK10  BANK1
      +1  BANK12  BANK13  BANK14  BANK15
   918 ;;      Params:         1       0       0       0       0       0       0       0       0       0       0       0       
      +0       0       0       0       0
   919 ;;      Locals:         0       0       0       0       0       0       0       0       0       0       0       0       
      +0       0       0       0       0
   920 ;;      Temps:          0       0       0       0       0       0       0       0       0       0       0       0       
      +0       0       0       0       0
   921 ;;      Totals:         1       0       0       0       0       0       0       0       0       0       0       0       
      +0       0       0       0       0
   922 ;;Total ram usage:        1 bytes
   923 ;; Hardware stack levels used: 1
   924 ;; Hardware stack levels required when called: 4
   925 ;; This function calls:
   926 ;;		Nothing
   927 ;; This function is called by:
   928 ;;		_timer1_Init
   929 ;; This function uses a non-reentrant model
   930 ;;
   931                           
   932                           	psect	text4
   933   00174A                     __ptext4:
   934                           	callstack 0
   935   00174A                     _timer1_RW_REG_Bit_Mode_Select:
   936                           	callstack 24
   937   00174A                     
   938                           ;MCAL_Layer/Timer1/mcal_timer1.c: 149: static __attribute__((inline)) void timer1_RW_REG
      +                          _Bit_Mode_Select(const timer1_config_t *_timer);MCAL_Layer/Timer1/mcal_timer1.c: 150: {;
      +                          MCAL_Layer/Timer1/mcal_timer1.c: 151:     if(0 == _timer->timer1_reg_wr_mode)
   939   00174A  506D               	movf	timer1_RW_REG_Bit_Mode_Select@_timer^0,w,c
   940   00174C  6ED9               	movwf	fsr2l,c
   941   00174E  6ADA               	clrf	fsr2h,c
   942   001750  0E04               	movlw	4
   943   001752  26D9               	addwf	fsr2l,f,c
   944   001754  BADF               	btfsc	indf2,5,c
   945   001756  EFAF  F00B         	goto	u2261
   946   00175A  EFB1  F00B         	goto	u2260
   947   00175E                     u2261:
   948   00175E  EFB4  F00B         	goto	l3449
   949   001762                     u2260:
   950   001762                     
   951                           ;MCAL_Layer/Timer1/mcal_timer1.c: 152:     {;MCAL_Layer/Timer1/mcal_timer1.c: 153:      
      +                             (T1CONbits.RD16 = 0);
   952   001762  9ECD               	bcf	205,7,c	;volatile
   953                           
   954                           ;MCAL_Layer/Timer1/mcal_timer1.c: 154:     }
   955   001764  EFC1  F00B         	goto	l760
   956   001768                     l3449:
   957   001768  506D               	movf	timer1_RW_REG_Bit_Mode_Select@_timer^0,w,c
   958   00176A  6ED9               	movwf	fsr2l,c
   959   00176C  6ADA               	clrf	fsr2h,c
   960   00176E  0E04               	movlw	4
   961   001770  26D9               	addwf	fsr2l,f,c
   962   001772  AADF               	btfss	indf2,5,c
   963   001774  EFBE  F00B         	goto	u2271
   964   001778  EFC0  F00B         	goto	u2270
   965   00177C                     u2271:
   966   00177C  EFC1  F00B         	goto	l760
   967   001780                     u2270:
   968   001780                     
   969                           ;MCAL_Layer/Timer1/mcal_timer1.c: 156:     {;MCAL_Layer/Timer1/mcal_timer1.c: 157:      
      +                             (T1CONbits.RD16 = 1);
   970   001780  8ECD               	bsf	205,7,c	;volatile
   971   001782                     l760:
   972   001782  0012               	return		;funcret
   973   001784                     __end_of_timer1_RW_REG_Bit_Mode_Select:
   974                           	callstack 0
   975                           
   976 ;; *************** function _timer1_OSC_HW_Mode_Select *****************
   977 ;; Defined at:
   978 ;;		line 163 in file "MCAL_Layer/Timer1/mcal_timer1.c"
   979 ;; Parameters:    Size  Location     Type
   980 ;;  _timer          1    8[COMRAM] PTR const struct .
   981 ;;		 -> timer1(5), 
   982 ;; Auto vars:     Size  Location     Type
   983 ;;		None
   984 ;; Return value:  Size  Location     Type
   985 ;;                  1    wreg      void 
   986 ;; Registers used:
   987 ;;		wreg, fsr2l, fsr2h, status,2, status,0
   988 ;; Tracked objects:
   989 ;;		On entry : 0/0
   990 ;;		On exit  : 0/0
   991 ;;		Unchanged: 0/0
   992 ;; Data sizes:     COMRAM   BANK0   BANK1   BANK2   BANK3   BANK4   BANK5   BANK6   BANK7   BANK8   BANK9  BANK10  BANK1
      +1  BANK12  BANK13  BANK14  BANK15
   993 ;;      Params:         1       0       0       0       0       0       0       0       0       0       0       0       
      +0       0       0       0       0
   994 ;;      Locals:         0       0       0       0       0       0       0       0       0       0       0       0       
      +0       0       0       0       0
   995 ;;      Temps:          0       0       0       0       0       0       0       0       0       0       0       0       
      +0       0       0       0       0
   996 ;;      Totals:         1       0       0       0       0       0       0       0       0       0       0       0       
      +0       0       0       0       0
   997 ;;Total ram usage:        1 bytes
   998 ;; Hardware stack levels used: 1
   999 ;; Hardware stack levels required when called: 4
  1000 ;; This function calls:
  1001 ;;		Nothing
  1002 ;; This function is called by:
  1003 ;;		_timer1_Init
  1004 ;; This function uses a non-reentrant model
  1005 ;;
  1006                           
  1007                           	psect	text5
  1008   001784                     __ptext5:
  1009                           	callstack 0
  1010   001784                     _timer1_OSC_HW_Mode_Select:
  1011                           	callstack 24
  1012   001784                     
  1013                           ;MCAL_Layer/Timer1/mcal_timer1.c: 163: static __attribute__((inline)) void timer1_OSC_HW
      +                          _Mode_Select(const timer1_config_t *_timer);MCAL_Layer/Timer1/mcal_timer1.c: 164: {;MCAL
      +                          _Layer/Timer1/mcal_timer1.c: 165:     if(1 == _timer->timer1_osc_cfg)
  1014   001784  506D               	movf	timer1_OSC_HW_Mode_Select@_timer^0,w,c
  1015   001786  6ED9               	movwf	fsr2l,c
  1016   001788  6ADA               	clrf	fsr2h,c
  1017   00178A  0E04               	movlw	4
  1018   00178C  26D9               	addwf	fsr2l,f,c
  1019   00178E  A8DF               	btfss	indf2,4,c
  1020   001790  EFCC  F00B         	goto	u2281
  1021   001794  EFCE  F00B         	goto	u2280
  1022   001798                     u2281:
  1023   001798  EFD1  F00B         	goto	l3457
  1024   00179C                     u2280:
  1025   00179C                     
  1026                           ;MCAL_Layer/Timer1/mcal_timer1.c: 166:     {;MCAL_Layer/Timer1/mcal_timer1.c: 167:      
      +                             (T1CONbits.T1OSCEN = 1);
  1027   00179C  86CD               	bsf	205,3,c	;volatile
  1028                           
  1029                           ;MCAL_Layer/Timer1/mcal_timer1.c: 168:     }
  1030   00179E  EFDE  F00B         	goto	l767
  1031   0017A2                     l3457:
  1032   0017A2  506D               	movf	timer1_OSC_HW_Mode_Select@_timer^0,w,c
  1033   0017A4  6ED9               	movwf	fsr2l,c
  1034   0017A6  6ADA               	clrf	fsr2h,c
  1035   0017A8  0E04               	movlw	4
  1036   0017AA  26D9               	addwf	fsr2l,f,c
  1037   0017AC  B8DF               	btfsc	indf2,4,c
  1038   0017AE  EFDB  F00B         	goto	u2291
  1039   0017B2  EFDD  F00B         	goto	u2290
  1040   0017B6                     u2291:
  1041   0017B6  EFDE  F00B         	goto	l767
  1042   0017BA                     u2290:
  1043   0017BA                     
  1044                           ;MCAL_Layer/Timer1/mcal_timer1.c: 170:     {;MCAL_Layer/Timer1/mcal_timer1.c: 171:      
      +                             (T1CONbits.T1OSCEN = 0);
  1045   0017BA  96CD               	bcf	205,3,c	;volatile
  1046   0017BC                     l767:
  1047   0017BC  0012               	return		;funcret
  1048   0017BE                     __end_of_timer1_OSC_HW_Mode_Select:
  1049                           	callstack 0
  1050                           
  1051 ;; *************** function _timer1_Mode_Select *****************
  1052 ;; Defined at:
  1053 ;;		line 126 in file "MCAL_Layer/Timer1/mcal_timer1.c"
  1054 ;; Parameters:    Size  Location     Type
  1055 ;;  _timer          1    8[COMRAM] PTR const struct .
  1056 ;;		 -> timer1(5), 
  1057 ;; Auto vars:     Size  Location     Type
  1058 ;;		None
  1059 ;; Return value:  Size  Location     Type
  1060 ;;                  1    wreg      void 
  1061 ;; Registers used:
  1062 ;;		wreg, fsr2l, fsr2h, status,2, status,0
  1063 ;; Tracked objects:
  1064 ;;		On entry : 0/0
  1065 ;;		On exit  : 0/0
  1066 ;;		Unchanged: 0/0
  1067 ;; Data sizes:     COMRAM   BANK0   BANK1   BANK2   BANK3   BANK4   BANK5   BANK6   BANK7   BANK8   BANK9  BANK10  BANK1
      +1  BANK12  BANK13  BANK14  BANK15
  1068 ;;      Params:         1       0       0       0       0       0       0       0       0       0       0       0       
      +0       0       0       0       0
  1069 ;;      Locals:         0       0       0       0       0       0       0       0       0       0       0       0       
      +0       0       0       0       0
  1070 ;;      Temps:          0       0       0       0       0       0       0       0       0       0       0       0       
      +0       0       0       0       0
  1071 ;;      Totals:         1       0       0       0       0       0       0       0       0       0       0       0       
      +0       0       0       0       0
  1072 ;;Total ram usage:        1 bytes
  1073 ;; Hardware stack levels used: 1
  1074 ;; Hardware stack levels required when called: 4
  1075 ;; This function calls:
  1076 ;;		Nothing
  1077 ;; This function is called by:
  1078 ;;		_timer1_Init
  1079 ;; This function uses a non-reentrant model
  1080 ;;
  1081                           
  1082                           	psect	text6
  1083   001434                     __ptext6:
  1084                           	callstack 0
  1085   001434                     _timer1_Mode_Select:
  1086                           	callstack 24
  1087   001434                     
  1088                           ;MCAL_Layer/Timer1/mcal_timer1.c: 126: static __attribute__((inline)) void timer1_Mode_S
      +                          elect(const timer1_config_t *_timer);MCAL_Layer/Timer1/mcal_timer1.c: 127: {;MCAL_Layer/
      +                          Timer1/mcal_timer1.c: 128:     if(0 == _timer->timer1_mode)
  1089   001434  506D               	movf	timer1_Mode_Select@_timer^0,w,c
  1090   001436  6ED9               	movwf	fsr2l,c
  1091   001438  6ADA               	clrf	fsr2h,c
  1092   00143A  0E04               	movlw	4
  1093   00143C  26D9               	addwf	fsr2l,f,c
  1094   00143E  B4DF               	btfsc	indf2,2,c
  1095   001440  EF24  F00A         	goto	u2221
  1096   001444  EF26  F00A         	goto	u2220
  1097   001448                     u2221:
  1098   001448  EF29  F00A         	goto	l3431
  1099   00144C                     u2220:
  1100   00144C                     
  1101                           ;MCAL_Layer/Timer1/mcal_timer1.c: 129:     {;MCAL_Layer/Timer1/mcal_timer1.c: 130:      
      +                             (T1CONbits.TMR1CS = 0);
  1102   00144C  92CD               	bcf	205,1,c	;volatile
  1103                           
  1104                           ;MCAL_Layer/Timer1/mcal_timer1.c: 131:     }
  1105   00144E  EF55  F00A         	goto	l753
  1106   001452                     l3431:
  1107   001452  506D               	movf	timer1_Mode_Select@_timer^0,w,c
  1108   001454  6ED9               	movwf	fsr2l,c
  1109   001456  6ADA               	clrf	fsr2h,c
  1110   001458  0E04               	movlw	4
  1111   00145A  26D9               	addwf	fsr2l,f,c
  1112   00145C  A4DF               	btfss	indf2,2,c
  1113   00145E  EF33  F00A         	goto	u2231
  1114   001462  EF35  F00A         	goto	u2230
  1115   001466                     u2231:
  1116   001466  EF55  F00A         	goto	l753
  1117   00146A                     u2230:
  1118   00146A                     
  1119                           ;MCAL_Layer/Timer1/mcal_timer1.c: 133:     {;MCAL_Layer/Timer1/mcal_timer1.c: 134:      
      +                             (T1CONbits.TMR1CS = 1);
  1120   00146A  82CD               	bsf	205,1,c	;volatile
  1121   00146C                     
  1122                           ;MCAL_Layer/Timer1/mcal_timer1.c: 135:         (TRISC |= ((uint8)0x01 << 0x0));
  1123   00146C  8094               	bsf	148,0,c	;volatile
  1124   00146E                     
  1125                           ;MCAL_Layer/Timer1/mcal_timer1.c: 136:         if(1 == _timer->timer1_counter_mode)
  1126   00146E  506D               	movf	timer1_Mode_Select@_timer^0,w,c
  1127   001470  6ED9               	movwf	fsr2l,c
  1128   001472  6ADA               	clrf	fsr2h,c
  1129   001474  0E04               	movlw	4
  1130   001476  26D9               	addwf	fsr2l,f,c
  1131   001478  A6DF               	btfss	indf2,3,c
  1132   00147A  EF41  F00A         	goto	u2241
  1133   00147E  EF43  F00A         	goto	u2240
  1134   001482                     u2241:
  1135   001482  EF46  F00A         	goto	l3441
  1136   001486                     u2240:
  1137   001486                     
  1138                           ;MCAL_Layer/Timer1/mcal_timer1.c: 137:         {;MCAL_Layer/Timer1/mcal_timer1.c: 138:  
      +                                     (T1CONbits.T1SYNC = 1);
  1139   001486  84CD               	bsf	205,2,c	;volatile
  1140                           
  1141                           ;MCAL_Layer/Timer1/mcal_timer1.c: 139:         }
  1142   001488  EF55  F00A         	goto	l753
  1143   00148C                     l3441:
  1144   00148C  506D               	movf	timer1_Mode_Select@_timer^0,w,c
  1145   00148E  6ED9               	movwf	fsr2l,c
  1146   001490  6ADA               	clrf	fsr2h,c
  1147   001492  0E04               	movlw	4
  1148   001494  26D9               	addwf	fsr2l,f,c
  1149   001496  B6DF               	btfsc	indf2,3,c
  1150   001498  EF50  F00A         	goto	u2251
  1151   00149C  EF52  F00A         	goto	u2250
  1152   0014A0                     u2251:
  1153   0014A0  EF55  F00A         	goto	l752
  1154   0014A4                     u2250:
  1155   0014A4                     
  1156                           ;MCAL_Layer/Timer1/mcal_timer1.c: 141:         {;MCAL_Layer/Timer1/mcal_timer1.c: 142:  
      +                                     (T1CONbits.T1SYNC = 0);
  1157   0014A4  94CD               	bcf	205,2,c	;volatile
  1158                           
  1159                           ;MCAL_Layer/Timer1/mcal_timer1.c: 143:         }
  1160   0014A6  EF55  F00A         	goto	l753
  1161   0014AA                     l752:
  1162   0014AA                     l753:
  1163   0014AA  0012               	return		;funcret
  1164   0014AC                     __end_of_timer1_Mode_Select:
  1165                           	callstack 0
  1166                           
  1167 ;; *************** function _ecu_layer_initialize *****************
  1168 ;; Defined at:
  1169 ;;		line 213 in file "ECU_Layer/ecu_layer_init.c"
  1170 ;; Parameters:    Size  Location     Type
  1171 ;;		None
  1172 ;; Auto vars:     Size  Location     Type
  1173 ;;  ret_init        1    5[BANK0 ] unsigned char 
  1174 ;; Return value:  Size  Location     Type
  1175 ;;                  1    wreg      unsigned char 
  1176 ;; Registers used:
  1177 ;;		wreg, fsr2l, fsr2h, status,2, status,0, prodl, prodh, cstack
  1178 ;; Tracked objects:
  1179 ;;		On entry : 0/0
  1180 ;;		On exit  : 0/0
  1181 ;;		Unchanged: 0/0
  1182 ;; Data sizes:     COMRAM   BANK0   BANK1   BANK2   BANK3   BANK4   BANK5   BANK6   BANK7   BANK8   BANK9  BANK10  BANK1
      +1  BANK12  BANK13  BANK14  BANK15
  1183 ;;      Params:         0       0       0       0       0       0       0       0       0       0       0       0       
      +0       0       0       0       0
  1184 ;;      Locals:         0       1       0       0       0       0       0       0       0       0       0       0       
      +0       0       0       0       0
  1185 ;;      Temps:          0       0       0       0       0       0       0       0       0       0       0       0       
      +0       0       0       0       0
  1186 ;;      Totals:         0       1       0       0       0       0       0       0       0       0       0       0       
      +0       0       0       0       0
  1187 ;;Total ram usage:        1 bytes
  1188 ;; Hardware stack levels used: 1
  1189 ;; Hardware stack levels required when called: 7
  1190 ;; This function calls:
  1191 ;;		_led_initialize
  1192 ;; This function is called by:
  1193 ;;		_application_initialize
  1194 ;; This function uses a non-reentrant model
  1195 ;;
  1196                           
  1197                           	psect	text7
  1198   0018C6                     __ptext7:
  1199                           	callstack 0
  1200   0018C6                     _ecu_layer_initialize:
  1201                           	callstack 22
  1202   0018C6                     
  1203                           ;ECU_Layer/ecu_layer_init.c: 217:     ret_init = led_initialize(&led1);
  1204   0018C6  0E3D               	movlw	low _led1
  1205   0018C8  0100               	movlb	0	; () banked
  1206   0018CA  6F96               	movwf	led_initialize@led& (0+255),b
  1207   0018CC  EC56  F00A         	call	_led_initialize	;wreg free
  1208   0018D0  0100               	movlb	0	; () banked
  1209   0018D2  6F9A               	movwf	ecu_layer_initialize@ret_init& (0+255),b
  1210   0018D4                     
  1211                           ; BSR set to: 0
  1212                           ;ECU_Layer/ecu_layer_init.c: 219:     return ret_init;
  1213   0018D4  519A               	movf	ecu_layer_initialize@ret_init& (0+255),w,b
  1214   0018D6                     
  1215                           ; BSR set to: 0
  1216   0018D6  0012               	return		;funcret
  1217   0018D8                     __end_of_ecu_layer_initialize:
  1218                           	callstack 0
  1219                           
  1220 ;; *************** function _led_initialize *****************
  1221 ;; Defined at:
  1222 ;;		line 27 in file "ECU_Layer/LED/ecu_led.c"
  1223 ;; Parameters:    Size  Location     Type
  1224 ;;  led             1    1[BANK0 ] PTR const struct .
  1225 ;;		 -> led1(1), 
  1226 ;; Auto vars:     Size  Location     Type
  1227 ;;  pin             1    4[BANK0 ] struct .
  1228 ;;  ret             1    3[BANK0 ] unsigned char 
  1229 ;; Return value:  Size  Location     Type
  1230 ;;                  1    wreg      unsigned char 
  1231 ;; Registers used:
  1232 ;;		wreg, fsr2l, fsr2h, status,2, status,0, prodl, prodh, cstack
  1233 ;; Tracked objects:
  1234 ;;		On entry : 0/0
  1235 ;;		On exit  : 0/0
  1236 ;;		Unchanged: 0/0
  1237 ;; Data sizes:     COMRAM   BANK0   BANK1   BANK2   BANK3   BANK4   BANK5   BANK6   BANK7   BANK8   BANK9  BANK10  BANK1
      +1  BANK12  BANK13  BANK14  BANK15
  1238 ;;      Params:         0       1       0       0       0       0       0       0       0       0       0       0       
      +0       0       0       0       0
  1239 ;;      Locals:         0       2       0       0       0       0       0       0       0       0       0       0       
      +0       0       0       0       0
  1240 ;;      Temps:          0       1       0       0       0       0       0       0       0       0       0       0       
      +0       0       0       0       0
  1241 ;;      Totals:         0       4       0       0       0       0       0       0       0       0       0       0       
      +0       0       0       0       0
  1242 ;;Total ram usage:        4 bytes
  1243 ;; Hardware stack levels used: 1
  1244 ;; Hardware stack levels required when called: 6
  1245 ;; This function calls:
  1246 ;;		_gpio_pin_initialize
  1247 ;; This function is called by:
  1248 ;;		_ecu_layer_initialize
  1249 ;; This function uses a non-reentrant model
  1250 ;;
  1251                           
  1252                           	psect	text8
  1253   0014AC                     __ptext8:
  1254                           	callstack 0
  1255   0014AC                     _led_initialize:
  1256                           	callstack 22
  1257   0014AC                     
  1258                           ;ECU_Layer/LED/ecu_led.c: 30:     if(led != ((void*)0))
  1259   0014AC  0100               	movlb	0	; () banked
  1260   0014AE  5196               	movf	led_initialize@led& (0+255),w,b
  1261   0014B0  B4D8               	btfsc	status,2,c
  1262   0014B2  EF5D  F00A         	goto	u3381
  1263   0014B6  EF5F  F00A         	goto	u3380
  1264   0014BA                     u3381:
  1265   0014BA  EF8E  F00A         	goto	l4457
  1266   0014BE                     u3380:
  1267   0014BE                     
  1268                           ; BSR set to: 0
  1269                           ;ECU_Layer/LED/ecu_led.c: 31:     {;ECU_Layer/LED/ecu_led.c: 32:         pin_config_t pi
      +                          n = {.port = led->led_port ,.pin = led->led_pin ,
  1270   0014BE  C05F  F099         	movff	led_initialize@F3062,led_initialize@pin
  1271   0014C2                     
  1272                           ; BSR set to: 0
  1273   0014C2  5196               	movf	led_initialize@led& (0+255),w,b
  1274   0014C4  6ED9               	movwf	fsr2l,c
  1275   0014C6  6ADA               	clrf	fsr2h,c
  1276   0014C8  50DF               	movf	223,w,c
  1277   0014CA  0B07               	andlw	7
  1278   0014CC  6F97               	movwf	??_led_initialize& (0+255),b
  1279   0014CE  5199               	movf	led_initialize@pin& (0+255),w,b
  1280   0014D0  1997               	xorwf	??_led_initialize& (0+255),w,b
  1281   0014D2  0BF8               	andlw	-8
  1282   0014D4  1997               	xorwf	??_led_initialize& (0+255),w,b
  1283   0014D6  6F99               	movwf	led_initialize@pin& (0+255),b
  1284   0014D8  5196               	movf	led_initialize@led& (0+255),w,b
  1285   0014DA  6ED9               	movwf	fsr2l,c
  1286   0014DC  6ADA               	clrf	fsr2h,c
  1287   0014DE  30DF               	rrcf	223,w,c
  1288   0014E0  32E8               	rrcf	wreg,f,c
  1289   0014E2  32E8               	rrcf	wreg,f,c
  1290   0014E4  0B07               	andlw	7
  1291   0014E6  6F97               	movwf	??_led_initialize& (0+255),b
  1292   0014E8  4797               	rlncf	??_led_initialize& (0+255),f,b
  1293   0014EA  4797               	rlncf	??_led_initialize& (0+255),f,b
  1294   0014EC  4797               	rlncf	??_led_initialize& (0+255),f,b
  1295   0014EE  5199               	movf	led_initialize@pin& (0+255),w,b
  1296   0014F0  1997               	xorwf	??_led_initialize& (0+255),w,b
  1297   0014F2  0BC7               	andlw	-57
  1298   0014F4  1997               	xorwf	??_led_initialize& (0+255),w,b
  1299   0014F6  6F99               	movwf	led_initialize@pin& (0+255),b
  1300   0014F8                     
  1301                           ; BSR set to: 0
  1302   0014F8  9D99               	bcf	led_initialize@pin& (0+255),6,b
  1303   0014FA                     
  1304                           ; BSR set to: 0
  1305   0014FA  5196               	movf	led_initialize@led& (0+255),w,b
  1306   0014FC  6ED9               	movwf	fsr2l,c
  1307   0014FE  6ADA               	clrf	fsr2h,c
  1308   001500  ACDF               	btfss	indf2,6,c
  1309   001502  D002               	bra	u3395
  1310   001504  8F99               	bsf	led_initialize@pin& (0+255),7,b
  1311   001506  D002               	bra	u3397
  1312   001508                     u3395:
  1313   001508  0100               	movlb	0	; () banked
  1314   00150A  9F99               	bcf	led_initialize@pin& (0+255),7,b
  1315   00150C                     u3397:
  1316   00150C                     
  1317                           ; BSR set to: 0
  1318                           ;ECU_Layer/LED/ecu_led.c: 34:         ret = gpio_pin_initialize(&pin);
  1319   00150C  0E99               	movlw	low led_initialize@pin
  1320   00150E  6E75               	movwf	gpio_pin_initialize@_pin_config^0,c
  1321   001510  EC9B  F009         	call	_gpio_pin_initialize	;wreg free
  1322   001514  0100               	movlb	0	; () banked
  1323   001516  6F98               	movwf	led_initialize@ret& (0+255),b
  1324                           
  1325                           ;ECU_Layer/LED/ecu_led.c: 35:     }
  1326   001518  EF90  F00A         	goto	l287
  1327   00151C                     l4457:
  1328                           
  1329                           ; BSR set to: 0
  1330   00151C  0E00               	movlw	0
  1331   00151E  6F98               	movwf	led_initialize@ret& (0+255),b
  1332   001520                     l287:
  1333                           
  1334                           ; BSR set to: 0
  1335                           ;ECU_Layer/LED/ecu_led.c: 38:     return ret;
  1336   001520  5198               	movf	led_initialize@ret& (0+255),w,b
  1337   001522                     
  1338                           ; BSR set to: 0
  1339   001522  0012               	return		;funcret
  1340   001524                     __end_of_led_initialize:
  1341                           	callstack 0
  1342                           
  1343 ;; *************** function _ccp1_Init *****************
  1344 ;; Defined at:
  1345 ;;		line 96 in file "MCAL_Layer/CCP/mcal_ccp.c"
  1346 ;; Parameters:    Size  Location     Type
  1347 ;;  _ccp_obj        1    1[BANK0 ] PTR const struct .
  1348 ;;		 -> ccp(5), 
  1349 ;; Auto vars:     Size  Location     Type
  1350 ;;  ret             1    2[BANK0 ] unsigned char 
  1351 ;; Return value:  Size  Location     Type
  1352 ;;                  1    wreg      unsigned char 
  1353 ;; Registers used:
  1354 ;;		wreg, fsr2l, fsr2h, status,2, status,0, prodl, prodh, cstack
  1355 ;; Tracked objects:
  1356 ;;		On entry : 0/0
  1357 ;;		On exit  : 0/0
  1358 ;;		Unchanged: 0/0
  1359 ;; Data sizes:     COMRAM   BANK0   BANK1   BANK2   BANK3   BANK4   BANK5   BANK6   BANK7   BANK8   BANK9  BANK10  BANK1
      +1  BANK12  BANK13  BANK14  BANK15
  1360 ;;      Params:         0       1       0       0       0       0       0       0       0       0       0       0       
      +0       0       0       0       0
  1361 ;;      Locals:         0       1       0       0       0       0       0       0       0       0       0       0       
      +0       0       0       0       0
  1362 ;;      Temps:          0       0       0       0       0       0       0       0       0       0       0       0       
      +0       0       0       0       0
  1363 ;;      Totals:         0       2       0       0       0       0       0       0       0       0       0       0       
      +0       0       0       0       0
  1364 ;;Total ram usage:        2 bytes
  1365 ;; Hardware stack levels used: 1
  1366 ;; Hardware stack levels required when called: 6
  1367 ;; This function calls:
  1368 ;;		_ccp1_Compare_Mode_Config
  1369 ;;		_ccp1_Interrupt_Config
  1370 ;;		_ccp_Mode_Timer_Select
  1371 ;;		_gpio_pin_initialize
  1372 ;; This function is called by:
  1373 ;;		_application_initialize
  1374 ;; This function uses a non-reentrant model
  1375 ;;
  1376                           
  1377                           	psect	text9
  1378   0016C4                     __ptext9:
  1379                           	callstack 0
  1380   0016C4                     _ccp1_Init:
  1381                           	callstack 23
  1382   0016C4                     
  1383                           ;MCAL_Layer/CCP/mcal_ccp.c: 100:         if(((void*)0) != _ccp_obj)
  1384   0016C4  0100               	movlb	0	; () banked
  1385   0016C6  5196               	movf	ccp1_Init@_ccp_obj& (0+255),w,b
  1386   0016C8  B4D8               	btfsc	status,2,c
  1387   0016CA  EF69  F00B         	goto	u3531
  1388   0016CE  EF6B  F00B         	goto	u3530
  1389   0016D2                     u3531:
  1390   0016D2  EF81  F00B         	goto	l4623
  1391   0016D6                     u3530:
  1392   0016D6                     
  1393                           ; BSR set to: 0
  1394                           ;MCAL_Layer/CCP/mcal_ccp.c: 101:         {;MCAL_Layer/CCP/mcal_ccp.c: 103:             (
      +                          CCP1CONbits.CCP1M = ((uint8)0x00));
  1395   0016D6  0EF0               	movlw	-16
  1396   0016D8  16BD               	andwf	189,f,c	;volatile
  1397   0016DA                     
  1398                           ; BSR set to: 0
  1399                           ;MCAL_Layer/CCP/mcal_ccp.c: 106:             ret = gpio_pin_initialize(&(_ccp_obj->ccp1_
      +                          pin));
  1400   0016DA  C096  F075         	movff	ccp1_Init@_ccp_obj,gpio_pin_initialize@_pin_config
  1401   0016DE  EC9B  F009         	call	_gpio_pin_initialize	;wreg free
  1402   0016E2  0100               	movlb	0	; () banked
  1403   0016E4  6F97               	movwf	ccp1_Init@ret& (0+255),b
  1404   0016E6                     
  1405                           ; BSR set to: 0
  1406                           ;MCAL_Layer/CCP/mcal_ccp.c: 116:                 ccp_Mode_Timer_Select(_ccp_obj);
  1407   0016E6  C096  F06D         	movff	ccp1_Init@_ccp_obj,ccp_Mode_Timer_Select@_ccp_obj
  1408   0016EA  ECCD  F00A         	call	_ccp_Mode_Timer_Select	;wreg free
  1409   0016EE                     
  1410                           ;MCAL_Layer/CCP/mcal_ccp.c: 117:                 ccp1_Compare_Mode_Config(_ccp_obj);
  1411   0016EE  C096  F06D         	movff	ccp1_Init@_ccp_obj,ccp1_Compare_Mode_Config@_ccp_obj
  1412   0016F2  ECDB  F009         	call	_ccp1_Compare_Mode_Config	;wreg free
  1413   0016F6                     
  1414                           ;MCAL_Layer/CCP/mcal_ccp.c: 120:                 ccp1_Interrupt_Config(_ccp_obj);
  1415   0016F6  C096  F06D         	movff	ccp1_Init@_ccp_obj,ccp1_Interrupt_Config@_ccp_obj
  1416   0016FA  EC49  F00C         	call	_ccp1_Interrupt_Config	;wreg free
  1417                           
  1418                           ;MCAL_Layer/CCP/mcal_ccp.c: 126:         }
  1419   0016FE  EF83  F00B         	goto	l921
  1420   001702                     l4623:
  1421                           
  1422                           ; BSR set to: 0
  1423   001702  0E00               	movlw	0
  1424   001704  6F97               	movwf	ccp1_Init@ret& (0+255),b
  1425   001706                     l921:
  1426                           
  1427                           ;MCAL_Layer/CCP/mcal_ccp.c: 129:         return ret;
  1428   001706  0100               	movlb	0	; () banked
  1429   001708  5197               	movf	ccp1_Init@ret& (0+255),w,b
  1430   00170A                     
  1431                           ; BSR set to: 0
  1432   00170A  0012               	return		;funcret
  1433   00170C                     __end_of_ccp1_Init:
  1434                           	callstack 0
  1435                           
  1436 ;; *************** function _gpio_pin_initialize *****************
  1437 ;; Defined at:
  1438 ;;		line 151 in file "MCAL_Layer/GPIO/mcal_gpio.c"
  1439 ;; Parameters:    Size  Location     Type
  1440 ;;  _pin_config     1   16[COMRAM] PTR const struct .
  1441 ;;		 -> ccp(5), relay_initialize@pin(1), led_initialize@pin(1), 
  1442 ;; Auto vars:     Size  Location     Type
  1443 ;;  ret             1    0[BANK0 ] unsigned char 
  1444 ;; Return value:  Size  Location     Type
  1445 ;;                  1    wreg      unsigned char 
  1446 ;; Registers used:
  1447 ;;		wreg, fsr2l, fsr2h, status,2, status,0, prodl, prodh, cstack
  1448 ;; Tracked objects:
  1449 ;;		On entry : 0/0
  1450 ;;		On exit  : 0/0
  1451 ;;		Unchanged: 0/0
  1452 ;; Data sizes:     COMRAM   BANK0   BANK1   BANK2   BANK3   BANK4   BANK5   BANK6   BANK7   BANK8   BANK9  BANK10  BANK1
      +1  BANK12  BANK13  BANK14  BANK15
  1453 ;;      Params:         1       0       0       0       0       0       0       0       0       0       0       0       
      +0       0       0       0       0
  1454 ;;      Locals:         0       1       0       0       0       0       0       0       0       0       0       0       
      +0       0       0       0       0
  1455 ;;      Temps:          1       0       0       0       0       0       0       0       0       0       0       0       
      +0       0       0       0       0
  1456 ;;      Totals:         2       1       0       0       0       0       0       0       0       0       0       0       
      +0       0       0       0       0
  1457 ;;Total ram usage:        3 bytes
  1458 ;; Hardware stack levels used: 1
  1459 ;; Hardware stack levels required when called: 5
  1460 ;; This function calls:
  1461 ;;		_gpio_pin_direction_initialize
  1462 ;;		_gpio_pin_write_logic
  1463 ;; This function is called by:
  1464 ;;		_led_initialize
  1465 ;;		_ccp1_Init
  1466 ;;		_dc_motor_initialize
  1467 ;;		_keypad_initialize
  1468 ;;		_lcd_4bit_initialize
  1469 ;;		_lcd_8bit_initialize
  1470 ;;		_relay_initialize
  1471 ;;		_seven_segment_initialize
  1472 ;; This function uses a non-reentrant model
  1473 ;;
  1474                           
  1475                           	psect	text10
  1476   001336                     __ptext10:
  1477                           	callstack 0
  1478   001336                     _gpio_pin_initialize:
  1479                           	callstack 22
  1480   001336                     
  1481                           ;MCAL_Layer/GPIO/mcal_gpio.c: 154:     if((_pin_config != ((void*)0)) && (_pin_config->p
      +                          ort <= 5 -1) && (_pin_config->pin <= 8 -1))
  1482   001336  5075               	movf	gpio_pin_initialize@_pin_config^0,w,c
  1483   001338  B4D8               	btfsc	status,2,c
  1484   00133A  EFA1  F009         	goto	u3351
  1485   00133E  EFA3  F009         	goto	u3350
  1486   001342                     u3351:
  1487   001342  EFD6  F009         	goto	l4439
  1488   001346                     u3350:
  1489   001346  5075               	movf	gpio_pin_initialize@_pin_config^0,w,c
  1490   001348  6ED9               	movwf	fsr2l,c
  1491   00134A  6ADA               	clrf	fsr2h,c
  1492   00134C  50DF               	movf	223,w,c
  1493   00134E  0B07               	andlw	7
  1494   001350  6E76               	movwf	??_gpio_pin_initialize^0,c
  1495   001352  0E05               	movlw	5
  1496   001354  6076               	cpfslt	??_gpio_pin_initialize^0,c
  1497   001356  EFAF  F009         	goto	u3361
  1498   00135A  EFB1  F009         	goto	u3360
  1499   00135E                     u3361:
  1500   00135E  EFD6  F009         	goto	l4439
  1501   001362                     u3360:
  1502   001362  5075               	movf	gpio_pin_initialize@_pin_config^0,w,c
  1503   001364  6ED9               	movwf	fsr2l,c
  1504   001366  6ADA               	clrf	fsr2h,c
  1505   001368  30DF               	rrcf	223,w,c
  1506   00136A  32E8               	rrcf	wreg,f,c
  1507   00136C  32E8               	rrcf	wreg,f,c
  1508   00136E  0B07               	andlw	7
  1509   001370  6E76               	movwf	??_gpio_pin_initialize^0,c
  1510   001372  0E08               	movlw	8
  1511   001374  6076               	cpfslt	??_gpio_pin_initialize^0,c
  1512   001376  EFBF  F009         	goto	u3371
  1513   00137A  EFC1  F009         	goto	u3370
  1514   00137E                     u3371:
  1515   00137E  EFD6  F009         	goto	l4439
  1516   001382                     u3370:
  1517   001382                     
  1518                           ;MCAL_Layer/GPIO/mcal_gpio.c: 155:     {;MCAL_Layer/GPIO/mcal_gpio.c: 156:         ret =
      +                           gpio_pin_direction_initialize(_pin_config);
  1519   001382  C075  F06D         	movff	gpio_pin_initialize@_pin_config,gpio_pin_direction_initialize@_pin_config
  1520   001386  ECAD  F008         	call	_gpio_pin_direction_initialize	;wreg free
  1521   00138A  0100               	movlb	0	; () banked
  1522   00138C  6F95               	movwf	gpio_pin_initialize@ret& (0+255),b
  1523                           
  1524                           ;MCAL_Layer/GPIO/mcal_gpio.c: 157:         ret = gpio_pin_write_logic(_pin_config,_pin_c
      +                          onfig->logic);
  1525   00138E  C075  F06D         	movff	gpio_pin_initialize@_pin_config,gpio_pin_write_logic@_pin_config
  1526   001392  5075               	movf	gpio_pin_initialize@_pin_config^0,w,c
  1527   001394  6ED9               	movwf	fsr2l,c
  1528   001396  6ADA               	clrf	fsr2h,c
  1529   001398  0E00               	movlw	0
  1530   00139A  BEDF               	btfsc	indf2,7,c
  1531   00139C  0E01               	movlw	1
  1532   00139E  6E6E               	movwf	gpio_pin_write_logic@logic^0,c
  1533   0013A0  EC0B  F008         	call	_gpio_pin_write_logic	;wreg free
  1534   0013A4  0100               	movlb	0	; () banked
  1535   0013A6  6F95               	movwf	gpio_pin_initialize@ret& (0+255),b
  1536                           
  1537                           ;MCAL_Layer/GPIO/mcal_gpio.c: 158:     }
  1538   0013A8  EFD9  F009         	goto	l574
  1539   0013AC                     l4439:
  1540   0013AC  0E00               	movlw	0
  1541   0013AE  0100               	movlb	0	; () banked
  1542   0013B0  6F95               	movwf	gpio_pin_initialize@ret& (0+255),b
  1543   0013B2                     l574:
  1544                           
  1545                           ; BSR set to: 0
  1546                           ;MCAL_Layer/GPIO/mcal_gpio.c: 160:     return ret;
  1547   0013B2  5195               	movf	gpio_pin_initialize@ret& (0+255),w,b
  1548   0013B4                     
  1549                           ; BSR set to: 0
  1550   0013B4  0012               	return		;funcret
  1551   0013B6                     __end_of_gpio_pin_initialize:
  1552                           	callstack 0
  1553                           
  1554 ;; *************** function _gpio_pin_write_logic *****************
  1555 ;; Defined at:
  1556 ;;		line 83 in file "MCAL_Layer/GPIO/mcal_gpio.c"
  1557 ;; Parameters:    Size  Location     Type
  1558 ;;  _pin_config     1    8[COMRAM] PTR const struct .
  1559 ;;		 -> ccp(5), relay_turn_off@pin(1), relay_turn_on@pin(1), relay_initialize@pin(1), 
  1560 ;;		 -> led_turn_off@pin(1), led_turn_on@pin(1), led_initialize@pin(1), 
  1561 ;;  logic           1    9[COMRAM] enum E3002
  1562 ;; Auto vars:     Size  Location     Type
  1563 ;;  ret             1   15[COMRAM] unsigned char 
  1564 ;; Return value:  Size  Location     Type
  1565 ;;                  1    wreg      unsigned char 
  1566 ;; Registers used:
  1567 ;;		wreg, fsr2l, fsr2h, status,2, status,0, prodl, prodh
  1568 ;; Tracked objects:
  1569 ;;		On entry : 0/0
  1570 ;;		On exit  : 0/0
  1571 ;;		Unchanged: 0/0
  1572 ;; Data sizes:     COMRAM   BANK0   BANK1   BANK2   BANK3   BANK4   BANK5   BANK6   BANK7   BANK8   BANK9  BANK10  BANK1
      +1  BANK12  BANK13  BANK14  BANK15
  1573 ;;      Params:         2       0       0       0       0       0       0       0       0       0       0       0       
      +0       0       0       0       0
  1574 ;;      Locals:         1       0       0       0       0       0       0       0       0       0       0       0       
      +0       0       0       0       0
  1575 ;;      Temps:          5       0       0       0       0       0       0       0       0       0       0       0       
      +0       0       0       0       0
  1576 ;;      Totals:         8       0       0       0       0       0       0       0       0       0       0       0       
      +0       0       0       0       0
  1577 ;;Total ram usage:        8 bytes
  1578 ;; Hardware stack levels used: 1
  1579 ;; Hardware stack levels required when called: 4
  1580 ;; This function calls:
  1581 ;;		Nothing
  1582 ;; This function is called by:
  1583 ;;		_gpio_pin_initialize
  1584 ;;		_dc_motor_move_right
  1585 ;;		_dc_motor_move_left
  1586 ;;		_dc_motor_stop
  1587 ;;		_keypad_get_value
  1588 ;;		_lcd_4bit_send_command
  1589 ;;		_lcd_4bit_send_char_data
  1590 ;;		_lcd_8bit_send_command
  1591 ;;		_lcd_8bit_send_char_data
  1592 ;;		_lcd_send_4bits
  1593 ;;		_lcd_4bit_send_enable_signal
  1594 ;;		_lcd_8bit_send_enable_signal
  1595 ;;		_led_turn_on
  1596 ;;		_led_turn_off
  1597 ;;		_relay_turn_on
  1598 ;;		_relay_turn_off
  1599 ;;		_seven_segment_write_number
  1600 ;; This function uses a non-reentrant model
  1601 ;;
  1602                           
  1603                           	psect	text11
  1604   001016                     __ptext11:
  1605                           	callstack 0
  1606   001016                     _gpio_pin_write_logic:
  1607                           	callstack 22
  1608   001016                     
  1609                           ;MCAL_Layer/GPIO/mcal_gpio.c: 83: Std_ReturnType gpio_pin_write_logic(const pin_config_t
      +                           *_pin_config , logic_t logic);MCAL_Layer/GPIO/mcal_gpio.c: 84: {;MCAL_Layer/GPIO/mcal_g
      +                          pio.c: 85:     Std_ReturnType ret = (Std_ReturnType)0x01;
  1610   001016  0E01               	movlw	1
  1611   001018  6E74               	movwf	gpio_pin_write_logic@ret^0,c
  1612                           
  1613                           ;MCAL_Layer/GPIO/mcal_gpio.c: 86:     if((_pin_config != ((void*)0)) && (_pin_config->po
      +                          rt <= 5 -1) && (_pin_config->pin <= 8 -1))
  1614   00101A  506D               	movf	gpio_pin_write_logic@_pin_config^0,w,c
  1615   00101C  B4D8               	btfsc	status,2,c
  1616   00101E  EF13  F008         	goto	u3291
  1617   001022  EF15  F008         	goto	u3290
  1618   001026                     u3291:
  1619   001026  EF92  F008         	goto	l4417
  1620   00102A                     u3290:
  1621   00102A  506D               	movf	gpio_pin_write_logic@_pin_config^0,w,c
  1622   00102C  6ED9               	movwf	fsr2l,c
  1623   00102E  6ADA               	clrf	fsr2h,c
  1624   001030  50DF               	movf	223,w,c
  1625   001032  0B07               	andlw	7
  1626   001034  6E6F               	movwf	??_gpio_pin_write_logic^0,c
  1627   001036  0E05               	movlw	5
  1628   001038  606F               	cpfslt	??_gpio_pin_write_logic^0,c
  1629   00103A  EF21  F008         	goto	u3301
  1630   00103E  EF23  F008         	goto	u3300
  1631   001042                     u3301:
  1632   001042  EF92  F008         	goto	l4417
  1633   001046                     u3300:
  1634   001046  506D               	movf	gpio_pin_write_logic@_pin_config^0,w,c
  1635   001048  6ED9               	movwf	fsr2l,c
  1636   00104A  6ADA               	clrf	fsr2h,c
  1637   00104C  30DF               	rrcf	223,w,c
  1638   00104E  32E8               	rrcf	wreg,f,c
  1639   001050  32E8               	rrcf	wreg,f,c
  1640   001052  0B07               	andlw	7
  1641   001054  6E6F               	movwf	??_gpio_pin_write_logic^0,c
  1642   001056  0E08               	movlw	8
  1643   001058  606F               	cpfslt	??_gpio_pin_write_logic^0,c
  1644   00105A  EF31  F008         	goto	u3311
  1645   00105E  EF33  F008         	goto	u3310
  1646   001062                     u3311:
  1647   001062  EF92  F008         	goto	l4417
  1648   001066                     u3310:
  1649   001066                     
  1650                           ;MCAL_Layer/GPIO/mcal_gpio.c: 87:     {;MCAL_Layer/GPIO/mcal_gpio.c: 88:         if(_pin
      +                          _config->direction == GPIO_DIRECTION_OUTPUT)
  1651   001066  506D               	movf	gpio_pin_write_logic@_pin_config^0,w,c
  1652   001068  6ED9               	movwf	fsr2l,c
  1653   00106A  6ADA               	clrf	fsr2h,c
  1654   00106C  BCDF               	btfsc	indf2,6,c
  1655   00106E  EF3B  F008         	goto	u3321
  1656   001072  EF3D  F008         	goto	u3320
  1657   001076                     u3321:
  1658   001076  EF92  F008         	goto	l4417
  1659   00107A                     u3320:
  1660   00107A  EF96  F008         	goto	l4419
  1661   00107E                     l4413:
  1662                           
  1663                           ;MCAL_Layer/GPIO/mcal_gpio.c: 93:                     (*lat_registers[_pin_config->port]
      +                           &=~ ((uint8)0x01 << _pin_config->pin));
  1664   00107E  506D               	movf	gpio_pin_write_logic@_pin_config^0,w,c
  1665   001080  6ED9               	movwf	fsr2l,c
  1666   001082  6ADA               	clrf	fsr2h,c
  1667   001084  30DF               	rrcf	223,w,c
  1668   001086  32E8               	rrcf	wreg,f,c
  1669   001088  32E8               	rrcf	wreg,f,c
  1670   00108A  0B07               	andlw	7
  1671   00108C  6E6F               	movwf	??_gpio_pin_write_logic^0,c
  1672   00108E  0E01               	movlw	1
  1673   001090  6E70               	movwf	(??_gpio_pin_write_logic+1)^0,c
  1674   001092  2A6F               	incf	??_gpio_pin_write_logic^0,f,c
  1675   001094  EF4E  F008         	goto	u3334
  1676   001098                     u3335:
  1677   001098  90D8               	bcf	status,0,c
  1678   00109A  3670               	rlcf	(??_gpio_pin_write_logic+1)^0,f,c
  1679   00109C                     u3334:
  1680   00109C  2E6F               	decfsz	??_gpio_pin_write_logic^0,f,c
  1681   00109E  EF4C  F008         	goto	u3335
  1682   0010A2  5070               	movf	(??_gpio_pin_write_logic+1)^0,w,c
  1683   0010A4  0AFF               	xorlw	255
  1684   0010A6  6E71               	movwf	(??_gpio_pin_write_logic+2)^0,c
  1685   0010A8  506D               	movf	gpio_pin_write_logic@_pin_config^0,w,c
  1686   0010AA  6ED9               	movwf	fsr2l,c
  1687   0010AC  6ADA               	clrf	fsr2h,c
  1688   0010AE  50DF               	movf	223,w,c
  1689   0010B0  0B07               	andlw	7
  1690   0010B2  0D02               	mullw	2
  1691   0010B4  50F3               	movf	243,w,c
  1692   0010B6  0F0B               	addlw	low _lat_registers
  1693   0010B8  6ED9               	movwf	fsr2l,c
  1694   0010BA  6ADA               	clrf	fsr2h,c
  1695   0010BC  CFDE F072          	movff	postinc2,??_gpio_pin_write_logic+3
  1696   0010C0  CFDD F073          	movff	postdec2,??_gpio_pin_write_logic+4
  1697   0010C4  C072  FFD9         	movff	??_gpio_pin_write_logic+3,fsr2l
  1698   0010C8  C073  FFDA         	movff	??_gpio_pin_write_logic+4,fsr2h
  1699   0010CC  5071               	movf	(??_gpio_pin_write_logic+2)^0,w,c
  1700   0010CE  16DF               	andwf	indf2,f,c
  1701                           
  1702                           ;MCAL_Layer/GPIO/mcal_gpio.c: 94:                     break;
  1703   0010D0  EFAB  F008         	goto	l559
  1704   0010D4                     l4415:
  1705                           
  1706                           ;MCAL_Layer/GPIO/mcal_gpio.c: 96:                     (*lat_registers[_pin_config->port]
      +                           |= ((uint8)0x01 << _pin_config->pin));
  1707   0010D4  506D               	movf	gpio_pin_write_logic@_pin_config^0,w,c
  1708   0010D6  6ED9               	movwf	fsr2l,c
  1709   0010D8  6ADA               	clrf	fsr2h,c
  1710   0010DA  30DF               	rrcf	223,w,c
  1711   0010DC  32E8               	rrcf	wreg,f,c
  1712   0010DE  32E8               	rrcf	wreg,f,c
  1713   0010E0  0B07               	andlw	7
  1714   0010E2  6E6F               	movwf	??_gpio_pin_write_logic^0,c
  1715   0010E4  0E01               	movlw	1
  1716   0010E6  6E70               	movwf	(??_gpio_pin_write_logic+1)^0,c
  1717   0010E8  2A6F               	incf	??_gpio_pin_write_logic^0,f,c
  1718   0010EA  EF79  F008         	goto	u3344
  1719   0010EE                     u3345:
  1720   0010EE  90D8               	bcf	status,0,c
  1721   0010F0  3670               	rlcf	(??_gpio_pin_write_logic+1)^0,f,c
  1722   0010F2                     u3344:
  1723   0010F2  2E6F               	decfsz	??_gpio_pin_write_logic^0,f,c
  1724   0010F4  EF77  F008         	goto	u3345
  1725   0010F8  506D               	movf	gpio_pin_write_logic@_pin_config^0,w,c
  1726   0010FA  6ED9               	movwf	fsr2l,c
  1727   0010FC  6ADA               	clrf	fsr2h,c
  1728   0010FE  50DF               	movf	223,w,c
  1729   001100  0B07               	andlw	7
  1730   001102  0D02               	mullw	2
  1731   001104  50F3               	movf	243,w,c
  1732   001106  0F0B               	addlw	low _lat_registers
  1733   001108  6ED9               	movwf	fsr2l,c
  1734   00110A  6ADA               	clrf	fsr2h,c
  1735   00110C  CFDE F071          	movff	postinc2,??_gpio_pin_write_logic+2
  1736   001110  CFDD F072          	movff	postdec2,??_gpio_pin_write_logic+3
  1737   001114  C071  FFD9         	movff	??_gpio_pin_write_logic+2,fsr2l
  1738   001118  C072  FFDA         	movff	??_gpio_pin_write_logic+3,fsr2h
  1739   00111C  5070               	movf	(??_gpio_pin_write_logic+1)^0,w,c
  1740   00111E  12DF               	iorwf	indf2,f,c
  1741                           
  1742                           ;MCAL_Layer/GPIO/mcal_gpio.c: 97:                     break;
  1743   001120  EFAB  F008         	goto	l559
  1744   001124                     l4417:
  1745   001124  0E00               	movlw	0
  1746   001126  6E74               	movwf	gpio_pin_write_logic@ret^0,c
  1747                           
  1748                           ;MCAL_Layer/GPIO/mcal_gpio.c: 99:             }
  1749   001128  EFAB  F008         	goto	l559
  1750   00112C                     l4419:
  1751   00112C  506E               	movf	gpio_pin_write_logic@logic^0,w,c
  1752   00112E  6E6F               	movwf	??_gpio_pin_write_logic^0,c
  1753   001130  6A70               	clrf	(??_gpio_pin_write_logic+1)^0,c
  1754                           
  1755                           ; Switch on 2 bytes has been partitioned into a top level switch of size 1, and 1 sub-sw
      +                          itches
  1756                           ; Switch size 1, requested type "simple"
  1757                           ; Number of cases is 1, Range of values is 0 to 0
  1758                           ; switch strategies available:
  1759                           ; Name         Instructions Cycles
  1760                           ; simple_byte            4     3 (average)
  1761                           ;	Chosen strategy is simple_byte
  1762   001132  5070               	movf	(??_gpio_pin_write_logic+1)^0,w,c
  1763   001134  0A00               	xorlw	0	; case 0
  1764   001136  B4D8               	btfsc	status,2,c
  1765   001138  EFA0  F008         	goto	l5245
  1766   00113C  EF92  F008         	goto	l4417
  1767   001140                     l5245:
  1768                           
  1769                           ; Switch size 1, requested type "simple"
  1770                           ; Number of cases is 2, Range of values is 0 to 1
  1771                           ; switch strategies available:
  1772                           ; Name         Instructions Cycles
  1773                           ; simple_byte            7     4 (average)
  1774                           ;	Chosen strategy is simple_byte
  1775   001140  506F               	movf	??_gpio_pin_write_logic^0,w,c
  1776   001142  0A00               	xorlw	0	; case 0
  1777   001144  B4D8               	btfsc	status,2,c
  1778   001146  EF3F  F008         	goto	l4413
  1779   00114A  0A01               	xorlw	1	; case 1
  1780   00114C  B4D8               	btfsc	status,2,c
  1781   00114E  EF6A  F008         	goto	l4415
  1782   001152  EF92  F008         	goto	l4417
  1783   001156                     l559:
  1784                           
  1785                           ;MCAL_Layer/GPIO/mcal_gpio.c: 104:     return ret;
  1786   001156  5074               	movf	gpio_pin_write_logic@ret^0,w,c
  1787   001158  0012               	return		;funcret
  1788   00115A                     __end_of_gpio_pin_write_logic:
  1789                           	callstack 0
  1790                           
  1791 ;; *************** function _gpio_pin_direction_initialize *****************
  1792 ;; Defined at:
  1793 ;;		line 34 in file "MCAL_Layer/GPIO/mcal_gpio.c"
  1794 ;; Parameters:    Size  Location     Type
  1795 ;;  _pin_config     1    8[COMRAM] PTR const struct .
  1796 ;;		 -> ccp(5), relay_initialize@pin(1), led_initialize@pin(1), 
  1797 ;; Auto vars:     Size  Location     Type
  1798 ;;  ret             1   14[COMRAM] unsigned char 
  1799 ;; Return value:  Size  Location     Type
  1800 ;;                  1    wreg      unsigned char 
  1801 ;; Registers used:
  1802 ;;		wreg, fsr2l, fsr2h, status,2, status,0, prodl, prodh
  1803 ;; Tracked objects:
  1804 ;;		On entry : 0/0
  1805 ;;		On exit  : 0/0
  1806 ;;		Unchanged: 0/0
  1807 ;; Data sizes:     COMRAM   BANK0   BANK1   BANK2   BANK3   BANK4   BANK5   BANK6   BANK7   BANK8   BANK9  BANK10  BANK1
      +1  BANK12  BANK13  BANK14  BANK15
  1808 ;;      Params:         1       0       0       0       0       0       0       0       0       0       0       0       
      +0       0       0       0       0
  1809 ;;      Locals:         1       0       0       0       0       0       0       0       0       0       0       0       
      +0       0       0       0       0
  1810 ;;      Temps:          5       0       0       0       0       0       0       0       0       0       0       0       
      +0       0       0       0       0
  1811 ;;      Totals:         7       0       0       0       0       0       0       0       0       0       0       0       
      +0       0       0       0       0
  1812 ;;Total ram usage:        7 bytes
  1813 ;; Hardware stack levels used: 1
  1814 ;; Hardware stack levels required when called: 4
  1815 ;; This function calls:
  1816 ;;		Nothing
  1817 ;; This function is called by:
  1818 ;;		_gpio_pin_initialize
  1819 ;;		_button_initialize
  1820 ;;		_keypad_initialize
  1821 ;; This function uses a non-reentrant model
  1822 ;;
  1823                           
  1824                           	psect	text12
  1825   00115A                     __ptext12:
  1826                           	callstack 0
  1827   00115A                     _gpio_pin_direction_initialize:
  1828                           	callstack 22
  1829   00115A                     
  1830                           ;MCAL_Layer/GPIO/mcal_gpio.c: 34: Std_ReturnType gpio_pin_direction_initialize(const pin
      +                          _config_t *_pin_config);MCAL_Layer/GPIO/mcal_gpio.c: 35: {;MCAL_Layer/GPIO/mcal_gpio.c: 
      +                          36:     Std_ReturnType ret = (Std_ReturnType)0x01;
  1831   00115A  0E01               	movlw	1
  1832   00115C  6E73               	movwf	gpio_pin_direction_initialize@ret^0,c
  1833                           
  1834                           ;MCAL_Layer/GPIO/mcal_gpio.c: 38:     if((_pin_config != ((void*)0)) && (_pin_config->po
      +                          rt <= 5 -1) && (_pin_config->pin <= 8 -1))
  1835   00115E  506D               	movf	gpio_pin_direction_initialize@_pin_config^0,w,c
  1836   001160  B4D8               	btfsc	status,2,c
  1837   001162  EFB5  F008         	goto	u3231
  1838   001166  EFB7  F008         	goto	u3230
  1839   00116A                     u3231:
  1840   00116A  EF2A  F009         	goto	l4395
  1841   00116E                     u3230:
  1842   00116E  506D               	movf	gpio_pin_direction_initialize@_pin_config^0,w,c
  1843   001170  6ED9               	movwf	fsr2l,c
  1844   001172  6ADA               	clrf	fsr2h,c
  1845   001174  50DF               	movf	223,w,c
  1846   001176  0B07               	andlw	7
  1847   001178  6E6E               	movwf	??_gpio_pin_direction_initialize^0,c
  1848   00117A  0E05               	movlw	5
  1849   00117C  606E               	cpfslt	??_gpio_pin_direction_initialize^0,c
  1850   00117E  EFC3  F008         	goto	u3241
  1851   001182  EFC5  F008         	goto	u3240
  1852   001186                     u3241:
  1853   001186  EF2A  F009         	goto	l4395
  1854   00118A                     u3240:
  1855   00118A  506D               	movf	gpio_pin_direction_initialize@_pin_config^0,w,c
  1856   00118C  6ED9               	movwf	fsr2l,c
  1857   00118E  6ADA               	clrf	fsr2h,c
  1858   001190  30DF               	rrcf	223,w,c
  1859   001192  32E8               	rrcf	wreg,f,c
  1860   001194  32E8               	rrcf	wreg,f,c
  1861   001196  0B07               	andlw	7
  1862   001198  6E6E               	movwf	??_gpio_pin_direction_initialize^0,c
  1863   00119A  0E08               	movlw	8
  1864   00119C  606E               	cpfslt	??_gpio_pin_direction_initialize^0,c
  1865   00119E  EFD3  F008         	goto	u3251
  1866   0011A2  EFD5  F008         	goto	u3250
  1867   0011A6                     u3251:
  1868   0011A6  EF2A  F009         	goto	l4395
  1869   0011AA                     u3250:
  1870   0011AA  EF2E  F009         	goto	l4397
  1871   0011AE                     l4391:
  1872                           
  1873                           ;MCAL_Layer/GPIO/mcal_gpio.c: 43:                 (*tris_registers[_pin_config->port] &=
      +                          ~ ((uint8)0x01 << _pin_config->pin));
  1874   0011AE  506D               	movf	gpio_pin_direction_initialize@_pin_config^0,w,c
  1875   0011B0  6ED9               	movwf	fsr2l,c
  1876   0011B2  6ADA               	clrf	fsr2h,c
  1877   0011B4  30DF               	rrcf	223,w,c
  1878   0011B6  32E8               	rrcf	wreg,f,c
  1879   0011B8  32E8               	rrcf	wreg,f,c
  1880   0011BA  0B07               	andlw	7
  1881   0011BC  6E6E               	movwf	??_gpio_pin_direction_initialize^0,c
  1882   0011BE  0E01               	movlw	1
  1883   0011C0  6E6F               	movwf	(??_gpio_pin_direction_initialize+1)^0,c
  1884   0011C2  2A6E               	incf	??_gpio_pin_direction_initialize^0,f,c
  1885   0011C4  EFE6  F008         	goto	u3264
  1886   0011C8                     u3265:
  1887   0011C8  90D8               	bcf	status,0,c
  1888   0011CA  366F               	rlcf	(??_gpio_pin_direction_initialize+1)^0,f,c
  1889   0011CC                     u3264:
  1890   0011CC  2E6E               	decfsz	??_gpio_pin_direction_initialize^0,f,c
  1891   0011CE  EFE4  F008         	goto	u3265
  1892   0011D2  506F               	movf	(??_gpio_pin_direction_initialize+1)^0,w,c
  1893   0011D4  0AFF               	xorlw	255
  1894   0011D6  6E70               	movwf	(??_gpio_pin_direction_initialize+2)^0,c
  1895   0011D8  506D               	movf	gpio_pin_direction_initialize@_pin_config^0,w,c
  1896   0011DA  6ED9               	movwf	fsr2l,c
  1897   0011DC  6ADA               	clrf	fsr2h,c
  1898   0011DE  50DF               	movf	223,w,c
  1899   0011E0  0B07               	andlw	7
  1900   0011E2  0D02               	mullw	2
  1901   0011E4  50F3               	movf	243,w,c
  1902   0011E6  0F15               	addlw	low _tris_registers
  1903   0011E8  6ED9               	movwf	fsr2l,c
  1904   0011EA  6ADA               	clrf	fsr2h,c
  1905   0011EC  CFDE F071          	movff	postinc2,??_gpio_pin_direction_initialize+3
  1906   0011F0  CFDD F072          	movff	postdec2,??_gpio_pin_direction_initialize+4
  1907   0011F4  C071  FFD9         	movff	??_gpio_pin_direction_initialize+3,fsr2l
  1908   0011F8  C072  FFDA         	movff	??_gpio_pin_direction_initialize+4,fsr2h
  1909   0011FC  5070               	movf	(??_gpio_pin_direction_initialize+2)^0,w,c
  1910   0011FE  16DF               	andwf	indf2,f,c
  1911                           
  1912                           ;MCAL_Layer/GPIO/mcal_gpio.c: 44:                 break;
  1913   001200  EF44  F009         	goto	l542
  1914   001204                     l4393:
  1915                           
  1916                           ;MCAL_Layer/GPIO/mcal_gpio.c: 46:                 (*tris_registers[_pin_config->port] |=
      +                           ((uint8)0x01 << _pin_config->pin));
  1917   001204  506D               	movf	gpio_pin_direction_initialize@_pin_config^0,w,c
  1918   001206  6ED9               	movwf	fsr2l,c
  1919   001208  6ADA               	clrf	fsr2h,c
  1920   00120A  30DF               	rrcf	223,w,c
  1921   00120C  32E8               	rrcf	wreg,f,c
  1922   00120E  32E8               	rrcf	wreg,f,c
  1923   001210  0B07               	andlw	7
  1924   001212  6E6E               	movwf	??_gpio_pin_direction_initialize^0,c
  1925   001214  0E01               	movlw	1
  1926   001216  6E6F               	movwf	(??_gpio_pin_direction_initialize+1)^0,c
  1927   001218  2A6E               	incf	??_gpio_pin_direction_initialize^0,f,c
  1928   00121A  EF11  F009         	goto	u3274
  1929   00121E                     u3275:
  1930   00121E  90D8               	bcf	status,0,c
  1931   001220  366F               	rlcf	(??_gpio_pin_direction_initialize+1)^0,f,c
  1932   001222                     u3274:
  1933   001222  2E6E               	decfsz	??_gpio_pin_direction_initialize^0,f,c
  1934   001224  EF0F  F009         	goto	u3275
  1935   001228  506D               	movf	gpio_pin_direction_initialize@_pin_config^0,w,c
  1936   00122A  6ED9               	movwf	fsr2l,c
  1937   00122C  6ADA               	clrf	fsr2h,c
  1938   00122E  50DF               	movf	223,w,c
  1939   001230  0B07               	andlw	7
  1940   001232  0D02               	mullw	2
  1941   001234  50F3               	movf	243,w,c
  1942   001236  0F15               	addlw	low _tris_registers
  1943   001238  6ED9               	movwf	fsr2l,c
  1944   00123A  6ADA               	clrf	fsr2h,c
  1945   00123C  CFDE F070          	movff	postinc2,??_gpio_pin_direction_initialize+2
  1946   001240  CFDD F071          	movff	postdec2,??_gpio_pin_direction_initialize+3
  1947   001244  C070  FFD9         	movff	??_gpio_pin_direction_initialize+2,fsr2l
  1948   001248  C071  FFDA         	movff	??_gpio_pin_direction_initialize+3,fsr2h
  1949   00124C  506F               	movf	(??_gpio_pin_direction_initialize+1)^0,w,c
  1950   00124E  12DF               	iorwf	indf2,f,c
  1951                           
  1952                           ;MCAL_Layer/GPIO/mcal_gpio.c: 47:                 break;
  1953   001250  EF44  F009         	goto	l542
  1954   001254                     l4395:
  1955   001254  0E00               	movlw	0
  1956   001256  6E73               	movwf	gpio_pin_direction_initialize@ret^0,c
  1957                           
  1958                           ;MCAL_Layer/GPIO/mcal_gpio.c: 49:         }
  1959   001258  EF44  F009         	goto	l542
  1960   00125C                     l4397:
  1961   00125C  506D               	movf	gpio_pin_direction_initialize@_pin_config^0,w,c
  1962   00125E  6ED9               	movwf	fsr2l,c
  1963   001260  6ADA               	clrf	fsr2h,c
  1964   001262  BCDF               	btfsc	indf2,6,c
  1965   001264  EF36  F009         	goto	u3281
  1966   001268  EF39  F009         	goto	u3280
  1967   00126C                     u3281:
  1968   00126C  0E01               	movlw	1
  1969   00126E  EF3A  F009         	goto	u3286
  1970   001272                     u3280:
  1971   001272  0E00               	movlw	0
  1972   001274                     u3286:
  1973                           
  1974                           ; Switch size 1, requested type "simple"
  1975                           ; Number of cases is 2, Range of values is 0 to 1
  1976                           ; switch strategies available:
  1977                           ; Name         Instructions Cycles
  1978                           ; simple_byte            7     4 (average)
  1979                           ;	Chosen strategy is simple_byte
  1980   001274  0A00               	xorlw	0	; case 0
  1981   001276  B4D8               	btfsc	status,2,c
  1982   001278  EFD7  F008         	goto	l4391
  1983   00127C  0A01               	xorlw	1	; case 1
  1984   00127E  B4D8               	btfsc	status,2,c
  1985   001280  EF02  F009         	goto	l4393
  1986   001284  EF2A  F009         	goto	l4395
  1987   001288                     l542:
  1988                           
  1989                           ;MCAL_Layer/GPIO/mcal_gpio.c: 53:     return ret;
  1990   001288  5073               	movf	gpio_pin_direction_initialize@ret^0,w,c
  1991   00128A  0012               	return		;funcret
  1992   00128C                     __end_of_gpio_pin_direction_initialize:
  1993                           	callstack 0
  1994                           
  1995 ;; *************** function _ccp_Mode_Timer_Select *****************
  1996 ;; Defined at:
  1997 ;;		line 636 in file "MCAL_Layer/CCP/mcal_ccp.c"
  1998 ;; Parameters:    Size  Location     Type
  1999 ;;  _ccp_obj        1    8[COMRAM] PTR const struct .
  2000 ;;		 -> ccp(5), 
  2001 ;; Auto vars:     Size  Location     Type
  2002 ;;		None
  2003 ;; Return value:  Size  Location     Type
  2004 ;;                  1    wreg      void 
  2005 ;; Registers used:
  2006 ;;		wreg, fsr2l, fsr2h, status,2, status,0
  2007 ;; Tracked objects:
  2008 ;;		On entry : 0/0
  2009 ;;		On exit  : 0/0
  2010 ;;		Unchanged: 0/0
  2011 ;; Data sizes:     COMRAM   BANK0   BANK1   BANK2   BANK3   BANK4   BANK5   BANK6   BANK7   BANK8   BANK9  BANK10  BANK1
      +1  BANK12  BANK13  BANK14  BANK15
  2012 ;;      Params:         1       0       0       0       0       0       0       0       0       0       0       0       
      +0       0       0       0       0
  2013 ;;      Locals:         0       0       0       0       0       0       0       0       0       0       0       0       
      +0       0       0       0       0
  2014 ;;      Temps:          1       0       0       0       0       0       0       0       0       0       0       0       
      +0       0       0       0       0
  2015 ;;      Totals:         2       0       0       0       0       0       0       0       0       0       0       0       
      +0       0       0       0       0
  2016 ;;Total ram usage:        2 bytes
  2017 ;; Hardware stack levels used: 1
  2018 ;; Hardware stack levels required when called: 4
  2019 ;; This function calls:
  2020 ;;		Nothing
  2021 ;; This function is called by:
  2022 ;;		_ccp1_Init
  2023 ;; This function uses a non-reentrant model
  2024 ;;
  2025                           
  2026                           	psect	text13
  2027   00159A                     __ptext13:
  2028                           	callstack 0
  2029   00159A                     _ccp_Mode_Timer_Select:
  2030                           	callstack 24
  2031   00159A                     
  2032                           ;MCAL_Layer/CCP/mcal_ccp.c: 636:     static void ccp_Mode_Timer_Select(const ccp_config_
      +                          t *_ccp_obj);MCAL_Layer/CCP/mcal_ccp.c: 637:     {;MCAL_Layer/CCP/mcal_ccp.c: 638:      
      +                             if(CCP1_CCP2_TIMER3 == _ccp_obj->ccp_capture_timer)
  2033   00159A  506D               	movf	ccp_Mode_Timer_Select@_ccp_obj^0,w,c
  2034   00159C  6ED9               	movwf	fsr2l,c
  2035   00159E  6ADA               	clrf	fsr2h,c
  2036   0015A0  0E04               	movlw	4
  2037   0015A2  26D9               	addwf	fsr2l,f,c
  2038   0015A4  0E02               	movlw	2
  2039   0015A6  18DE               	xorwf	postinc2,w,c
  2040   0015A8  A4D8               	btfss	status,2,c
  2041   0015AA  EFD9  F00A         	goto	u3401
  2042   0015AE  EFDB  F00A         	goto	u3400
  2043   0015B2                     u3401:
  2044   0015B2  EFDF  F00A         	goto	l4465
  2045   0015B6                     u3400:
  2046   0015B6                     
  2047                           ;MCAL_Layer/CCP/mcal_ccp.c: 639:         {;MCAL_Layer/CCP/mcal_ccp.c: 641:             T
      +                          3CONbits.T3CCP1 = 0;
  2048   0015B6  96B1               	bcf	177,3,c	;volatile
  2049                           
  2050                           ;MCAL_Layer/CCP/mcal_ccp.c: 642:             T3CONbits.T3CCP2 = 1;
  2051   0015B8  8CB1               	bsf	177,6,c	;volatile
  2052                           
  2053                           ;MCAL_Layer/CCP/mcal_ccp.c: 643:         }
  2054   0015BA  EF01  F00B         	goto	l964
  2055   0015BE                     l4465:
  2056   0015BE  506D               	movf	ccp_Mode_Timer_Select@_ccp_obj^0,w,c
  2057   0015C0  6ED9               	movwf	fsr2l,c
  2058   0015C2  6ADA               	clrf	fsr2h,c
  2059   0015C4  0E04               	movlw	4
  2060   0015C6  26D9               	addwf	fsr2l,f,c
  2061   0015C8  04DE               	decf	postinc2,w,c
  2062   0015CA  A4D8               	btfss	status,2,c
  2063   0015CC  EFEA  F00A         	goto	u3411
  2064   0015D0  EFEC  F00A         	goto	u3410
  2065   0015D4                     u3411:
  2066   0015D4  EFF0  F00A         	goto	l4469
  2067   0015D8                     u3410:
  2068   0015D8                     
  2069                           ;MCAL_Layer/CCP/mcal_ccp.c: 647:             T3CONbits.T3CCP1 = 1;
  2070   0015D8  86B1               	bsf	177,3,c	;volatile
  2071                           
  2072                           ;MCAL_Layer/CCP/mcal_ccp.c: 648:             T3CONbits.T3CCP2 = 0;
  2073   0015DA  9CB1               	bcf	177,6,c	;volatile
  2074                           
  2075                           ;MCAL_Layer/CCP/mcal_ccp.c: 649:         }
  2076   0015DC  EF01  F00B         	goto	l964
  2077   0015E0                     l4469:
  2078   0015E0  506D               	movf	ccp_Mode_Timer_Select@_ccp_obj^0,w,c
  2079   0015E2  6ED9               	movwf	fsr2l,c
  2080   0015E4  6ADA               	clrf	fsr2h,c
  2081   0015E6  0E04               	movlw	4
  2082   0015E8  26D9               	addwf	fsr2l,f,c
  2083   0015EA  50DF               	movf	indf2,w,c
  2084   0015EC  A4D8               	btfss	status,2,c
  2085   0015EE  EFFB  F00A         	goto	u3421
  2086   0015F2  EFFD  F00A         	goto	u3420
  2087   0015F6                     u3421:
  2088   0015F6  EF01  F00B         	goto	l961
  2089   0015FA                     u3420:
  2090   0015FA                     
  2091                           ;MCAL_Layer/CCP/mcal_ccp.c: 652:             T3CONbits.T3CCP1 = 0;
  2092   0015FA  96B1               	bcf	177,3,c	;volatile
  2093                           
  2094                           ;MCAL_Layer/CCP/mcal_ccp.c: 653:             T3CONbits.T3CCP2 = 0;
  2095   0015FC  9CB1               	bcf	177,6,c	;volatile
  2096                           
  2097                           ;MCAL_Layer/CCP/mcal_ccp.c: 654:         }
  2098   0015FE  EF01  F00B         	goto	l964
  2099   001602                     l961:
  2100   001602                     l964:
  2101   001602  0012               	return		;funcret
  2102   001604                     __end_of_ccp_Mode_Timer_Select:
  2103                           	callstack 0
  2104                           
  2105 ;; *************** function _ccp1_Interrupt_Config *****************
  2106 ;; Defined at:
  2107 ;;		line 527 in file "MCAL_Layer/CCP/mcal_ccp.c"
  2108 ;; Parameters:    Size  Location     Type
  2109 ;;  _ccp_obj        1    8[COMRAM] PTR const struct .
  2110 ;;		 -> ccp(5), 
  2111 ;; Auto vars:     Size  Location     Type
  2112 ;;		None
  2113 ;; Return value:  Size  Location     Type
  2114 ;;                  1    wreg      void 
  2115 ;; Registers used:
  2116 ;;		wreg, fsr2l, fsr2h, status,2, status,0, cstack
  2117 ;; Tracked objects:
  2118 ;;		On entry : 0/0
  2119 ;;		On exit  : 0/0
  2120 ;;		Unchanged: 0/0
  2121 ;; Data sizes:     COMRAM   BANK0   BANK1   BANK2   BANK3   BANK4   BANK5   BANK6   BANK7   BANK8   BANK9  BANK10  BANK1
      +1  BANK12  BANK13  BANK14  BANK15
  2122 ;;      Params:         1       0       0       0       0       0       0       0       0       0       0       0       
      +0       0       0       0       0
  2123 ;;      Locals:         0       0       0       0       0       0       0       0       0       0       0       0       
      +0       0       0       0       0
  2124 ;;      Temps:          0       0       0       0       0       0       0       0       0       0       0       0       
      +0       0       0       0       0
  2125 ;;      Totals:         1       0       0       0       0       0       0       0       0       0       0       0       
      +0       0       0       0       0
  2126 ;;Total ram usage:        1 bytes
  2127 ;; Hardware stack levels used: 1
  2128 ;; Hardware stack levels required when called: 5
  2129 ;; This function calls:
  2130 ;;		_global_interrupt_Enable
  2131 ;; This function is called by:
  2132 ;;		_ccp1_Init
  2133 ;; This function uses a non-reentrant model
  2134 ;;
  2135                           
  2136                           	psect	text14
  2137   001892                     __ptext14:
  2138                           	callstack 0
  2139   001892                     _ccp1_Interrupt_Config:
  2140                           	callstack 23
  2141   001892                     
  2142                           ;MCAL_Layer/CCP/mcal_ccp.c: 527:         static void ccp1_Interrupt_Config(const ccp_con
      +                          fig_t *_ccp_obj);MCAL_Layer/CCP/mcal_ccp.c: 528:         {;MCAL_Layer/CCP/mcal_ccp.c: 53
      +                          0:             CCP1_InterruptHandler = _ccp_obj->CCP1_InterruptHandler;
  2143   001892  506D               	movf	ccp1_Interrupt_Config@_ccp_obj^0,w,c
  2144   001894  6ED9               	movwf	fsr2l,c
  2145   001896  6ADA               	clrf	fsr2h,c
  2146   001898  0E02               	movlw	2
  2147   00189A  26D9               	addwf	fsr2l,f,c
  2148   00189C  CFDE F04C          	movff	postinc2,_CCP1_InterruptHandler
  2149   0018A0  CFDD F04D          	movff	postdec2,_CCP1_InterruptHandler+1
  2150   0018A4                     
  2151                           ;MCAL_Layer/CCP/mcal_ccp.c: 543:             (PIR1bits.CCP1IF = 0);
  2152   0018A4  949E               	bcf	158,2,c	;volatile
  2153   0018A6                     
  2154                           ;MCAL_Layer/CCP/mcal_ccp.c: 544:             (PIE1bits.CCP1IE = 1);
  2155   0018A6  849D               	bsf	157,2,c	;volatile
  2156   0018A8                     
  2157                           ;MCAL_Layer/CCP/mcal_ccp.c: 545:             global_interrupt_Enable();
  2158   0018A8  EC77  F00C         	call	_global_interrupt_Enable	;wreg free
  2159   0018AC  0012               	return		;funcret
  2160   0018AE                     __end_of_ccp1_Interrupt_Config:
  2161                           	callstack 0
  2162                           
  2163 ;; *************** function _global_interrupt_Enable *****************
  2164 ;; Defined at:
  2165 ;;		line 18 in file "MCAL_Layer/Interrupt/mcal_interrupt_cfg.c"
  2166 ;; Parameters:    Size  Location     Type
  2167 ;;		None
  2168 ;; Auto vars:     Size  Location     Type
  2169 ;;		None
  2170 ;; Return value:  Size  Location     Type
  2171 ;;                  1    wreg      void 
  2172 ;; Registers used:
  2173 ;;		None
  2174 ;; Tracked objects:
  2175 ;;		On entry : 0/0
  2176 ;;		On exit  : 0/0
  2177 ;;		Unchanged: 0/0
  2178 ;; Data sizes:     COMRAM   BANK0   BANK1   BANK2   BANK3   BANK4   BANK5   BANK6   BANK7   BANK8   BANK9  BANK10  BANK1
      +1  BANK12  BANK13  BANK14  BANK15
  2179 ;;      Params:         0       0       0       0       0       0       0       0       0       0       0       0       
      +0       0       0       0       0
  2180 ;;      Locals:         0       0       0       0       0       0       0       0       0       0       0       0       
      +0       0       0       0       0
  2181 ;;      Temps:          0       0       0       0       0       0       0       0       0       0       0       0       
      +0       0       0       0       0
  2182 ;;      Totals:         0       0       0       0       0       0       0       0       0       0       0       0       
      +0       0       0       0       0
  2183 ;;Total ram usage:        0 bytes
  2184 ;; Hardware stack levels used: 1
  2185 ;; Hardware stack levels required when called: 4
  2186 ;; This function calls:
  2187 ;;		Nothing
  2188 ;; This function is called by:
  2189 ;;		_timer1_Init
  2190 ;;		_ccp1_Interrupt_Config
  2191 ;; This function uses a non-reentrant model
  2192 ;;
  2193                           
  2194                           	psect	text15
  2195   0018EE                     __ptext15:
  2196                           	callstack 0
  2197   0018EE                     _global_interrupt_Enable:
  2198                           	callstack 24
  2199   0018EE                     
  2200                           ;MCAL_Layer/Interrupt/mcal_interrupt_cfg.c: 25:     (INTCONbits.GIE = 1);
  2201   0018EE  8EF2               	bsf	242,7,c	;volatile
  2202                           
  2203                           ;MCAL_Layer/Interrupt/mcal_interrupt_cfg.c: 26:     (INTCONbits.PEIE = 1);
  2204   0018F0  8CF2               	bsf	242,6,c	;volatile
  2205   0018F2  0012               	return		;funcret
  2206   0018F4                     __end_of_global_interrupt_Enable:
  2207                           	callstack 0
  2208                           
  2209 ;; *************** function _ccp1_Compare_Mode_Config *****************
  2210 ;; Defined at:
  2211 ;;		line 509 in file "MCAL_Layer/CCP/mcal_ccp.c"
  2212 ;; Parameters:    Size  Location     Type
  2213 ;;  _ccp_obj        1    8[COMRAM] PTR const struct .
  2214 ;;		 -> ccp(5), 
  2215 ;; Auto vars:     Size  Location     Type
  2216 ;;  ret             1    0        unsigned char 
  2217 ;; Return value:  Size  Location     Type
  2218 ;;                  1    wreg      unsigned char 
  2219 ;; Registers used:
  2220 ;;		wreg, fsr2l, fsr2h, status,2, status,0
  2221 ;; Tracked objects:
  2222 ;;		On entry : 0/0
  2223 ;;		On exit  : 0/0
  2224 ;;		Unchanged: 0/0
  2225 ;; Data sizes:     COMRAM   BANK0   BANK1   BANK2   BANK3   BANK4   BANK5   BANK6   BANK7   BANK8   BANK9  BANK10  BANK1
      +1  BANK12  BANK13  BANK14  BANK15
  2226 ;;      Params:         1       0       0       0       0       0       0       0       0       0       0       0       
      +0       0       0       0       0
  2227 ;;      Locals:         0       0       0       0       0       0       0       0       0       0       0       0       
      +0       0       0       0       0
  2228 ;;      Temps:          0       0       0       0       0       0       0       0       0       0       0       0       
      +0       0       0       0       0
  2229 ;;      Totals:         1       0       0       0       0       0       0       0       0       0       0       0       
      +0       0       0       0       0
  2230 ;;Total ram usage:        1 bytes
  2231 ;; Hardware stack levels used: 1
  2232 ;; Hardware stack levels required when called: 4
  2233 ;; This function calls:
  2234 ;;		Nothing
  2235 ;; This function is called by:
  2236 ;;		_ccp1_Init
  2237 ;; This function uses a non-reentrant model
  2238 ;;
  2239                           
  2240                           	psect	text16
  2241   0013B6                     __ptext16:
  2242                           	callstack 0
  2243   0013B6                     _ccp1_Compare_Mode_Config:
  2244                           	callstack 24
  2245   0013B6                     
  2246                           ;MCAL_Layer/CCP/mcal_ccp.c: 514:         switch(_ccp_obj->ccp1_compare_mode)
  2247   0013B6  EFFD  F009         	goto	l4487
  2248   0013BA                     l4475:
  2249   0013BA  50BD               	movf	189,w,c	;volatile
  2250   0013BC  0BF0               	andlw	-16
  2251   0013BE  0908               	iorlw	8
  2252   0013C0  6EBD               	movwf	189,c	;volatile
  2253   0013C2  EF19  F00A         	goto	l952
  2254   0013C6                     l4477:
  2255   0013C6  50BD               	movf	189,w,c	;volatile
  2256   0013C8  0BF0               	andlw	-16
  2257   0013CA  0909               	iorlw	9
  2258   0013CC  6EBD               	movwf	189,c	;volatile
  2259   0013CE  EF19  F00A         	goto	l952
  2260   0013D2                     l4479:
  2261   0013D2  50BD               	movf	189,w,c	;volatile
  2262   0013D4  0BF0               	andlw	-16
  2263   0013D6  0902               	iorlw	2
  2264   0013D8  6EBD               	movwf	189,c	;volatile
  2265   0013DA  EF19  F00A         	goto	l952
  2266   0013DE                     l4481:
  2267   0013DE  50BD               	movf	189,w,c	;volatile
  2268   0013E0  0BF0               	andlw	-16
  2269   0013E2  090A               	iorlw	10
  2270   0013E4  6EBD               	movwf	189,c	;volatile
  2271   0013E6  EF19  F00A         	goto	l952
  2272   0013EA                     l4483:
  2273   0013EA  50BD               	movf	189,w,c	;volatile
  2274   0013EC  0BF0               	andlw	-16
  2275   0013EE  090B               	iorlw	11
  2276   0013F0  6EBD               	movwf	189,c	;volatile
  2277   0013F2  EF19  F00A         	goto	l952
  2278   0013F6                     l4485:
  2279                           
  2280                           ;MCAL_Layer/CCP/mcal_ccp.c: 522:         }
  2281   0013F6  EF19  F00A         	goto	l952
  2282   0013FA                     l4487:
  2283   0013FA  506D               	movf	ccp1_Compare_Mode_Config@_ccp_obj^0,w,c
  2284   0013FC  6ED9               	movwf	fsr2l,c
  2285   0013FE  6ADA               	clrf	fsr2h,c
  2286   001400  0E01               	movlw	1
  2287   001402  26D9               	addwf	fsr2l,f,c
  2288   001404  50DF               	movf	indf2,w,c
  2289                           
  2290                           ; Switch size 1, requested type "simple"
  2291                           ; Number of cases is 5, Range of values is 2 to 11
  2292                           ; switch strategies available:
  2293                           ; Name         Instructions Cycles
  2294                           ; simple_byte           16     9 (average)
  2295                           ;	Chosen strategy is simple_byte
  2296   001406  0A02               	xorlw	2	; case 2
  2297   001408  B4D8               	btfsc	status,2,c
  2298   00140A  EFE9  F009         	goto	l4479
  2299   00140E  0A0A               	xorlw	10	; case 8
  2300   001410  B4D8               	btfsc	status,2,c
  2301   001412  EFDD  F009         	goto	l4475
  2302   001416  0A01               	xorlw	1	; case 9
  2303   001418  B4D8               	btfsc	status,2,c
  2304   00141A  EFE3  F009         	goto	l4477
  2305   00141E  0A03               	xorlw	3	; case 10
  2306   001420  B4D8               	btfsc	status,2,c
  2307   001422  EFEF  F009         	goto	l4481
  2308   001426  0A01               	xorlw	1	; case 11
  2309   001428  B4D8               	btfsc	status,2,c
  2310   00142A  EFF5  F009         	goto	l4483
  2311   00142E  EFFB  F009         	goto	l4485
  2312   001432                     l952:
  2313   001432  0012               	return		;funcret
  2314   001434                     __end_of_ccp1_Compare_Mode_Config:
  2315                           	callstack 0
  2316                           
  2317 ;; *************** function _InterruptManager *****************
  2318 ;; Defined at:
  2319 ;;		line 180 in file "MCAL_Layer/Interrupt/mcal_interrupt_manager.c"
  2320 ;; Parameters:    Size  Location     Type
  2321 ;;		None
  2322 ;; Auto vars:     Size  Location     Type
  2323 ;;		None
  2324 ;; Return value:  Size  Location     Type
  2325 ;;                  1    wreg      void 
  2326 ;; Registers used:
  2327 ;;		wreg, status,2, status,0, pcl, pclath, pclatu, tosl, cstack
  2328 ;; Tracked objects:
  2329 ;;		On entry : 0/0
  2330 ;;		On exit  : 0/0
  2331 ;;		Unchanged: 0/0
  2332 ;; Data sizes:     COMRAM   BANK0   BANK1   BANK2   BANK3   BANK4   BANK5   BANK6   BANK7   BANK8   BANK9  BANK10  BANK1
      +1  BANK12  BANK13  BANK14  BANK15
  2333 ;;      Params:         0       0       0       0       0       0       0       0       0       0       0       0       
      +0       0       0       0       0
  2334 ;;      Locals:         0       0       0       0       0       0       0       0       0       0       0       0       
      +0       0       0       0       0
  2335 ;;      Temps:          2       0       0       0       0       0       0       0       0       0       0       0       
      +0       0       0       0       0
  2336 ;;      Totals:         2       0       0       0       0       0       0       0       0       0       0       0       
      +0       0       0       0       0
  2337 ;;Total ram usage:        2 bytes
  2338 ;; Hardware stack levels used: 1
  2339 ;; Hardware stack levels required when called: 3
  2340 ;; This function calls:
  2341 ;;		_CCP1_ISR
  2342 ;;		_CCP2_ISR
  2343 ;;		_TIMER1_ISR
  2344 ;; This function is called by:
  2345 ;;		Interrupt level 2
  2346 ;; This function uses a non-reentrant model
  2347 ;;
  2348                           
  2349                           	psect	intcode
  2350   000008                     __pintcode:
  2351                           	callstack 0
  2352   000008                     _InterruptManager:
  2353                           	callstack 22
  2354                           
  2355                           ;incstack = 0
  2356   000008  8277               	bsf	int$flags,1,c	;set compiler interrupt flag (level 2)
  2357   00000A  ED92  F00A         	call	int_func,f	;refresh shadow registers
  2358                           
  2359                           	psect	intcode_body
  2360   001524                     __pintcode_body:
  2361                           	callstack 22
  2362   001524                     int_func:
  2363                           	callstack 22
  2364   001524  0006               	pop		; remove dummy address from shadow register refresh
  2365   001526  CFFA F06B          	movff	pclath,??_InterruptManager
  2366   00152A  CFFB F06C          	movff	pclatu,??_InterruptManager+1
  2367   00152E                     
  2368                           ;MCAL_Layer/Interrupt/mcal_interrupt_manager.c: 274:     if((1 == PIE1bits.TMR1IE) && (1
      +                           == PIR1bits.TMR1IF))
  2369   00152E  A09D               	btfss	157,0,c	;volatile
  2370   001530  EF9C  F00A         	goto	i2u317_41
  2371   001534  EF9E  F00A         	goto	i2u317_40
  2372   001538                     i2u317_41:
  2373   001538  EFA7  F00A         	goto	i2l620
  2374   00153C                     i2u317_40:
  2375   00153C  A09E               	btfss	158,0,c	;volatile
  2376   00153E  EFA3  F00A         	goto	i2u318_41
  2377   001542  EFA5  F00A         	goto	i2u318_40
  2378   001546                     i2u318_41:
  2379   001546  EFA7  F00A         	goto	i2l620
  2380   00154A                     i2u318_40:
  2381   00154A                     
  2382                           ;MCAL_Layer/Interrupt/mcal_interrupt_manager.c: 275:     {;MCAL_Layer/Interrupt/mcal_int
      +                          errupt_manager.c: 276:         TIMER1_ISR();
  2383   00154A  EC6C  F00C         	call	_TIMER1_ISR	;wreg free
  2384   00154E                     i2l620:
  2385                           
  2386                           ;MCAL_Layer/Interrupt/mcal_interrupt_manager.c: 301:     if((1 == PIE1bits.CCP1IE) && (1
      +                           == PIR1bits.CCP1IF))
  2387   00154E  A49D               	btfss	157,2,c	;volatile
  2388   001550  EFAC  F00A         	goto	i2u319_41
  2389   001554  EFAE  F00A         	goto	i2u319_40
  2390   001558                     i2u319_41:
  2391   001558  EFB7  F00A         	goto	i2l622
  2392   00155C                     i2u319_40:
  2393   00155C  A49E               	btfss	158,2,c	;volatile
  2394   00155E  EFB3  F00A         	goto	i2u320_41
  2395   001562  EFB5  F00A         	goto	i2u320_40
  2396   001566                     i2u320_41:
  2397   001566  EFB7  F00A         	goto	i2l622
  2398   00156A                     i2u320_40:
  2399   00156A                     
  2400                           ;MCAL_Layer/Interrupt/mcal_interrupt_manager.c: 302:     {;MCAL_Layer/Interrupt/mcal_int
      +                          errupt_manager.c: 303:         CCP1_ISR();
  2401   00156A  EC0F  F00C         	call	_CCP1_ISR	;wreg free
  2402   00156E                     i2l622:
  2403                           
  2404                           ;MCAL_Layer/Interrupt/mcal_interrupt_manager.c: 310:     if((1 == PIE2bits.CCP2IE) && (1
      +                           == PIR2bits.CCP2IF))
  2405   00156E  A0A0               	btfss	160,0,c	;volatile
  2406   001570  EFBC  F00A         	goto	i2u321_41
  2407   001574  EFBE  F00A         	goto	i2u321_40
  2408   001578                     i2u321_41:
  2409   001578  EFC7  F00A         	goto	i2l625
  2410   00157C                     i2u321_40:
  2411   00157C  A0A1               	btfss	161,0,c	;volatile
  2412   00157E  EFC3  F00A         	goto	i2u322_41
  2413   001582  EFC5  F00A         	goto	i2u322_40
  2414   001586                     i2u322_41:
  2415   001586  EFC7  F00A         	goto	i2l625
  2416   00158A                     i2u322_40:
  2417   00158A                     
  2418                           ;MCAL_Layer/Interrupt/mcal_interrupt_manager.c: 311:     {;MCAL_Layer/Interrupt/mcal_int
      +                          errupt_manager.c: 312:         CCP2_ISR();
  2419   00158A  EC7A  F00C         	call	_CCP2_ISR	;wreg free
  2420   00158E                     i2l625:
  2421   00158E  C06C  FFFB         	movff	??_InterruptManager+1,pclatu
  2422   001592  C06B  FFFA         	movff	??_InterruptManager,pclath
  2423   001596  9277               	bcf	int$flags,1,c	;clear compiler interrupt flag (level 2)
  2424   001598  0011               	retfie		f
  2425   00159A                     __end_of_InterruptManager:
  2426                           	callstack 0
  2427                           
  2428 ;; *************** function _TIMER1_ISR *****************
  2429 ;; Defined at:
  2430 ;;		line 180 in file "MCAL_Layer/Timer1/mcal_timer1.c"
  2431 ;; Parameters:    Size  Location     Type
  2432 ;;		None
  2433 ;; Auto vars:     Size  Location     Type
  2434 ;;		None
  2435 ;; Return value:  Size  Location     Type
  2436 ;;                  1    wreg      void 
  2437 ;; Registers used:
  2438 ;;		wreg, status,2
  2439 ;; Tracked objects:
  2440 ;;		On entry : 0/0
  2441 ;;		On exit  : 0/0
  2442 ;;		Unchanged: 0/0
  2443 ;; Data sizes:     COMRAM   BANK0   BANK1   BANK2   BANK3   BANK4   BANK5   BANK6   BANK7   BANK8   BANK9  BANK10  BANK1
      +1  BANK12  BANK13  BANK14  BANK15
  2444 ;;      Params:         0       0       0       0       0       0       0       0       0       0       0       0       
      +0       0       0       0       0
  2445 ;;      Locals:         0       0       0       0       0       0       0       0       0       0       0       0       
      +0       0       0       0       0
  2446 ;;      Temps:          0       0       0       0       0       0       0       0       0       0       0       0       
      +0       0       0       0       0
  2447 ;;      Totals:         0       0       0       0       0       0       0       0       0       0       0       0       
      +0       0       0       0       0
  2448 ;;Total ram usage:        0 bytes
  2449 ;; Hardware stack levels used: 1
  2450 ;; This function calls:
  2451 ;;		Nothing
  2452 ;; This function is called by:
  2453 ;;		_InterruptManager
  2454 ;; This function uses a non-reentrant model
  2455 ;;
  2456                           
  2457                           	psect	text18
  2458   0018D8                     __ptext18:
  2459                           	callstack 0
  2460   0018D8                     _TIMER1_ISR:
  2461                           	callstack 24
  2462   0018D8                     
  2463                           ;MCAL_Layer/Timer1/mcal_timer1.c: 183:     (PIR1bits.TMR1IF = 0);
  2464   0018D8  909E               	bcf	158,0,c	;volatile
  2465   0018DA                     
  2466                           ;MCAL_Layer/Timer1/mcal_timer1.c: 185:     TMR1H = (timer1_preload) >> 8;
  2467   0018DA  5051               	movf	(_timer1_preload+1)^0,w,c
  2468   0018DC  6ECF               	movwf	207,c	;volatile
  2469   0018DE                     
  2470                           ;MCAL_Layer/Timer1/mcal_timer1.c: 186:     TMR1L = (uint8)(timer1_preload);
  2471   0018DE  C050  FFCE         	movff	_timer1_preload,4046	;volatile
  2472   0018E2  0012               	return		;funcret
  2473   0018E4                     __end_of_TIMER1_ISR:
  2474                           	callstack 0
  2475                           
  2476 ;; *************** function _CCP2_ISR *****************
  2477 ;; Defined at:
  2478 ;;		line 692 in file "MCAL_Layer/CCP/mcal_ccp.c"
  2479 ;; Parameters:    Size  Location     Type
  2480 ;;		None
  2481 ;; Auto vars:     Size  Location     Type
  2482 ;;		None
  2483 ;; Return value:  Size  Location     Type
  2484 ;;                  1    wreg      void 
  2485 ;; Registers used:
  2486 ;;		None
  2487 ;; Tracked objects:
  2488 ;;		On entry : 0/0
  2489 ;;		On exit  : 0/0
  2490 ;;		Unchanged: 0/0
  2491 ;; Data sizes:     COMRAM   BANK0   BANK1   BANK2   BANK3   BANK4   BANK5   BANK6   BANK7   BANK8   BANK9  BANK10  BANK1
      +1  BANK12  BANK13  BANK14  BANK15
  2492 ;;      Params:         0       0       0       0       0       0       0       0       0       0       0       0       
      +0       0       0       0       0
  2493 ;;      Locals:         0       0       0       0       0       0       0       0       0       0       0       0       
      +0       0       0       0       0
  2494 ;;      Temps:          0       0       0       0       0       0       0       0       0       0       0       0       
      +0       0       0       0       0
  2495 ;;      Totals:         0       0       0       0       0       0       0       0       0       0       0       0       
      +0       0       0       0       0
  2496 ;;Total ram usage:        0 bytes
  2497 ;; Hardware stack levels used: 1
  2498 ;; This function calls:
  2499 ;;		Nothing
  2500 ;; This function is called by:
  2501 ;;		_InterruptManager
  2502 ;; This function uses a non-reentrant model
  2503 ;;
  2504                           
  2505                           	psect	text19
  2506   0018F4                     __ptext19:
  2507                           	callstack 0
  2508   0018F4                     _CCP2_ISR:
  2509                           	callstack 24
  2510   0018F4                     
  2511                           ;MCAL_Layer/CCP/mcal_ccp.c: 695:     (PIR2bits.CCP2IF = 0);
  2512   0018F4  90A1               	bcf	161,0,c	;volatile
  2513   0018F6  0012               	return		;funcret
  2514   0018F8                     __end_of_CCP2_ISR:
  2515                           	callstack 0
  2516                           
  2517 ;; *************** function _CCP1_ISR *****************
  2518 ;; Defined at:
  2519 ;;		line 674 in file "MCAL_Layer/CCP/mcal_ccp.c"
  2520 ;; Parameters:    Size  Location     Type
  2521 ;;		None
  2522 ;; Auto vars:     Size  Location     Type
  2523 ;;		None
  2524 ;; Return value:  Size  Location     Type
  2525 ;;                  1    wreg      void 
  2526 ;; Registers used:
  2527 ;;		wreg, status,2, status,0, pcl, pclath, pclatu, tosl, cstack
  2528 ;; Tracked objects:
  2529 ;;		On entry : 0/0
  2530 ;;		On exit  : 0/0
  2531 ;;		Unchanged: 0/0
  2532 ;; Data sizes:     COMRAM   BANK0   BANK1   BANK2   BANK3   BANK4   BANK5   BANK6   BANK7   BANK8   BANK9  BANK10  BANK1
      +1  BANK12  BANK13  BANK14  BANK15
  2533 ;;      Params:         0       0       0       0       0       0       0       0       0       0       0       0       
      +0       0       0       0       0
  2534 ;;      Locals:         0       0       0       0       0       0       0       0       0       0       0       0       
      +0       0       0       0       0
  2535 ;;      Temps:          0       0       0       0       0       0       0       0       0       0       0       0       
      +0       0       0       0       0
  2536 ;;      Totals:         0       0       0       0       0       0       0       0       0       0       0       0       
      +0       0       0       0       0
  2537 ;;Total ram usage:        0 bytes
  2538 ;; Hardware stack levels used: 1
  2539 ;; Hardware stack levels required when called: 2
  2540 ;; This function calls:
  2541 ;;		NULL
  2542 ;;		_CCP1_APP_ISR
  2543 ;; This function is called by:
  2544 ;;		_InterruptManager
  2545 ;; This function uses a non-reentrant model
  2546 ;;
  2547                           
  2548                           	psect	text20
  2549   00181E                     __ptext20:
  2550                           	callstack 0
  2551   00181E                     _CCP1_ISR:
  2552                           	callstack 22
  2553   00181E                     
  2554                           ;MCAL_Layer/CCP/mcal_ccp.c: 677:     (PIR1bits.CCP1IF = 0);
  2555   00181E  949E               	bcf	158,2,c	;volatile
  2556   001820                     
  2557                           ;MCAL_Layer/CCP/mcal_ccp.c: 681:     if(CCP1_InterruptHandler)
  2558   001820  504C               	movf	_CCP1_InterruptHandler^0,w,c
  2559   001822  104D               	iorwf	(_CCP1_InterruptHandler+1)^0,w,c
  2560   001824  B4D8               	btfsc	status,2,c
  2561   001826  EF17  F00C         	goto	i2u260_41
  2562   00182A  EF19  F00C         	goto	i2u260_40
  2563   00182E                     i2u260_41:
  2564   00182E  EF25  F00C         	goto	i2l969
  2565   001832                     i2u260_40:
  2566   001832                     
  2567                           ;MCAL_Layer/CCP/mcal_ccp.c: 682:     {;MCAL_Layer/CCP/mcal_ccp.c: 683:         CCP1_Inte
      +                          rruptHandler();
  2568   001832  D802               	call	i2u261_48
  2569   001834  EF25  F00C         	goto	i2u261_49
  2570   001838                     i2u261_48:
  2571   001838  0005               	push	
  2572   00183A  6EFA               	movwf	pclath,c
  2573   00183C  504C               	movf	_CCP1_InterruptHandler^0,w,c
  2574   00183E  6EFD               	movwf	tosl,c
  2575   001840  504D               	movf	(_CCP1_InterruptHandler+1)^0,w,c
  2576   001842  6EFE               	movwf	tosh,c
  2577   001844  6AFF               	clrf	tosu,c
  2578   001846  50FA               	movf	pclath,w,c
  2579   001848  0012               	return		;indir
  2580   00184A                     i2u261_49:
  2581   00184A                     i2l969:
  2582   00184A  0012               	return		;funcret
  2583   00184C                     __end_of_CCP1_ISR:
  2584                           	callstack 0
  2585                           
  2586 ;; *************** function _CCP1_APP_ISR *****************
  2587 ;; Defined at:
  2588 ;;		line 66 in file "Application1.c"
  2589 ;; Parameters:    Size  Location     Type
  2590 ;;		None
  2591 ;; Auto vars:     Size  Location     Type
  2592 ;;  ret             1    0        unsigned char 
  2593 ;; Return value:  Size  Location     Type
  2594 ;;                  1    wreg      void 
  2595 ;; Registers used:
  2596 ;;		wreg, status,2, status,0, cstack
  2597 ;; Tracked objects:
  2598 ;;		On entry : 0/0
  2599 ;;		On exit  : 0/0
  2600 ;;		Unchanged: 0/0
  2601 ;; Data sizes:     COMRAM   BANK0   BANK1   BANK2   BANK3   BANK4   BANK5   BANK6   BANK7   BANK8   BANK9  BANK10  BANK1
      +1  BANK12  BANK13  BANK14  BANK15
  2602 ;;      Params:         0       0       0       0       0       0       0       0       0       0       0       0       
      +0       0       0       0       0
  2603 ;;      Locals:         0       0       0       0       0       0       0       0       0       0       0       0       
      +0       0       0       0       0
  2604 ;;      Temps:          0       0       0       0       0       0       0       0       0       0       0       0       
      +0       0       0       0       0
  2605 ;;      Totals:         0       0       0       0       0       0       0       0       0       0       0       0       
      +0       0       0       0       0
  2606 ;;Total ram usage:        0 bytes
  2607 ;; Hardware stack levels used: 1
  2608 ;; Hardware stack levels required when called: 1
  2609 ;; This function calls:
  2610 ;;		_timer1_Write_Value
  2611 ;;		i2_ccp1_Compare_Mode_Set_Value
  2612 ;; This function is called by:
  2613 ;;		_CCP1_ISR
  2614 ;; This function uses a non-reentrant model
  2615 ;;
  2616                           
  2617                           	psect	text21
  2618   001666                     __ptext21:
  2619                           	callstack 0
  2620   001666                     _CCP1_APP_ISR:
  2621                           	callstack 22
  2622   001666  0E60               	movlw	low _timer1
  2623   001668  6E65               	movwf	timer1_Write_Value@_timer^0,c
  2624   00166A  0E00               	movlw	0
  2625   00166C  6E67               	movwf	(timer1_Write_Value@_value+1)^0,c
  2626   00166E  0E00               	movlw	0
  2627   001670  6E66               	movwf	timer1_Write_Value@_value^0,c
  2628   001672  EC26  F00C         	call	_timer1_Write_Value	;wreg free
  2629   001676                     
  2630                           ;Application1.c: 71:     if(0 == flag)
  2631   001676  5056               	movf	CCP1_APP_ISR@flag^0,w,c
  2632   001678  A4D8               	btfss	status,2,c
  2633   00167A  EF41  F00B         	goto	i2u246_41
  2634   00167E  EF43  F00B         	goto	i2u246_40
  2635   001682                     i2u246_41:
  2636   001682  EF4F  F00B         	goto	i2l3657
  2637   001686                     i2u246_40:
  2638   001686  0E38               	movlw	low _ccp
  2639   001688  6E65               	movwf	i2ccp1_Compare_Mode_Set_Value@_ccp_obj^0,c
  2640   00168A  0E30               	movlw	48
  2641   00168C  6E67               	movwf	(i2ccp1_Compare_Mode_Set_Value@compare_value+1)^0,c
  2642   00168E  0ED4               	movlw	212
  2643   001690  6E66               	movwf	i2ccp1_Compare_Mode_Set_Value@compare_value^0,c
  2644   001692  ECF7  F00B         	call	i2_ccp1_Compare_Mode_Set_Value	;wreg free
  2645   001696                     
  2646                           ;Application1.c: 74:         flag = 1;
  2647   001696  0E01               	movlw	1
  2648   001698  6E56               	movwf	CCP1_APP_ISR@flag^0,c
  2649                           
  2650                           ;Application1.c: 75:     }
  2651   00169A  EF61  F00B         	goto	i2l889
  2652   00169E                     i2l3657:
  2653   00169E  0456               	decf	CCP1_APP_ISR@flag^0,w,c
  2654   0016A0  A4D8               	btfss	status,2,c
  2655   0016A2  EF55  F00B         	goto	i2u247_41
  2656   0016A6  EF57  F00B         	goto	i2u247_40
  2657   0016AA                     i2u247_41:
  2658   0016AA  EF61  F00B         	goto	i2l889
  2659   0016AE                     i2u247_40:
  2660   0016AE  0E38               	movlw	low _ccp
  2661   0016B0  6E65               	movwf	i2ccp1_Compare_Mode_Set_Value@_ccp_obj^0,c
  2662   0016B2  0E92               	movlw	146
  2663   0016B4  6E67               	movwf	(i2ccp1_Compare_Mode_Set_Value@compare_value+1)^0,c
  2664   0016B6  0E7C               	movlw	124
  2665   0016B8  6E66               	movwf	i2ccp1_Compare_Mode_Set_Value@compare_value^0,c
  2666   0016BA  ECF7  F00B         	call	i2_ccp1_Compare_Mode_Set_Value	;wreg free
  2667   0016BE                     
  2668                           ;Application1.c: 79:         flag = 0;
  2669   0016BE  0E00               	movlw	0
  2670   0016C0  6E56               	movwf	CCP1_APP_ISR@flag^0,c
  2671   0016C2                     i2l889:
  2672   0016C2  0012               	return		;funcret
  2673   0016C4                     __end_of_CCP1_APP_ISR:
  2674                           	callstack 0
  2675                           
  2676 ;; *************** function i2_ccp1_Compare_Mode_Set_Value *****************
  2677 ;; Defined at:
  2678 ;;		line 216 in file "MCAL_Layer/CCP/mcal_ccp.c"
  2679 ;; Parameters:    Size  Location     Type
  2680 ;;  _ccp_obj        1    0[COMRAM] PTR const struct .
  2681 ;;		 -> ccp(5), 
  2682 ;;  compare_valu    2    1[COMRAM] unsigned short 
  2683 ;; Auto vars:     Size  Location     Type
  2684 ;;  capture_temp    2    4[COMRAM] struct .
  2685 ;;  ret             1    3[COMRAM] unsigned char 
  2686 ;; Return value:  Size  Location     Type
  2687 ;;                  1    wreg      unsigned char 
  2688 ;; Registers used:
  2689 ;;		wreg, status,2
  2690 ;; Tracked objects:
  2691 ;;		On entry : 0/0
  2692 ;;		On exit  : 0/0
  2693 ;;		Unchanged: 0/0
  2694 ;; Data sizes:     COMRAM   BANK0   BANK1   BANK2   BANK3   BANK4   BANK5   BANK6   BANK7   BANK8   BANK9  BANK10  BANK1
      +1  BANK12  BANK13  BANK14  BANK15
  2695 ;;      Params:         3       0       0       0       0       0       0       0       0       0       0       0       
      +0       0       0       0       0
  2696 ;;      Locals:         3       0       0       0       0       0       0       0       0       0       0       0       
      +0       0       0       0       0
  2697 ;;      Temps:          0       0       0       0       0       0       0       0       0       0       0       0       
      +0       0       0       0       0
  2698 ;;      Totals:         6       0       0       0       0       0       0       0       0       0       0       0       
      +0       0       0       0       0
  2699 ;;Total ram usage:        6 bytes
  2700 ;; Hardware stack levels used: 1
  2701 ;; This function calls:
  2702 ;;		Nothing
  2703 ;; This function is called by:
  2704 ;;		_CCP1_APP_ISR
  2705 ;; This function uses a non-reentrant model
  2706 ;;
  2707                           
  2708                           	psect	text22
  2709   0017EE                     __ptext22:
  2710                           	callstack 0
  2711   0017EE                     i2_ccp1_Compare_Mode_Set_Value:
  2712                           	callstack 22
  2713   0017EE                     
  2714                           ;MCAL_Layer/CCP/mcal_ccp.c: 216:         Std_ReturnType ccp1_Compare_Mode_Set_Value(cons
      +                          t ccp_config_t *_ccp_obj, uint16 compare_value);MCAL_Layer/CCP/mcal_ccp.c: 217:         
      +                          {;MCAL_Layer/CCP/mcal_ccp.c: 218:             Std_ReturnType ret = (Std_ReturnType)0x01;
  2715   0017EE  0E01               	movlw	1
  2716   0017F0  6E68               	movwf	i2ccp1_Compare_Mode_Set_Value@ret^0,c
  2717   0017F2                     
  2718                           ;MCAL_Layer/CCP/mcal_ccp.c: 221:             if(((void*)0) != _ccp_obj)
  2719   0017F2  5065               	movf	i2ccp1_Compare_Mode_Set_Value@_ccp_obj^0,w,c
  2720   0017F4  B4D8               	btfsc	status,2,c
  2721   0017F6  EFFF  F00B         	goto	i2u234_41
  2722   0017FA  EF01  F00C         	goto	i2u234_40
  2723   0017FE                     i2u234_41:
  2724   0017FE  EF0B  F00C         	goto	i2l3513
  2725   001802                     i2u234_40:
  2726   001802                     
  2727                           ;MCAL_Layer/CCP/mcal_ccp.c: 222:             {;MCAL_Layer/CCP/mcal_ccp.c: 224:          
      +                                 capture_temp_value.ccpr_16Bit = compare_value;
  2728   001802  C066  F069         	movff	i2ccp1_Compare_Mode_Set_Value@compare_value,i2ccp1_Compare_Mode_Set_Value@capture
      +                          _temp_value
  2729   001806  C067  F06A         	movff	i2ccp1_Compare_Mode_Set_Value@compare_value+1,i2ccp1_Compare_Mode_Set_Value@captu
      +                          re_temp_value+1
  2730                           
  2731                           ;MCAL_Layer/CCP/mcal_ccp.c: 225:                 CCPR1L = capture_temp_value.ccpr_low;
  2732   00180A  C069  FFBE         	movff	i2ccp1_Compare_Mode_Set_Value@capture_temp_value,4030	;volatile
  2733                           
  2734                           ;MCAL_Layer/CCP/mcal_ccp.c: 226:                 CCPR1H = capture_temp_value.ccpr_high;
  2735   00180E  C06A  FFBF         	movff	i2ccp1_Compare_Mode_Set_Value@capture_temp_value+1,4031	;volatile
  2736                           
  2737                           ;MCAL_Layer/CCP/mcal_ccp.c: 227:             }
  2738   001812  EF0D  F00C         	goto	i2l940
  2739   001816                     i2l3513:
  2740   001816  0E00               	movlw	0
  2741   001818  6E68               	movwf	i2ccp1_Compare_Mode_Set_Value@ret^0,c
  2742   00181A                     i2l940:
  2743                           
  2744                           ;MCAL_Layer/CCP/mcal_ccp.c: 230:             return ret;
  2745   00181A  5068               	movf	i2ccp1_Compare_Mode_Set_Value@ret^0,w,c
  2746   00181C  0012               	return		;funcret
  2747   00181E                     __end_ofi2_ccp1_Compare_Mode_Set_Value:
  2748                           	callstack 0
  2749                           
  2750 ;; *************** function _timer1_Write_Value *****************
  2751 ;; Defined at:
  2752 ;;		line 93 in file "MCAL_Layer/Timer1/mcal_timer1.c"
  2753 ;; Parameters:    Size  Location     Type
  2754 ;;  _timer          1    0[COMRAM] PTR const struct .
  2755 ;;		 -> timer1(5), 
  2756 ;;  _value          2    1[COMRAM] unsigned short 
  2757 ;; Auto vars:     Size  Location     Type
  2758 ;;  ret             1    3[COMRAM] unsigned char 
  2759 ;; Return value:  Size  Location     Type
  2760 ;;                  1    wreg      unsigned char 
  2761 ;; Registers used:
  2762 ;;		wreg, status,2
  2763 ;; Tracked objects:
  2764 ;;		On entry : 0/0
  2765 ;;		On exit  : 0/0
  2766 ;;		Unchanged: 0/0
  2767 ;; Data sizes:     COMRAM   BANK0   BANK1   BANK2   BANK3   BANK4   BANK5   BANK6   BANK7   BANK8   BANK9  BANK10  BANK1
      +1  BANK12  BANK13  BANK14  BANK15
  2768 ;;      Params:         3       0       0       0       0       0       0       0       0       0       0       0       
      +0       0       0       0       0
  2769 ;;      Locals:         1       0       0       0       0       0       0       0       0       0       0       0       
      +0       0       0       0       0
  2770 ;;      Temps:          0       0       0       0       0       0       0       0       0       0       0       0       
      +0       0       0       0       0
  2771 ;;      Totals:         4       0       0       0       0       0       0       0       0       0       0       0       
      +0       0       0       0       0
  2772 ;;Total ram usage:        4 bytes
  2773 ;; Hardware stack levels used: 1
  2774 ;; This function calls:
  2775 ;;		Nothing
  2776 ;; This function is called by:
  2777 ;;		_CCP1_APP_ISR
  2778 ;; This function uses a non-reentrant model
  2779 ;;
  2780                           
  2781                           	psect	text23
  2782   00184C                     __ptext23:
  2783                           	callstack 0
  2784   00184C                     _timer1_Write_Value:
  2785                           	callstack 22
  2786   00184C                     
  2787                           ;MCAL_Layer/Timer1/mcal_timer1.c: 93: Std_ReturnType timer1_Write_Value(const timer1_con
      +                          fig_t *_timer, uint16 _value);MCAL_Layer/Timer1/mcal_timer1.c: 94: {;MCAL_Layer/Timer1/m
      +                          cal_timer1.c: 95:     Std_ReturnType ret = (Std_ReturnType)0x01;
  2788   00184C  0E01               	movlw	1
  2789   00184E  6E68               	movwf	timer1_Write_Value@ret^0,c
  2790                           
  2791                           ;MCAL_Layer/Timer1/mcal_timer1.c: 97:     if(((void*)0) != _timer)
  2792   001850  5065               	movf	timer1_Write_Value@_timer^0,w,c
  2793   001852  B4D8               	btfsc	status,2,c
  2794   001854  EF2E  F00C         	goto	i2u230_41
  2795   001858  EF30  F00C         	goto	i2u230_40
  2796   00185C                     i2u230_41:
  2797   00185C  EF36  F00C         	goto	i2l3467
  2798   001860                     i2u230_40:
  2799   001860                     
  2800                           ;MCAL_Layer/Timer1/mcal_timer1.c: 98:     {;MCAL_Layer/Timer1/mcal_timer1.c: 99:        
      +                           TMR1H = (_value) >> 8;
  2801   001860  5067               	movf	(timer1_Write_Value@_value+1)^0,w,c
  2802   001862  6ECF               	movwf	207,c	;volatile
  2803   001864                     
  2804                           ;MCAL_Layer/Timer1/mcal_timer1.c: 100:         TMR1L = (uint8)(_value);
  2805   001864  C066  FFCE         	movff	timer1_Write_Value@_value,4046	;volatile
  2806                           
  2807                           ;MCAL_Layer/Timer1/mcal_timer1.c: 101:     }
  2808   001868  EF38  F00C         	goto	i2l736
  2809   00186C                     i2l3467:
  2810   00186C  0E00               	movlw	0
  2811   00186E  6E68               	movwf	timer1_Write_Value@ret^0,c
  2812   001870                     i2l736:
  2813                           
  2814                           ;MCAL_Layer/Timer1/mcal_timer1.c: 104:     return ret;
  2815   001870  5068               	movf	timer1_Write_Value@ret^0,w,c
  2816   001872  0012               	return		;funcret
  2817   001874                     __end_of_timer1_Write_Value:
  2818                           	callstack 0
  2819                           
  2820                           	psect	rparam
  2821   000000                     
  2822                           	psect	temp
  2823   000077                     btemp:
  2824                           	callstack 0
  2825   000077                     	ds	1
  2826   000000                     int$flags	set	btemp
  2827   000000                     wtemp8	set	btemp+1
  2828   000000                     ttemp5	set	btemp+1
  2829   000000                     ttemp6	set	btemp+4
  2830   000000                     ttemp7	set	btemp+8
  2831                           
  2832                           	psect	config
  2833                           
  2834                           ; Padding undefined space
  2835   300000                     	org	3145728
  2836   300000  FF                 	db	255
  2837                           
  2838                           ;Config register CONFIG1H @ 0x300001
  2839                           ;	Oscillator Selection bits
  2840                           ;	OSC = HS, HS oscillator
  2841                           ;	Fail-Safe Clock Monitor Enable bit
  2842                           ;	FCMEN = OFF, Fail-Safe Clock Monitor disabled
  2843                           ;	Internal/External Oscillator Switchover bit
  2844                           ;	IESO = OFF, Oscillator Switchover mode disabled
  2845   300001                     	org	3145729
  2846   300001  02                 	db	2
  2847                           
  2848                           ;Config register CONFIG2L @ 0x300002
  2849                           ;	Power-up Timer Enable bit
  2850                           ;	PWRT = OFF, PWRT disabled
  2851                           ;	Brown-out Reset Enable bits
  2852                           ;	BOREN = OFF, Brown-out Reset disabled in hardware and software
  2853                           ;	Brown Out Reset Voltage bits
  2854                           ;	BORV = 1, 
  2855   300002                     	org	3145730
  2856   300002  09                 	db	9
  2857                           
  2858                           ;Config register CONFIG2H @ 0x300003
  2859                           ;	Watchdog Timer Enable bit
  2860                           ;	WDT = OFF, WDT disabled (control is placed on the SWDTEN bit)
  2861                           ;	Watchdog Timer Postscale Select bits
  2862                           ;	WDTPS = 32768, 1:32768
  2863   300003                     	org	3145731
  2864   300003  1E                 	db	30
  2865                           
  2866                           ; Padding undefined space
  2867   300004                     	org	3145732
  2868   300004  FF                 	db	255
  2869                           
  2870                           ;Config register CONFIG3H @ 0x300005
  2871                           ;	CCP2 MUX bit
  2872                           ;	CCP2MX = PORTC, CCP2 input/output is multiplexed with RC1
  2873                           ;	PORTB A/D Enable bit
  2874                           ;	PBADEN = OFF, PORTB<4:0> pins are configured as digital I/O on Reset
  2875                           ;	Low-Power Timer1 Oscillator Enable bit
  2876                           ;	LPT1OSC = OFF, Timer1 configured for higher power operation
  2877                           ;	MCLR Pin Enable bit
  2878                           ;	MCLRE = ON, MCLR pin enabled; RE3 input pin disabled
  2879   300005                     	org	3145733
  2880   300005  81                 	db	129
  2881                           
  2882                           ;Config register CONFIG4L @ 0x300006
  2883                           ;	Stack Full/Underflow Reset Enable bit
  2884                           ;	STVREN = ON, Stack full/underflow will cause Reset
  2885                           ;	Single-Supply ICSP Enable bit
  2886                           ;	LVP = OFF, Single-Supply ICSP disabled
  2887                           ;	Extended Instruction Set Enable bit
  2888                           ;	XINST = OFF, Instruction set extension and Indexed Addressing mode disabled (Legacy mo
      +                          de)
  2889                           ;	Background Debugger Enable bit
  2890                           ;	DEBUG = 0x1, unprogrammed default
  2891   300006                     	org	3145734
  2892   300006  81                 	db	129
  2893                           
  2894                           ; Padding undefined space
  2895   300007                     	org	3145735
  2896   300007  FF                 	db	255
  2897                           
  2898                           ;Config register CONFIG5L @ 0x300008
  2899                           ;	Code Protection bit
  2900                           ;	CP0 = OFF, Block 0 (000800-003FFFh) not code-protected
  2901                           ;	Code Protection bit
  2902                           ;	CP1 = OFF, Block 1 (004000-007FFFh) not code-protected
  2903                           ;	Code Protection bit
  2904                           ;	CP2 = OFF, Block 2 (008000-00BFFFh) not code-protected
  2905                           ;	Code Protection bit
  2906                           ;	CP3 = OFF, Block 3 (00C000-00FFFFh) not code-protected
  2907   300008                     	org	3145736
  2908   300008  0F                 	db	15
  2909                           
  2910                           ;Config register CONFIG5H @ 0x300009
  2911                           ;	Boot Block Code Protection bit
  2912                           ;	CPB = OFF, Boot block (000000-0007FFh) not code-protected
  2913                           ;	Data EEPROM Code Protection bit
  2914                           ;	CPD = OFF, Data EEPROM not code-protected
  2915   300009                     	org	3145737
  2916   300009  C0                 	db	192
  2917                           
  2918                           ;Config register CONFIG6L @ 0x30000A
  2919                           ;	Write Protection bit
  2920                           ;	WRT0 = OFF, Block 0 (000800-003FFFh) not write-protected
  2921                           ;	Write Protection bit
  2922                           ;	WRT1 = OFF, Block 1 (004000-007FFFh) not write-protected
  2923                           ;	Write Protection bit
  2924                           ;	WRT2 = OFF, Block 2 (008000-00BFFFh) not write-protected
  2925                           ;	Write Protection bit
  2926                           ;	WRT3 = OFF, Block 3 (00C000-00FFFFh) not write-protected
  2927   30000A                     	org	3145738
  2928   30000A  0F                 	db	15
  2929                           
  2930                           ;Config register CONFIG6H @ 0x30000B
  2931                           ;	Configuration Register Write Protection bit
  2932                           ;	WRTC = OFF, Configuration registers (300000-3000FFh) not write-protected
  2933                           ;	Boot Block Write Protection bit
  2934                           ;	WRTB = OFF, Boot Block (000000-0007FFh) not write-protected
  2935                           ;	Data EEPROM Write Protection bit
  2936                           ;	WRTD = OFF, Data EEPROM not write-protected
  2937   30000B                     	org	3145739
  2938   30000B  E0                 	db	224
  2939                           
  2940                           ;Config register CONFIG7L @ 0x30000C
  2941                           ;	Table Read Protection bit
  2942                           ;	EBTR0 = OFF, Block 0 (000800-003FFFh) not protected from table reads executed in other
      +                           blocks
  2943                           ;	Table Read Protection bit
  2944                           ;	EBTR1 = OFF, Block 1 (004000-007FFFh) not protected from table reads executed in other
      +                           blocks
  2945                           ;	Table Read Protection bit
  2946                           ;	EBTR2 = OFF, Block 2 (008000-00BFFFh) not protected from table reads executed in other
      +                           blocks
  2947                           ;	Table Read Protection bit
  2948                           ;	EBTR3 = OFF, Block 3 (00C000-00FFFFh) not protected from table reads executed in other
      +                           blocks
  2949   30000C                     	org	3145740
  2950   30000C  0F                 	db	15
  2951                           
  2952                           ;Config register CONFIG7H @ 0x30000D
  2953                           ;	Boot Block Table Read Protection bit
  2954                           ;	EBTRB = OFF, Boot Block (000000-0007FFh) not protected from table reads executed in ot
      +                          her blocks
  2955   30000D                     	org	3145741
  2956   30000D  40                 	db	64
  2957                           tosu	equ	0xFFF
  2958                           tosh	equ	0xFFE
  2959                           tosl	equ	0xFFD
  2960                           stkptr	equ	0xFFC
  2961                           pclatu	equ	0xFFB
  2962                           pclath	equ	0xFFA
  2963                           pcl	equ	0xFF9
  2964                           tblptru	equ	0xFF8
  2965                           tblptrh	equ	0xFF7
  2966                           tblptrl	equ	0xFF6
  2967                           tablat	equ	0xFF5
  2968                           prodh	equ	0xFF4
  2969                           prodl	equ	0xFF3
  2970                           indf0	equ	0xFEF
  2971                           postinc0	equ	0xFEE
  2972                           postdec0	equ	0xFED
  2973                           preinc0	equ	0xFEC
  2974                           plusw0	equ	0xFEB
  2975                           fsr0h	equ	0xFEA
  2976                           fsr0l	equ	0xFE9
  2977                           wreg	equ	0xFE8
  2978                           indf1	equ	0xFE7
  2979                           postinc1	equ	0xFE6
  2980                           postdec1	equ	0xFE5
  2981                           preinc1	equ	0xFE4
  2982                           plusw1	equ	0xFE3
  2983                           fsr1h	equ	0xFE2
  2984                           fsr1l	equ	0xFE1
  2985                           bsr	equ	0xFE0
  2986                           indf2	equ	0xFDF
  2987                           postinc2	equ	0xFDE
  2988                           postdec2	equ	0xFDD
  2989                           preinc2	equ	0xFDC
  2990                           plusw2	equ	0xFDB
  2991                           fsr2h	equ	0xFDA
  2992                           fsr2l	equ	0xFD9
  2993                           status	equ	0xFD8

Data Sizes:
    Strings     3
    Constant    16
    Data        71
    BSS         50
    Persistent  0
    Stack       0

Auto Spaces:
    Space          Size  Autos    Used
    COMRAM          126     18     118
    BANK0           128      6      27
    BANK1           256      0       0
    BANK2           256      0       0
    BANK3           256      0       0
    BANK4           256      0       0
    BANK5           256      0       0
    BANK6           256      0       0
    BANK7           256      0       0
    BANK8           256      0       0
    BANK9           256      0       0
    BANK10          256      0       0
    BANK11          256      0       0
    BANK12          256      0       0
    BANK13          256      0       0
    BANK14          256      0       0
    BANK15          128      0       0

Pointer List with Targets:

    ccp$CCP1_InterruptHandler	PTR FTN()void  size(2) Largest target is 1
		 -> CCP1_APP_ISR(), 

    ccp1_Compare_Mode_Config@_ccp_obj	PTR const struct . size(1) Largest target is 5
		 -> ccp(COMRAM[5]), 

    ccp1_Compare_Mode_Config@_ccp_obj$CCP1_InterruptHandler	PTR FTN()void  size(2) Largest target is 1
		 -> CCP1_APP_ISR(), 

    ccp1_Compare_Mode_Set_Value@_ccp_obj	PTR const struct . size(1) Largest target is 5
		 -> ccp(COMRAM[5]), 

    ccp1_Init@_ccp_obj	PTR const struct . size(1) Largest target is 5
		 -> ccp(COMRAM[5]), 

    ccp1_Init@_ccp_obj$CCP1_InterruptHandler	PTR FTN()void  size(2) Largest target is 1
		 -> CCP1_APP_ISR(), 

    ccp1_Interrupt_Config@_ccp_obj	PTR const struct . size(1) Largest target is 5
		 -> ccp(COMRAM[5]), 

    ccp1_Interrupt_Config@_ccp_obj$CCP1_InterruptHandler	PTR FTN()void  size(2) Largest target is 1
		 -> CCP1_APP_ISR(), 

    CCP1_InterruptHandler	PTR FTN()void  size(2) Largest target is 1
		 -> CCP1_APP_ISR(), NULL(), 

    CCP2_InterruptHandler	PTR FTN()void  size(2) Largest target is 1
		 -> NULL(), 

    ccp_Mode_Timer_Select@_ccp_obj	PTR const struct . size(1) Largest target is 5
		 -> ccp(COMRAM[5]), 

    ccp_Mode_Timer_Select@_ccp_obj$CCP1_InterruptHandler	PTR FTN()void  size(2) Largest target is 1
		 -> CCP1_APP_ISR(), 

    f$.$buffer	PTR unsigned char  size(2) Largest target is 0

    f$.$source	PTR const unsigned char  size(2) Largest target is 0

    gpio_pin_direction_initialize@_pin_config	PTR const struct . size(1) Largest target is 5
		 -> ccp(COMRAM[5]), led_initialize@pin(BANK0[1]), relay_initialize@pin(COMRAM[1]), 

    gpio_pin_initialize@_pin_config	PTR const struct . size(1) Largest target is 5
		 -> ccp(COMRAM[5]), led_initialize@pin(BANK0[1]), relay_initialize@pin(COMRAM[1]), 

    gpio_pin_write_logic@_pin_config	PTR const struct . size(1) Largest target is 5
		 -> ccp(COMRAM[5]), led_initialize@pin(BANK0[1]), led_turn_off@pin(COMRAM[1]), led_turn_on@pin(COMRAM[1]), 
		 -> relay_initialize@pin(COMRAM[1]), relay_turn_off@pin(COMRAM[1]), relay_turn_on@pin(COMRAM[1]), 

    lat_registers	PTR volatile unsigned char [5] size(2) Largest target is 1
		 -> LATA(BITBIGSFRlll[1]), LATB(BITBIGSFRllh[1]), LATC(BITBIGSFRllh[1]), LATD(BITBIGSFRllh[1]), 
		 -> LATE(BITBIGSFRllh[1]), 

    led_initialize@led	PTR const struct . size(1) Largest target is 1
		 -> led1(COMRAM[1]), 

    port_registers	PTR volatile unsigned char [5] size(2) Largest target is 1
		 -> PORTA(BITBIGSFRlll[1]), PORTB(BITBIGSFRlll[1]), PORTC(BITBIGSFRlll[1]), PORTD(BITBIGSFRlll[1]), 
		 -> PORTE(BITBIGSFRlll[1]), 

    S1575$TIMER1_InterruptHandler	PTR FTN()void  size(2) Largest target is 1
		 -> NULL(), 

    S1980$CCP1_InterruptHandler	PTR FTN()void  size(2) Largest target is 1
		 -> CCP1_APP_ISR(), 

    S2749$buffer	PTR unsigned char  size(2) Largest target is 0

    S2749$source	PTR const unsigned char  size(2) Largest target is 0

    sp__memset	PTR void  size(2) Largest target is 0

    timer1$TIMER1_InterruptHandler	PTR FTN()void  size(2) Largest target is 1
		 -> NULL(), 

    timer1_Init@_timer	PTR const struct . size(1) Largest target is 5
		 -> timer1(COMRAM[5]), 

    timer1_Init@_timer$TIMER1_InterruptHandler	PTR FTN()void  size(2) Largest target is 1
		 -> NULL(), 

    TIMER1_InterruptHandler	PTR FTN()void  size(2) Largest target is 1
		 -> NULL(), 

    timer1_Mode_Select@_timer	PTR const struct . size(1) Largest target is 5
		 -> timer1(COMRAM[5]), 

    timer1_Mode_Select@_timer$TIMER1_InterruptHandler	PTR FTN()void  size(2) Largest target is 1
		 -> NULL(), 

    timer1_OSC_HW_Mode_Select@_timer	PTR const struct . size(1) Largest target is 5
		 -> timer1(COMRAM[5]), 

    timer1_OSC_HW_Mode_Select@_timer$TIMER1_InterruptHandler	PTR FTN()void  size(2) Largest target is 1
		 -> NULL(), 

    timer1_RW_REG_Bit_Mode_Select@_timer	PTR const struct . size(1) Largest target is 5
		 -> timer1(COMRAM[5]), 

    timer1_RW_REG_Bit_Mode_Select@_timer$TIMER1_InterruptHandler	PTR FTN()void  size(2) Largest target is 1
		 -> NULL(), 

    timer1_Write_Value@_timer	PTR const struct . size(1) Largest target is 5
		 -> timer1(COMRAM[5]), 

    tris_registers	PTR volatile unsigned char [5] size(2) Largest target is 1
		 -> TRISA(BITBIGSFRlll[1]), TRISB(ABS[1]), TRISC(ABS[1]), TRISD(ABS[1]), 
		 -> TRISE(ABS[1]), 

    vfprintf$0	PTR struct _IO_FILE size(1) Largest target is 12
		 -> sprintf@f(COMRAM[12]), 

    vfprintf$1	PTR const unsigned char  size(1) Largest target is 3
		 -> STR_1(CODE[3]), STR_2(CODE[3]), STR_3(CODE[3]), 

    vfprintf$2	PTR PTR void  size(1) Largest target is 1
		 -> sprintf@ap(COMRAM[1]), 


Critical Paths under _main in COMRAM

    _timer1_Init->_timer1_Mode_Select
    _timer1_Init->_timer1_OSC_HW_Mode_Select
    _timer1_Init->_timer1_RW_REG_Bit_Mode_Select
    _led_initialize->_gpio_pin_initialize
    _ccp1_Init->_gpio_pin_initialize
    _gpio_pin_initialize->_gpio_pin_write_logic

Critical Paths under _InterruptManager in COMRAM

    _CCP1_APP_ISR->i2_ccp1_Compare_Mode_Set_Value

Critical Paths under _main in BANK0

    _application_initialize->_ecu_layer_initialize
    _ecu_layer_initialize->_led_initialize
    _led_initialize->_gpio_pin_initialize
    _ccp1_Init->_gpio_pin_initialize

Critical Paths under _InterruptManager in BANK0

    None.

Critical Paths under _main in BANK1

    None.

Critical Paths under _InterruptManager in BANK1

    None.

Critical Paths under _main in BANK2

    None.

Critical Paths under _InterruptManager in BANK2

    None.

Critical Paths under _main in BANK3

    None.

Critical Paths under _InterruptManager in BANK3

    None.

Critical Paths under _main in BANK4

    None.

Critical Paths under _InterruptManager in BANK4

    None.

Critical Paths under _main in BANK5

    None.

Critical Paths under _InterruptManager in BANK5

    None.

Critical Paths under _main in BANK6

    None.

Critical Paths under _InterruptManager in BANK6

    None.

Critical Paths under _main in BANK7

    None.

Critical Paths under _InterruptManager in BANK7

    None.

Critical Paths under _main in BANK8

    None.

Critical Paths under _InterruptManager in BANK8

    None.

Critical Paths under _main in BANK9

    None.

Critical Paths under _InterruptManager in BANK9

    None.

Critical Paths under _main in BANK10

    None.

Critical Paths under _InterruptManager in BANK10

    None.

Critical Paths under _main in BANK11

    None.

Critical Paths under _InterruptManager in BANK11

    None.

Critical Paths under _main in BANK12

    None.

Critical Paths under _InterruptManager in BANK12

    None.

Critical Paths under _main in BANK13

    None.

Critical Paths under _InterruptManager in BANK13

    None.

Critical Paths under _main in BANK14

    None.

Critical Paths under _InterruptManager in BANK14

    None.

Critical Paths under _main in BANK15

    None.

Critical Paths under _InterruptManager in BANK15

    None.

Call Graph Tables:

 ---------------------------------------------------------------------------------
 (Depth) Function   	        Calls       Base Space   Used Autos Params    Refs
 ---------------------------------------------------------------------------------
 (0) _main                                                 0     0      0   17578
             _application_initialize
        _ccp1_Compare_Mode_Set_Value
 ---------------------------------------------------------------------------------
 (1) _ccp1_Compare_Mode_Set_Value                          6     3      3     467
                                              8 COMRAM     6     3      3
 ---------------------------------------------------------------------------------
 (1) _application_initialize                               1     1      0   17111
                          _ccp1_Init
               _ecu_layer_initialize
                        _timer1_Init
 ---------------------------------------------------------------------------------
 (2) _timer1_Init                                          4     3      1     810
                                              9 COMRAM     4     3      1
            _global_interrupt_Enable
                 _timer1_Mode_Select
          _timer1_OSC_HW_Mode_Select
      _timer1_RW_REG_Bit_Mode_Select
 ---------------------------------------------------------------------------------
 (3) _timer1_RW_REG_Bit_Mode_Select                        1     0      1     120
                                              8 COMRAM     1     0      1
 ---------------------------------------------------------------------------------
 (3) _timer1_OSC_HW_Mode_Select                            1     0      1     120
                                              8 COMRAM     1     0      1
 ---------------------------------------------------------------------------------
 (3) _timer1_Mode_Select                                   1     0      1     164
                                              8 COMRAM     1     0      1
 ---------------------------------------------------------------------------------
 (2) _ecu_layer_initialize                                 1     1      0    7977
                                              5 BANK0      1     1      0
                     _led_initialize
 ---------------------------------------------------------------------------------
 (3) _led_initialize                                       4     3      1    7940
                                              1 BANK0      4     3      1
                _gpio_pin_initialize
 ---------------------------------------------------------------------------------
 (2) _ccp1_Init                                            2     1      1    8312
                                              1 BANK0      2     1      1
           _ccp1_Compare_Mode_Config
              _ccp1_Interrupt_Config
              _ccp_Mode_Timer_Select
                _gpio_pin_initialize
 ---------------------------------------------------------------------------------
 (4) _gpio_pin_initialize                                  3     2      1    7589
                                             16 COMRAM     2     1      1
                                              0 BANK0      1     1      0
      _gpio_pin_direction_initialize
               _gpio_pin_write_logic
 ---------------------------------------------------------------------------------
 (5) _gpio_pin_write_logic                                 8     6      2    5362
                                              8 COMRAM     8     6      2
 ---------------------------------------------------------------------------------
 (5) _gpio_pin_direction_initialize                        7     6      1     558
                                              8 COMRAM     7     6      1
 ---------------------------------------------------------------------------------
 (3) _ccp_Mode_Timer_Select                                2     1      1     183
                                              8 COMRAM     2     1      1
 ---------------------------------------------------------------------------------
 (3) _ccp1_Interrupt_Config                                1     0      1     121
                                              8 COMRAM     1     0      1
            _global_interrupt_Enable
 ---------------------------------------------------------------------------------
 (3) _global_interrupt_Enable                              0     0      0       0
 ---------------------------------------------------------------------------------
 (3) _ccp1_Compare_Mode_Config                             2     1      1     134
                                              8 COMRAM     1     0      1
 ---------------------------------------------------------------------------------
 Estimated maximum stack depth 5
 ---------------------------------------------------------------------------------
 (Depth) Function   	        Calls       Base Space   Used Autos Params    Refs
 ---------------------------------------------------------------------------------
 (6) _InterruptManager                                     2     2      0     465
                                              6 COMRAM     2     2      0
                           _CCP1_ISR
                           _CCP2_ISR
                         _TIMER1_ISR
 ---------------------------------------------------------------------------------
 (7) _TIMER1_ISR                                           0     0      0       0
 ---------------------------------------------------------------------------------
 (7) _CCP2_ISR                                             0     0      0       0
 ---------------------------------------------------------------------------------
 (7) _CCP1_ISR                                             0     0      0     465
                                NULL *
                       _CCP1_APP_ISR *
 ---------------------------------------------------------------------------------
 (8) _CCP1_APP_ISR                                         1     1      0     465
                 _timer1_Write_Value
      i2_ccp1_Compare_Mode_Set_Value
 ---------------------------------------------------------------------------------
 (9) i2_ccp1_Compare_Mode_Set_Value                        6     3      3     219
                                              0 COMRAM     6     3      3
 ---------------------------------------------------------------------------------
 (9) _timer1_Write_Value                                   4     1      3     242
                                              0 COMRAM     4     1      3
 ---------------------------------------------------------------------------------
 (8) NULL(Fake)                                            0     0      0       0
 ---------------------------------------------------------------------------------
 Estimated maximum stack depth 9
 ---------------------------------------------------------------------------------

 Call Graph Graphs:

 _main (ROOT)
   _application_initialize
     _ccp1_Init
       _ccp1_Compare_Mode_Config
       _ccp1_Interrupt_Config
         _global_interrupt_Enable
       _ccp_Mode_Timer_Select
       _gpio_pin_initialize
         _gpio_pin_direction_initialize
         _gpio_pin_write_logic
     _ecu_layer_initialize
       _led_initialize
         _gpio_pin_initialize
     _timer1_Init
       _global_interrupt_Enable
       _timer1_Mode_Select
       _timer1_OSC_HW_Mode_Select
       _timer1_RW_REG_Bit_Mode_Select
   _ccp1_Compare_Mode_Set_Value

 _InterruptManager (ROOT)
   _CCP1_ISR
     NULL(Fake) *
     _CCP1_APP_ISR *
       _timer1_Write_Value
       i2_ccp1_Compare_Mode_Set_Value
   _CCP2_ISR
   _TIMER1_ISR

 Address spaces:
Name               Size   Autos  Total    Cost      Usage
BIGRAM             F7F      0       0      49        0.0%
EEDATA             400      0       0       0        0.0%
BITBANK14          100      0       0      33        0.0%
BANK14             100      0       0      34        0.0%
BITBANK13          100      0       0      31        0.0%
BANK13             100      0       0      32        0.0%
BITBANK12          100      0       0      29        0.0%
BANK12             100      0       0      30        0.0%
BITBANK11          100      0       0      27        0.0%
BANK11             100      0       0      28        0.0%
BITBANK10          100      0       0      25        0.0%
BANK10             100      0       0      26        0.0%
BITBANK9           100      0       0      23        0.0%
BANK9              100      0       0      24        0.0%
BITBANK8           100      0       0      21        0.0%
BANK8              100      0       0      22        0.0%
BITBANK7           100      0       0      19        0.0%
BANK7              100      0       0      20        0.0%
BITBANK6           100      0       0      17        0.0%
BANK6              100      0       0      18        0.0%
BITBANK5           100      0       0      15        0.0%
BANK5              100      0       0      16        0.0%
BITBANK4           100      0       0      13        0.0%
BANK4              100      0       0      14        0.0%
BITBANK3           100      0       0      10        0.0%
BANK3              100      0       0      11        0.0%
BITBANK2           100      0       0       8        0.0%
BANK2              100      0       0       9        0.0%
BITBANK1           100      0       0       6        0.0%
BANK1              100      0       0       7        0.0%
BITBANK15           80      0       0      35        0.0%
BANK15              80      0       0      36        0.0%
BITBANK0            80      0       0       4        0.0%
BANK0               80      6      1B       5       21.1%
BITCOMRAM           7E      0       0       0        0.0%
COMRAM              7E     12      76       1       93.7%
BITBIGSFRhhlhh      1A      0       0      38        0.0%
BITBIGSFRhhh         D      0       0      37        0.0%
BITBIGSFRlhhhhh      9      0       0      42        0.0%
BITBIGSFRlhhhl       6      0       0      43        0.0%
BITBIGSFRlhhlll      6      0       0      46        0.0%
BITBIGSFRhhllhh      5      0       0      39        0.0%
BITBIGSFRhhllll      5      0       0      41        0.0%
BITBIGSFRlhhllh      4      0       0      44        0.0%
BITBIGSFRllh         4      0       0      47        0.0%
BITBIGSFRlll         4      0       0      48        0.0%
BITBIGSFRhhlllh      1      0       0      40        0.0%
BITBIGSFRlhhllh      1      0       0      45        0.0%
BIGSFR               0      0       0     200        0.0%
BITSFR               0      0       0     200        0.0%
SFR                  0      0       0     200        0.0%
STACK                0      0       0       2        0.0%
NULL                 0      0       0       0        0.0%
ABS                  0      0      91      12        0.0%
DATA                 0      0      91       3        0.0%
CODE                 0      0       0       0        0.0%


Microchip Technology PIC18 Macro Assembler V2.46 build 20240104201356 
Symbol Table                                                                                   Fri Sep 20 09:51:41 2024

                             ??_InterruptManager 006B                                              l630 18F2  
                                            l542 1288                                              l543 128A  
                                            l287 1520                                              l560 1158  
                                            l288 1522                                              l369 18D6  
                                            l574 13B2                                              l726 1332  
                                            l559 1156                                              l575 13B4  
                                            l727 1334                                              l752 14AA  
                                            l760 1782                                              l921 1706  
                                            l753 14AA                                              l922 170A  
                                            l940 17EA                                              l941 17EC  
                                            l767 17BC                                              l952 1432  
                                            l961 1602                                              l881 18C4  
                                            l955 18AC                                              l875 188A  
                                            l964 1602                                              l876 188A  
                                            _ccp 0038                                              _ret 0037  
                            led_initialize@F3062 005F                                              tosl 0FFD  
                          relay_initialize@F3060 005B                                              wreg 0FE8  
                                           l3431 1452                                             l3441 148C  
                                           l3433 146A                                             l4403 1016  
                                           l3443 14A4                                             l3435 146C  
                                           l3427 1434                                             l3451 1780  
                                           l4413 107E                                             l4405 102A  
                                           l3437 146E                                             l3429 144C  
                                           l3453 1784                                             l3445 174A  
                                           l5221 1874                                             l4415 10D4  
                                           l4407 1046                                             l4431 1336  
                                           l3439 1486                                             l3455 179C  
                                           l3447 1762                                             l5223 1878  
                                           l4409 1066                                             l4417 1124  
                                           l4433 1346                                             l3457 17A2  
                                           l3449 1768                                             l4601 1322  
                                           l4443 18EE                                             l4419 112C  
                                           l4435 1362                                             l4611 16C4  
                                           l4451 14F8                                             l3459 17BA  
                                           l4603 1324                                             l4461 159A  
                                           l5245 1140                                             l4437 1382  
                                           l4621 16F6                                             l4613 16D6  
                                           l4453 14FA                                             l4445 14AC  
                                           l4605 1328                                             l4471 15FA  
                                           l4463 15B6                                             l4391 11AE  
                                           l4383 115A                                             l4439 13AC  
                                           l4615 16DA                                             l4623 1702  
                                           l4455 150C                                             l4447 14BE  
                                           l4607 132E                                             l4481 13DE  
                                           l4473 13B6                                             l4465 15BE  
                                           l4393 1204                                             l4385 116E  
                                           l4617 16E6                                             l4449 14C2  
                                           l4457 151C                                             l4721 18B2  
                                           l4483 13EA                                             l4475 13BA  
                                           l4491 18A4                                             l4467 15D8  
                                           l4387 118A                                             l4395 1254  
                                           l4619 16EE                                             l4723 18BA  
                                           l3771 17D2                                             l4485 13F6  
                                           l4477 13C6                                             l4493 18A6  
                                           l4469 15E0                                             l4397 125C  
                                           l4717 18AE                                             l3773 17E6  
                                           l4479 13D2                                             l4487 13FA  
                                           l4495 18A8                                             l4575 18C6  
                                           l4591 12D6                                             l4583 128C  
                                           l4719 18AE                                             l3767 17BE  
                                           l4489 1892                                             l4577 18C6  
                                           l4593 12F2                                             l4585 12A0  
                                           l3769 17C2                                             l4579 18D4  
                                           l4595 1300                                             l4587 12A2  
                                           l4597 1312                                             l4589 12BA  
                                           l4599 1320                                             STR_1 1011  
                                           u2220 144C                                             u2221 1448  
                                           _LATA 0F89                                             u2230 146A  
                                           _LATB 0F8A                                             u2231 1466  
                                           _LATC 0F8B                                             u2240 1486  
                                           _LATD 0F8C                                             u2241 1482  
                                           _LATE 0F8D                                             u2250 14A4  
                                           u2251 14A0                                             u3300 1046  
                                           u2260 1762                                             u3301 1042  
                                           u2261 175E                                             u3230 116E  
                                           u3310 1066                                             u2270 1780  
                                           u3231 116A                                             u3311 1062  
                                           u2271 177C                                             u3400 15B6  
                                           u3240 118A                                             u3320 107A  
                                           u2280 179C                                             u3401 15B2  
                                           u3241 1186                                             u3321 1076  
                                           u2281 1798                                             u3410 15D8  
                                           u3250 11AA                                             u2290 17BA  
                                           u3411 15D4                                             u3251 11A6  
                                           u2291 17B6                                             u3420 15FA  
                                           u2620 17D2                                             u3421 15F6  
                                           u2621 17CE                                             u3334 109C  
                                           u3350 1346                                             u3335 1098  
                                           u3351 1342                                             u3280 1272  
                                           u3264 11CC                                             u3344 10F2  
                                           u3360 1362                                             u3520 12A0  
                                           u3281 126C                                             u3265 11C8  
                                           u3345 10EE                                             u3361 135E  
                                           u3521 129C                                             u3274 1222  
                                           u3290 102A                                             u3370 1382  
                                           u3530 16D6                                             u3275 121E  
                                           u3291 1026                                             u3371 137E  
                                           u3531 16D2                                             u3380 14BE  
                                           u3381 14BA                                             u3286 1274  
                                           u3395 1508                                             u3397 150C  
                                           _TMR2 0FCC                                             _lcd1 0027  
                                           _lcd2 008B                                             _btn1 0032  
                                           _led1 003D                                             _main 1874  
                               __end_of_CCP1_ISR 184C                                 __end_of_CCP2_ISR 18F8  
                                           fsr2h 0FDA                                             indf2 0FDF  
                                           fsr1l 0FE1                                             fsr2l 0FD9  
                                           btemp 0077                           __end_of_led_initialize 1524  
                                           prodl 0FF3                                             start 000E  
                                   ___param_bank 0000                                     _CCP1_APP_ISR 1666  
                           _gpio_pin_write_logic 1016                                      ?_TIMER1_ISR 0065  
                                          ?_main 0065                         ??_application_initialize 0077  
                                          _EEADR 0FA9                        ??_global_interrupt_Enable 006D  
                                          i2l620 154E                                            i2l622 156E  
                                          i2l625 158E                                            i2l736 1870  
                                          i2l737 1872                                            i2l940 181A  
                                          i2l772 18E2                                            i2l941 181C  
                                          i2l974 18F6                                            i2l889 16C2  
                                          i2l969 184A                              relay_turn_off@F3070 0059  
                                          _TMR0H 0FD7                                            _TMR1H 0FCF  
                                          _TMR0L 0FD6                                            _TMR1L 0FCE  
                                          _TMR3H 0FB3                                            _TMR3L 0FB2  
                                          _PORTA 0F80                                            _PORTB 0F81  
                                          _PORTC 0F82                                            _PORTD 0F83  
                                          _PORTE 0F84                                            _TRISA 0F92  
                                          _TRISB 0F93                                            _TRISC 0F94  
                                          _TRISD 0F95                                            _TRISE 0F96  
                ??i2_ccp1_Compare_Mode_Set_Value 0068                                            pclath 0FFA  
                                          pclatu 0FFB                                            tablat 0FF5  
            ccp1_Compare_Mode_Set_Value@_ccp_obj 006D            i2ccp1_Compare_Mode_Set_Value@_ccp_obj 0065  
                                          ttemp5 0078                                            ttemp6 007B  
                                          ttemp7 007F                                            status 0FD8  
                                          wtemp8 0078                                  ?_led_initialize 0096  
                 ?_gpio_pin_direction_initialize 006D                                  __initialization 1604  
                                   __end_of_main 1892                            ?_gpio_pin_write_logic 006D  
                 ccp1_Compare_Mode_Set_Value@ret 0070                 i2ccp1_Compare_Mode_Set_Value@ret 0068  
                                   ccp1_Init@ret 0097                                    _lat_registers 000B  
                                         ??_main 0077                                    __activetblptr 0003  
                               led_turn_on@F3067 005E                                           _ADRESH 0FC4  
                                         _EEADRH 0FAA                                           _ADRESL 0FC3  
                                         _EEDATA 0FA8                                           _CCPR1H 0FBF  
                                         _CCPR1L 0FBE                                           _EECON2 0FA7  
                  __end_of_ccp1_Interrupt_Config 18AE                                           i2l2113 18D8  
                                         i2l2115 18DA                                           i2l2117 18DE  
                                         i2l2129 18F4                                           i2l3511 1802  
                                         i2l3513 1816                                           i2l3507 17EE  
                                         i2l3461 184C                                           i2l3509 17F2  
                                         i2l3463 1860                                           i2l3465 1864  
                                         i2l4361 152E                                           i2l3467 186C  
                                         i2l3651 1676                                           i2l4371 157C  
                                         i2l4363 153C                                           i2l3661 16BE  
                                         i2l3653 1686                                           i2l4373 158A  
                                         i2l4365 154A                                           i2l3655 1696  
                                         i2l3647 1666                                           i2l4367 155C  
                                         i2l3657 169E                                           i2l3649 1666  
                                         i2l3753 181E                                           i2l4369 156A  
                                         i2l3659 16AE                                           i2l3755 1820  
                                         i2l3757 1832                      convert_uin8_to_string@F3227 0044  
                     __end_of_timer1_Write_Value 1874                  __end_of_global_interrupt_Enable 18F4  
                                   ?_timer1_Init 006E                         timer1_Write_Value@_value 0066  
                       timer1_Write_Value@_timer 0065                                           clear_0 164A  
                                         clear_1 1656                                           _relay1 0058  
                                         _motor1 0035                                           _timer1 0060  
                                         isa$std 0001                               _timer1_Mode_Select 1434  
                     ??_ccp1_Compare_Mode_Config 006E                                        ?_CCP1_ISR 0065  
                        ??_ccp_Mode_Timer_Select 006E                                     __pdataCOMRAM 0001  
                                      ?_CCP2_ISR 0065                                     __mediumconst 0000  
                                         tblptrh 0FF7                                           tblptrl 0FF6  
                                         tblptru 0FF8                              ?_timer1_Mode_Select 006D  
                ??_timer1_RW_REG_Bit_Mode_Select 006E                __end_of_timer1_OSC_HW_Mode_Select 17BE  
                                     __accesstop 0080                          __end_of__initialization 165C  
          __end_ofi2_ccp1_Compare_Mode_Set_Value 181E                    i2_ccp1_Compare_Mode_Set_Value 17EE  
                                  ___rparam_used 0001                                led_initialize@led 0096  
                              led_initialize@pin 0099                                led_initialize@ret 0098  
                         ??_gpio_pin_write_logic 006F                                   __pcstackCOMRAM 0065  
                           ??_timer1_Mode_Select 006E                                     __pidataBANK0 18E4  
       gpio_pin_direction_initialize@_pin_config 006D                                       ??_CCP1_ISR 006B  
                                     ??_CCP2_ISR 0065                                       __pbssBANK0 0080  
                         _application_initialize 18AE                                led_turn_off@F3072 005D  
                                   ??_TIMER1_ISR 0065                                __end_of_ccp1_Init 170C  
                   ?_ccp1_Compare_Mode_Set_Value 006D                          _TIMER1_InterruptHandler 0052  
                   ecu_layer_initialize@ret_init 009A                                    _keypad_values 1001  
                           led_turn_toggle@F3077 005C                                 ??_led_initialize 0097  
                                 _tris_registers 0015                               __end_of_TIMER1_ISR 18E4  
          __end_of_timer1_RW_REG_Bit_Mode_Select 1784                    _timer1_RW_REG_Bit_Mode_Select 174A  
                                        __Hparam 0000                                          __Lparam 0000  
            __end_of_ccp1_Compare_Mode_Set_Value 17EE                   ?i2_ccp1_Compare_Mode_Set_Value 0065  
                    _ccp1_Compare_Mode_Set_Value 17BE                              _gpio_pin_initialize 1336  
                                   __psmallconst 1000                                          __pcinit 1604  
                                        __ramtop 1000                                          __ptext0 1874  
                                        __ptext1 17BE                                          __ptext2 18AE  
                                        __ptext3 128C                                          __ptext4 174A  
                                        __ptext5 1784                                          __ptext6 1434  
                                        __ptext7 18C6                                          __ptext8 14AC  
                                        __ptext9 16C4                 __end_of_ccp1_Compare_Mode_Config 1434  
                                      _T0CONbits 0FD5                    ??_ccp1_Compare_Mode_Set_Value 0070  
                                      _T1CONbits 0FCD                  ??_gpio_pin_direction_initialize 006E  
                                      _T2CONbits 0FCA                                          _keypad1 001F  
                                      _T3CONbits 0FB1                             ?_gpio_pin_initialize 0075  
            timer1_RW_REG_Bit_Mode_Select@_timer 006D                                   __pintcode_body 1524  
                           end_of_initialization 165C                                          int_func 1524  
                                        postdec1 0FE5                                          postdec2 0FDD  
                                        postinc0 0FEE                                          postinc2 0FDE  
                       ?_global_interrupt_Enable 0065                               _timer1_Write_Value 184C  
                       timer1_Mode_Select@_timer 006D                                 _InterruptManager 0008  
                            ?_timer1_Write_Value 0065                                timer1_Init@_timer 006E  
                  __end_of_ccp_Mode_Timer_Select 1604                            ??_gpio_pin_initialize 0076  
                          _ccp1_Interrupt_Config 1892                                      _CCP1CONbits 0FBD  
                           ??_timer1_Write_Value 0068                               relay_turn_on@F3065 005A  
                  convert_uint32_to_string@F3241 0080                    convert_uint16_to_string@F3234 003E  
                 ?_timer1_RW_REG_Bit_Mode_Select 006D                                    __pidataCOMRAM 170C  
                                 _timer0_preload 0054                                   _timer1_preload 0050  
                                 _timer2_preload 0057                              start_initialization 1604  
                                 timer1_Init@ret 0071                                   _timer3_preload 004E  
          __end_of_gpio_pin_direction_initialize 128C                    _gpio_pin_direction_initialize 115A  
                        ?_application_initialize 0065                                 CCP1_APP_ISR@flag 0056  
                     ?_timer1_OSC_HW_Mode_Select 006D                        ?_ccp1_Compare_Mode_Config 006D  
                                  ?_CCP1_APP_ISR 0065                                      __pdataBANK0 008B  
                   __end_of_ecu_layer_initialize 18D8                                        _ccp1_Init 16C4  
                                    __pbssCOMRAM 003E                                    __pcstackBANK0 0095  
                 __end_of_application_initialize 18C6                           ?_ccp1_Interrupt_Config 006D  
                                      __pintcode 0008                                   ??_CCP1_APP_ISR 006B  
                gpio_pin_write_logic@_pin_config 006D                                ccp1_Init@_ccp_obj 0096  
                      gpio_pin_write_logic@logic 006E                                      __smallconst 1000  
                                     ?_ccp1_Init 0096                                         _CCP1_ISR 181E  
                                       _CCP2_ISR 18F4                    ccp_Mode_Timer_Select@_ccp_obj 006D  
                       __end_of_InterruptManager 159A                                         _PIE1bits 0F9D  
                                       _PIE2bits 0FA0                                         i2u230_40 1860  
                                       i2u230_41 185C                                         i2u320_40 156A  
                                       i2u320_41 1566                                         i2u321_40 157C  
                                       i2u321_41 1578                                         i2u234_40 1802  
                                       i2u322_40 158A                                         i2u234_41 17FE  
                                       i2u322_41 1586                                         i2u260_40 1832  
                                       i2u260_41 182E                                         i2u317_40 153C  
                                       i2u317_41 1538                                         i2u246_40 1686  
                                       i2u261_48 1838                                         i2u318_40 154A  
                                       i2u246_41 1682                                         i2u261_49 184A  
                                       i2u318_41 1546                                         i2u247_40 16AE  
                                       i2u319_40 155C                                         i2u247_41 16AA  
                                       i2u319_41 1558                                         _PIR1bits 0F9E  
                                       _PIR2bits 0FA1                                    ??_timer1_Init 006F  
               gpio_pin_direction_initialize@ret 0073                 ccp1_Compare_Mode_Set_Value@F3103 0048  
                                     _ADCON0bits 0FC2                                       _ADCON1bits 0FC1  
                                     _ADCON2bits 0FC0                           gpio_pin_initialize@ret 0095  
                        gpio_pin_write_logic@ret 0074                                        copy_data0 1618  
                                      copy_data1 1638                            timer1_Write_Value@ret 0068  
               ccp1_Compare_Mode_Config@_ccp_obj 006D                             _ecu_layer_initialize 18C6  
                                     _EECON1bits 0FA6                                         __Hrparam 0000  
                                       __Lrparam 0000                    ccp1_Interrupt_Config@_ccp_obj 006D  
                          _CCP1_InterruptHandler 004C                      __end_of_gpio_pin_initialize 13B6  
                            __end_of_timer1_Init 1336                   gpio_pin_initialize@_pin_config 0075  
                                    ??_ccp1_Init 0077                                         __ptext10 1336  
                                       __ptext11 1016                                         __ptext20 181E  
                                       __ptext12 115A                                         __ptext21 1666  
                                       __ptext13 159A                                         __ptext22 17EE  
                                       __ptext14 1892                                         __ptext23 184C  
                                       __ptext15 18EE                                         __ptext16 13B6  
                                       __ptext18 18D8                                         __ptext19 18F4  
                           __end_of_CCP1_APP_ISR 16C4                            _ccp_Mode_Timer_Select 159A  
                          ?_ecu_layer_initialize 0065                      ??_timer1_OSC_HW_Mode_Select 006E  
                timer1_OSC_HW_Mode_Select@_timer 006D         ccp1_Compare_Mode_Set_Value@compare_value 006E  
     i2ccp1_Compare_Mode_Set_Value@compare_value 0066                                         _segment1 002D  
                                       isa$xinst 0000                                         int$flags 0077  
                          __end_of_keypad_values 1011                                       _INTCONbits 0FF2  
                        ??_ccp1_Interrupt_Config 006E                     __end_of_gpio_pin_write_logic 115A  
                                       intlevel2 0000                       __end_of_timer1_Mode_Select 14AC  
                                    _timer1_Init 128C                                       _TIMER1_ISR 18D8  
  ccp1_Compare_Mode_Set_Value@capture_temp_value 0071  i2ccp1_Compare_Mode_Set_Value@capture_temp_value 0069  
                      _timer1_OSC_HW_Mode_Select 1784                                   _port_registers 0001  
                        _global_interrupt_Enable 18EE                           ?_ccp_Mode_Timer_Select 006D  
                       _ccp1_Compare_Mode_Config 13B6                            _CCP2_InterruptHandler 004A  
                         ??_ecu_layer_initialize 0077                                ?_InterruptManager 0065  
                                 _led_initialize 14AC  
