

Microchip MPLAB XC8 Assembler V2.45 build 20230818022343 
                                                                                               Mon Jan 15 08:15:59 2024

Microchip MPLAB XC8 C Compiler v2.45 (Free license) build 20230818022343 Og1 
     1                           	processor	18F4620
     2                           	fnconf	rparam,??,?,0
     3                           	pagewidth 120
     4                           	opt	flic
     5                           	psect	idataCOMRAM,global,class=CODE,delta=1,noexec
     6                           	psect	nvCOMRAM,global,class=COMRAM,space=1,delta=1,lowdata,noexec
     7                           	psect	cinit,global,reloc=2,class=CODE,delta=1
     8                           	psect	bssCOMRAM,global,class=COMRAM,space=1,delta=1,lowdata,noexec
     9                           	psect	dataCOMRAM,global,class=COMRAM,space=1,delta=1,lowdata,noexec
    10                           	psect	cstackCOMRAM,global,class=COMRAM,space=1,delta=1,lowdata,noexec
    11                           	psect	text0,global,reloc=2,class=CODE,delta=1
    12                           	psect	text1,global,reloc=2,class=CODE,delta=1
    13                           	psect	text2,global,reloc=2,class=CODE,delta=1
    14                           	psect	text3,global,reloc=2,class=CODE,delta=1
    15                           	psect	text4,global,reloc=2,class=CODE,delta=1
    16                           	psect	text5,global,reloc=2,class=CODE,delta=1
    17                           	psect	text6,global,reloc=2,class=CODE,delta=1
    18                           	psect	text7,global,reloc=2,class=CODE,delta=1
    19                           	psect	text8,global,reloc=2,class=CODE,delta=1
    20                           	psect	text9,global,reloc=2,class=CODE,delta=1
    21                           	psect	text10,global,reloc=2,class=CODE,delta=1
    22                           	psect	smallconst,global,reloc=2,class=SMALLCONST,delta=1,noexec
    23                           	psect	intsave_regs,global,class=BIGRAM,space=1,delta=1,noexec
    24                           	psect	rparam,global,class=COMRAM,space=1,delta=1,noexec
    25                           	psect	config,global,abs,ovrld,class=CONFIG,space=4,delta=1,noexec
    26   000000                     
    27                           ; Generated 23/03/2023 GMT
    28                           ; 
    29                           ; Copyright © 2023, Microchip Technology Inc. and its subsidiaries ("Microchip")
    30                           ; All rights reserved.
    31                           ; 
    32                           ; This software is developed by Microchip Technology Inc. and its subsidiaries ("Microch
      +                          ip").
    33                           ; 
    34                           ; Redistribution and use in source and binary forms, with or without modification, are
    35                           ; permitted provided that the following conditions are met:
    36                           ; 
    37                           ;     1. Redistributions of source code must retain the above copyright notice, this lis
      +                          t of
    38                           ;        conditions and the following disclaimer.
    39                           ; 
    40                           ;     2. Redistributions in binary form must reproduce the above copyright notice, this 
      +                          list
    41                           ;        of conditions and the following disclaimer in the documentation and/or other
    42                           ;        materials provided with the distribution. Publication is not required when
    43                           ;        this file is used in an embedded application.
    44                           ; 
    45                           ;     3. Microchip's name may not be used to endorse or promote products derived from th
      +                          is
    46                           ;        software without specific prior written permission.
    47                           ; 
    48                           ; THIS SOFTWARE IS PROVIDED BY MICROCHIP "AS IS" AND ANY EXPRESS OR IMPLIED WARRANTIES,
    49                           ; INCLUDING, BUT NOT LIMITED TO, THE IMPLIED WARRANTIES OF MERCHANTABILITY AND FITNESS F
      +                          OR
    50                           ; PURPOSE ARE DISCLAIMED.  IN NO EVENT SHALL MICROCHIP BE LIABLE FOR ANY DIRECT, INDIREC
      +                          T,
    51                           ; INCIDENTAL, SPECIAL, EXEMPLARY, OR CONSEQUENTIAL DAMAGES (INCLUDING BUT NOT LIMITED TO
    52                           ; PROCUREMENT OF SUBSTITUTE GOODS OR SERVICES; LOSS OF USE, DATA OR PROFITS; OR BUSINESS
    53                           ; INTERRUPTION) HOWSOEVER CAUSED AND ON ANY THEORY OF LIABILITY, WHETHER IN CONTRACT, ST
      +                          RICT
    54                           ; LIABILITY, OR TORT (INCLUDING NEGLIGENCE OR OTHERWISE) ARISING IN ANY WAY OUT OF THE U
      +                          SE OF
    55                           ; THIS SOFTWARE, EVEN IF ADVISED OF THE POSSIBILITY OF SUCH DAMAGE.
    56                           ; 
    57                           ; 
    58                           ; Code-generator required, PIC18F4620 Definitions
    59                           ; 
    60                           ; SFR Addresses
    61   000000                     
    62                           	psect	idataCOMRAM
    63   0016B8                     __pidataCOMRAM:
    64                           	callstack 0
    65                           
    66                           ;initializer for _port_registers
    67   0016B8  80                 	db	128
    68   0016B9  0F                 	db	15
    69   0016BA  81                 	db	129
    70   0016BB  0F                 	db	15
    71   0016BC  82                 	db	130
    72   0016BD  0F                 	db	15
    73   0016BE  83                 	db	131
    74   0016BF  0F                 	db	15
    75   0016C0  84                 	db	132
    76   0016C1  0F                 	db	15
    77                           
    78                           ;initializer for _lat_registers
    79   0016C2  89                 	db	137
    80   0016C3  0F                 	db	15
    81   0016C4  8A                 	db	138
    82   0016C5  0F                 	db	15
    83   0016C6  8B                 	db	139
    84   0016C7  0F                 	db	15
    85   0016C8  8C                 	db	140
    86   0016C9  0F                 	db	15
    87   0016CA  8D                 	db	141
    88   0016CB  0F                 	db	15
    89                           
    90                           ;initializer for _tris_registers
    91   0016CC  92                 	db	146
    92   0016CD  0F                 	db	15
    93   0016CE  93                 	db	147
    94   0016CF  0F                 	db	15
    95   0016D0  94                 	db	148
    96   0016D1  0F                 	db	15
    97   0016D2  95                 	db	149
    98   0016D3  0F                 	db	15
    99   0016D4  96                 	db	150
   100   0016D5  0F                 	db	15
   101                           
   102                           ;initializer for _btn_low
   103   0016D6  CB                 	db	203
   104   0016D7  01                 	db	1
   105   0016D8  01                 	db	1
   106                           
   107                           ;initializer for _btn_high
   108   0016D9  43                 	db	67
   109   0016DA  01                 	db	1
   110   0016DB  00                 	db	0
   111                           
   112                           ;initializer for _btn_low_status
   113   0016DC  01                 	db	1
   114                           
   115                           ;initializer for _btn_high_status
   116   0016DD  01                 	db	1
   117                           
   118                           ;initializer for _led2
   119   0016DE  0A                 	db	10
   120                           
   121                           ;initializer for _led1
   122   0016DF  02                 	db	2
   123                           
   124                           	psect	nvCOMRAM
   125   00003D                     __pnvCOMRAM:
   126                           	callstack 0
   127   00003D                     _ret:
   128                           	callstack 0
   129   00003D                     	ds	1
   130   000000                     _PORTE	set	3972
   131   000000                     _PORTD	set	3971
   132   000000                     _PORTC	set	3970
   133   000000                     _PORTB	set	3969
   134   000000                     _PORTA	set	3968
   135   000000                     _LATA	set	3977
   136   000000                     _TRISA	set	3986
   137   000000                     _TRISE	set	3990
   138   000000                     _TRISD	set	3989
   139   000000                     _TRISC	set	3988
   140   000000                     _TRISB	set	3987
   141   000000                     _LATE	set	3981
   142   000000                     _LATD	set	3980
   143   000000                     _LATC	set	3979
   144   000000                     _LATB	set	3978
   145                           
   146                           ; #config settings
   147                           
   148                           	psect	cinit
   149   001684                     __pcinit:
   150                           	callstack 0
   151   001684                     start_initialization:
   152                           	callstack 0
   153   001684                     __initialization:
   154                           	callstack 0
   155                           
   156                           ; Initialize objects allocated to COMRAM (40 bytes)
   157                           ; load TBLPTR registers with __pidataCOMRAM
   158   001684  0EB8               	movlw	low __pidataCOMRAM
   159   001686  6EF6               	movwf	tblptrl,c
   160   001688  0E16               	movlw	high __pidataCOMRAM
   161   00168A  6EF7               	movwf	tblptrh,c
   162   00168C  0E00               	movlw	low (__pidataCOMRAM shr (0+16))
   163   00168E  6EF8               	movwf	tblptru,c
   164   001690  EE00  F001         	lfsr	0,__pdataCOMRAM
   165   001694  EE10 F028          	lfsr	1,40
   166   001698                     copy_data0:
   167   001698  0009               	tblrd		*+
   168   00169A  CFF5 FFEE          	movff	tablat,postinc0
   169   00169E  50E5               	movf	postdec1,w,c
   170   0016A0  50E1               	movf	fsr1l,w,c
   171   0016A2  E1FA               	bnz	copy_data0
   172                           
   173                           ; Clear objects allocated to COMRAM (5 bytes)
   174   0016A4  6A3C               	clrf	(__pbssCOMRAM+4)& (0+255),c
   175   0016A6  6A3B               	clrf	(__pbssCOMRAM+3)& (0+255),c
   176   0016A8  6A3A               	clrf	(__pbssCOMRAM+2)& (0+255),c
   177   0016AA  6A39               	clrf	(__pbssCOMRAM+1)& (0+255),c
   178   0016AC  6A38               	clrf	__pbssCOMRAM& (0+255),c
   179   0016AE                     end_of_initialization:
   180                           	callstack 0
   181   0016AE                     __end_of__initialization:
   182                           	callstack 0
   183   0016AE  0E00               	movlw	low (__Lmediumconst shr (0+16))
   184   0016B0  6EF8               	movwf	tblptru,c
   185   0016B2  0100               	movlb	0
   186   0016B4  EFA6  F009         	goto	_main	;jump to C main() function
   187                           
   188                           	psect	bssCOMRAM
   189   000038                     __pbssCOMRAM:
   190                           	callstack 0
   191   000038                     _btn_high_flag:
   192                           	callstack 0
   193   000038                     	ds	1
   194   000039                     led_turn_toggle@F2907:
   195                           	callstack 0
   196   000039                     	ds	1
   197   00003A                     led_turn_off@F2902:
   198                           	callstack 0
   199   00003A                     	ds	1
   200   00003B                     led_turn_on@F2897:
   201                           	callstack 0
   202   00003B                     	ds	1
   203   00003C                     led_initialize@F2892:
   204                           	callstack 0
   205   00003C                     	ds	1
   206                           
   207                           	psect	dataCOMRAM
   208   000001                     __pdataCOMRAM:
   209                           	callstack 0
   210   000001                     _port_registers:
   211                           	callstack 0
   212   000001                     	ds	10
   213   00000B                     _lat_registers:
   214                           	callstack 0
   215   00000B                     	ds	10
   216   000015                     _tris_registers:
   217                           	callstack 0
   218   000015                     	ds	10
   219   00001F                     _btn_low:
   220                           	callstack 0
   221   00001F                     	ds	3
   222   000022                     _btn_high:
   223                           	callstack 0
   224   000022                     	ds	3
   225   000025                     _btn_low_status:
   226                           	callstack 0
   227   000025                     	ds	1
   228   000026                     _btn_high_status:
   229                           	callstack 0
   230   000026                     	ds	1
   231   000027                     _led2:
   232                           	callstack 0
   233   000027                     	ds	1
   234   000028                     _led1:
   235                           	callstack 0
   236   000028                     	ds	1
   237                           
   238                           	psect	cstackCOMRAM
   239   000029                     __pcstackCOMRAM:
   240                           	callstack 0
   241   000029                     gpio_pin_direction_initialize@_pin_config:
   242                           	callstack 0
   243   000029                     gpio_pin_write_logic@_pin_config:
   244                           	callstack 0
   245   000029                     gpio_pin_read_logic@_pin_config:
   246                           	callstack 0
   247                           
   248                           ; 1 bytes @ 0x0
   249   000029                     	ds	1
   250   00002A                     ??_gpio_pin_direction_initialize:
   251   00002A                     gpio_pin_write_logic@logic:
   252                           	callstack 0
   253   00002A                     gpio_pin_read_logic@logic:
   254                           	callstack 0
   255                           
   256                           ; 1 bytes @ 0x1
   257   00002A                     	ds	1
   258   00002B                     ??_gpio_pin_write_logic:
   259   00002B                     ??_gpio_pin_read_logic:
   260                           
   261                           ; 1 bytes @ 0x2
   262   00002B                     	ds	4
   263   00002F                     gpio_pin_direction_initialize@ret:
   264                           	callstack 0
   265   00002F                     gpio_pin_read_logic@ret:
   266                           	callstack 0
   267                           
   268                           ; 1 bytes @ 0x6
   269   00002F                     	ds	1
   270   000030                     gpio_pin_write_logic@ret:
   271                           	callstack 0
   272   000030                     button_initialize@button:
   273                           	callstack 0
   274   000030                     button_read_status@button:
   275                           	callstack 0
   276                           
   277                           ; 1 bytes @ 0x7
   278   000030                     	ds	1
   279   000031                     led_turn_on@led:
   280                           	callstack 0
   281   000031                     led_turn_off@led:
   282                           	callstack 0
   283   000031                     gpio_pin_initialize@_pin_config:
   284                           	callstack 0
   285   000031                     button_initialize@ret:
   286                           	callstack 0
   287   000031                     button_read_status@button_status:
   288                           	callstack 0
   289                           
   290                           ; 1 bytes @ 0x8
   291   000031                     	ds	1
   292   000032                     ??_gpio_pin_initialize:
   293   000032                     ??_button_read_status:
   294   000032                     ??_led_turn_on:
   295   000032                     ??_led_turn_off:
   296                           
   297                           ; 1 bytes @ 0x9
   298   000032                     	ds	1
   299   000033                     led_turn_on@ret:
   300                           	callstack 0
   301   000033                     led_turn_off@ret:
   302                           	callstack 0
   303   000033                     gpio_pin_initialize@ret:
   304                           	callstack 0
   305                           
   306                           ; 1 bytes @ 0xA
   307   000033                     	ds	1
   308   000034                     led_initialize@led:
   309                           	callstack 0
   310   000034                     led_turn_on@pin:
   311                           	callstack 0
   312   000034                     led_turn_off@pin:
   313                           	callstack 0
   314   000034                     button_read_status@ret:
   315                           	callstack 0
   316                           
   317                           ; 1 bytes @ 0xB
   318   000034                     	ds	1
   319   000035                     ??_led_initialize:
   320   000035                     button_read_status@pin_logic_status:
   321                           	callstack 0
   322                           
   323                           ; 1 bytes @ 0xC
   324   000035                     	ds	1
   325   000036                     led_initialize@ret:
   326                           	callstack 0
   327                           
   328                           ; 1 bytes @ 0xD
   329   000036                     	ds	1
   330   000037                     led_initialize@pin:
   331                           	callstack 0
   332                           
   333                           ; 1 bytes @ 0xE
   334   000037                     	ds	1
   335   000038                     
   336                           ; 1 bytes @ 0xF
   337 ;;
   338 ;;Main: autosize = 0, tempsize = 0, incstack = 0, save=0
   339 ;;
   340 ;; *************** function _main *****************
   341 ;; Defined at:
   342 ;;		line 59 in file "Application1.c"
   343 ;; Parameters:    Size  Location     Type
   344 ;;		None
   345 ;; Auto vars:     Size  Location     Type
   346 ;;		None
   347 ;; Return value:  Size  Location     Type
   348 ;;                  2  169[None  ] int 
   349 ;; Registers used:
   350 ;;		wreg, fsr1l, fsr1h, fsr2l, fsr2h, status,2, status,0, prodl, prodh, cstack
   351 ;; Tracked objects:
   352 ;;		On entry : 0/0
   353 ;;		On exit  : 0/0
   354 ;;		Unchanged: 0/0
   355 ;; Data sizes:     COMRAM   BANK0   BANK1   BANK2   BANK3   BANK4   BANK5   BANK6   BANK7   BANK8   BANK9  BANK10  BANK1
      +1  BANK12  BANK13  BANK14  BANK15
   356 ;;      Params:         0       0       0       0       0       0       0       0       0       0       0       0       
      +0       0       0       0       0
   357 ;;      Locals:         0       0       0       0       0       0       0       0       0       0       0       0       
      +0       0       0       0       0
   358 ;;      Temps:          0       0       0       0       0       0       0       0       0       0       0       0       
      +0       0       0       0       0
   359 ;;      Totals:         0       0       0       0       0       0       0       0       0       0       0       0       
      +0       0       0       0       0
   360 ;;Total ram usage:        0 bytes
   361 ;; Hardware stack levels required when called: 4
   362 ;; This function calls:
   363 ;;		_application_initialize
   364 ;;		_button_read_status
   365 ;;		_led_turn_off
   366 ;;		_led_turn_on
   367 ;; This function is called by:
   368 ;;		Startup code after reset
   369 ;; This function uses a non-reentrant model
   370 ;;
   371                           
   372                           	psect	text0
   373   00134C                     __ptext0:
   374                           	callstack 0
   375   00134C                     _main:
   376                           	callstack 27
   377   00134C                     
   378                           ;Application1.c: 61:     application_initialize();
   379   00134C  EC83  F00B         	call	_application_initialize	;wreg free
   380   001350                     l1370:
   381                           
   382                           ;Application1.c: 64:     {;Application1.c: 93:         ret = button_read_status(&btn_hig
      +                          h,&btn_high_status);
   383   001350  0E22               	movlw	low _btn_high
   384   001352  6E30               	movwf	button_read_status@button^0,c
   385   001354  0E26               	movlw	low _btn_high_status
   386   001356  6E31               	movwf	button_read_status@button_status^0,c
   387   001358  ECFE  F009         	call	_button_read_status	;wreg free
   388   00135C  6E3D               	movwf	_ret^0,c
   389   00135E                     
   390                           ;Application1.c: 94:         ret = button_read_status(&btn_low,&btn_low_status);
   391   00135E  0E1F               	movlw	low _btn_low
   392   001360  6E30               	movwf	button_read_status@button^0,c
   393   001362  0E25               	movlw	low _btn_low_status
   394   001364  6E31               	movwf	button_read_status@button_status^0,c
   395   001366  ECFE  F009         	call	_button_read_status	;wreg free
   396   00136A  6E3D               	movwf	_ret^0,c
   397   00136C                     
   398                           ;Application1.c: 95:         if((BUTTON_PRESSED == btn_high_status) && (0 == btn_high_fl
      +                          ag))
   399   00136C  5026               	movf	_btn_high_status^0,w,c
   400   00136E  A4D8               	btfss	status,2,c
   401   001370  EFBC  F009         	goto	u881
   402   001374  EFBE  F009         	goto	u880
   403   001378                     u881:
   404   001378  EFCF  F009         	goto	l1382
   405   00137C                     u880:
   406   00137C  5038               	movf	_btn_high_flag^0,w,c
   407   00137E  A4D8               	btfss	status,2,c
   408   001380  EFC4  F009         	goto	u891
   409   001384  EFC6  F009         	goto	u890
   410   001388                     u891:
   411   001388  EFCF  F009         	goto	l1382
   412   00138C                     u890:
   413   00138C                     
   414                           ;Application1.c: 96:         {;Application1.c: 97:             ret = led_turn_on(&led1);
   415   00138C  0E28               	movlw	low _led1
   416   00138E  6E31               	movwf	led_turn_on@led^0,c
   417   001390  EC93  F00A         	call	_led_turn_on	;wreg free
   418   001394  6E3D               	movwf	_ret^0,c
   419   001396                     
   420                           ;Application1.c: 98:             btn_high_flag = 1;
   421   001396  0E01               	movlw	1
   422   001398  6E38               	movwf	_btn_high_flag^0,c
   423                           
   424                           ;Application1.c: 99:         }
   425   00139A  EFE6  F009         	goto	l1390
   426   00139E                     l1382:
   427   00139E  5026               	movf	_btn_high_status^0,w,c
   428   0013A0  A4D8               	btfss	status,2,c
   429   0013A2  EFD5  F009         	goto	u901
   430   0013A6  EFD7  F009         	goto	u900
   431   0013AA                     u901:
   432   0013AA  EFE6  F009         	goto	l1390
   433   0013AE                     u900:
   434   0013AE  0438               	decf	_btn_high_flag^0,w,c
   435   0013B0  A4D8               	btfss	status,2,c
   436   0013B2  EFDD  F009         	goto	u911
   437   0013B6  EFDF  F009         	goto	u910
   438   0013BA                     u911:
   439   0013BA  EFE6  F009         	goto	l1390
   440   0013BE                     u910:
   441   0013BE                     
   442                           ;Application1.c: 101:         {;Application1.c: 102:             ret = led_turn_off(&led
      +                          1);
   443   0013BE  0E28               	movlw	low _led1
   444   0013C0  6E31               	movwf	led_turn_off@led^0,c
   445   0013C2  ECCE  F00A         	call	_led_turn_off	;wreg free
   446   0013C6  6E3D               	movwf	_ret^0,c
   447   0013C8                     
   448                           ;Application1.c: 103:             btn_high_flag = 0;
   449   0013C8  0E00               	movlw	0
   450   0013CA  6E38               	movwf	_btn_high_flag^0,c
   451   0013CC                     l1390:
   452                           
   453                           ;Application1.c: 105:         if(BUTTON_PRESSED == btn_low_status)
   454   0013CC  5025               	movf	_btn_low_status^0,w,c
   455   0013CE  A4D8               	btfss	status,2,c
   456   0013D0  EFEC  F009         	goto	u921
   457   0013D4  EFEE  F009         	goto	u920
   458   0013D8                     u921:
   459   0013D8  EFF5  F009         	goto	l1394
   460   0013DC                     u920:
   461   0013DC                     
   462                           ;Application1.c: 106:         {;Application1.c: 107:             ret = led_turn_on(&led2
      +                          );
   463   0013DC  0E27               	movlw	low _led2
   464   0013DE  6E31               	movwf	led_turn_on@led^0,c
   465   0013E0  EC93  F00A         	call	_led_turn_on	;wreg free
   466   0013E4  6E3D               	movwf	_ret^0,c
   467                           
   468                           ;Application1.c: 108:         }
   469   0013E6  EFA8  F009         	goto	l1370
   470   0013EA                     l1394:
   471                           
   472                           ;Application1.c: 110:         {;Application1.c: 111:             ret = led_turn_off(&led
      +                          2);
   473   0013EA  0E27               	movlw	low _led2
   474   0013EC  6E31               	movwf	led_turn_off@led^0,c
   475   0013EE  ECCE  F00A         	call	_led_turn_off	;wreg free
   476   0013F2  6E3D               	movwf	_ret^0,c
   477   0013F4  EFA8  F009         	goto	l1370
   478   0013F8  EF00  F000         	goto	start
   479   0013FC                     __end_of_main:
   480                           	callstack 0
   481                           
   482 ;; *************** function _led_turn_on *****************
   483 ;; Defined at:
   484 ;;		line 48 in file "ECU_Layer/LED/ecu_led.c"
   485 ;; Parameters:    Size  Location     Type
   486 ;;  led             1    8[COMRAM] PTR const struct .
   487 ;;		 -> led2(1), led1(1), 
   488 ;; Auto vars:     Size  Location     Type
   489 ;;  pin             1   11[COMRAM] struct .
   490 ;;  ret             1   10[COMRAM] unsigned char 
   491 ;; Return value:  Size  Location     Type
   492 ;;                  1    wreg      unsigned char 
   493 ;; Registers used:
   494 ;;		wreg, fsr2l, fsr2h, status,2, status,0, prodl, prodh, cstack
   495 ;; Tracked objects:
   496 ;;		On entry : 0/0
   497 ;;		On exit  : 0/0
   498 ;;		Unchanged: 0/0
   499 ;; Data sizes:     COMRAM   BANK0   BANK1   BANK2   BANK3   BANK4   BANK5   BANK6   BANK7   BANK8   BANK9  BANK10  BANK1
      +1  BANK12  BANK13  BANK14  BANK15
   500 ;;      Params:         1       0       0       0       0       0       0       0       0       0       0       0       
      +0       0       0       0       0
   501 ;;      Locals:         2       0       0       0       0       0       0       0       0       0       0       0       
      +0       0       0       0       0
   502 ;;      Temps:          1       0       0       0       0       0       0       0       0       0       0       0       
      +0       0       0       0       0
   503 ;;      Totals:         4       0       0       0       0       0       0       0       0       0       0       0       
      +0       0       0       0       0
   504 ;;Total ram usage:        4 bytes
   505 ;; Hardware stack levels used: 1
   506 ;; Hardware stack levels required when called: 1
   507 ;; This function calls:
   508 ;;		_gpio_pin_write_logic
   509 ;; This function is called by:
   510 ;;		_main
   511 ;; This function uses a non-reentrant model
   512 ;;
   513                           
   514                           	psect	text1
   515   001526                     __ptext1:
   516                           	callstack 0
   517   001526                     _led_turn_on:
   518                           	callstack 29
   519   001526                     
   520                           ;ECU_Layer/LED/ecu_led.c: 51:     if(led != ((void*)0))
   521   001526  5031               	movf	led_turn_on@led^0,w,c
   522   001528  B4D8               	btfsc	status,2,c
   523   00152A  EF99  F00A         	goto	u801
   524   00152E  EF9B  F00A         	goto	u800
   525   001532                     u801:
   526   001532  EFCA  F00A         	goto	l1308
   527   001536                     u800:
   528   001536                     
   529                           ;ECU_Layer/LED/ecu_led.c: 52:     {;ECU_Layer/LED/ecu_led.c: 53:         pin_config_t pi
      +                          n = {.port = led->port ,.pin = led->pin ,
   530   001536  C03B  F034         	movff	led_turn_on@F2897,led_turn_on@pin
   531   00153A  5031               	movf	led_turn_on@led^0,w,c
   532   00153C  6ED9               	movwf	fsr2l,c
   533   00153E  6ADA               	clrf	fsr2h,c
   534   001540  50DF               	movf	223,w,c
   535   001542  0B07               	andlw	7
   536   001544  6E32               	movwf	??_led_turn_on^0,c
   537   001546  5034               	movf	led_turn_on@pin^0,w,c
   538   001548  1832               	xorwf	??_led_turn_on^0,w,c
   539   00154A  0BF8               	andlw	-8
   540   00154C  1832               	xorwf	??_led_turn_on^0,w,c
   541   00154E  6E34               	movwf	led_turn_on@pin^0,c
   542   001550  5031               	movf	led_turn_on@led^0,w,c
   543   001552  6ED9               	movwf	fsr2l,c
   544   001554  6ADA               	clrf	fsr2h,c
   545   001556  30DF               	rrcf	223,w,c
   546   001558  32E8               	rrcf	wreg,f,c
   547   00155A  32E8               	rrcf	wreg,f,c
   548   00155C  0B07               	andlw	7
   549   00155E  6E32               	movwf	??_led_turn_on^0,c
   550   001560  4632               	rlncf	??_led_turn_on^0,f,c
   551   001562  4632               	rlncf	??_led_turn_on^0,f,c
   552   001564  4632               	rlncf	??_led_turn_on^0,f,c
   553   001566  5034               	movf	led_turn_on@pin^0,w,c
   554   001568  1832               	xorwf	??_led_turn_on^0,w,c
   555   00156A  0BC7               	andlw	-57
   556   00156C  1832               	xorwf	??_led_turn_on^0,w,c
   557   00156E  6E34               	movwf	led_turn_on@pin^0,c
   558   001570  9C34               	bcf	led_turn_on@pin^0,6,c
   559   001572  5031               	movf	led_turn_on@led^0,w,c
   560   001574  6ED9               	movwf	fsr2l,c
   561   001576  6ADA               	clrf	fsr2h,c
   562   001578  ACDF               	btfss	indf2,6,c
   563   00157A  D002               	bra	u815
   564   00157C  8E34               	bsf	led_turn_on@pin^0,7,c
   565   00157E  D001               	bra	u817
   566   001580                     u815:
   567   001580  9E34               	bcf	led_turn_on@pin^0,7,c
   568   001582                     u817:
   569   001582                     
   570                           ;ECU_Layer/LED/ecu_led.c: 55:         ret = gpio_pin_write_logic(&pin,GPIO_LOGIC_HIGH);
   571   001582  0E34               	movlw	low led_turn_on@pin
   572   001584  6E29               	movwf	gpio_pin_write_logic@_pin_config^0,c
   573   001586  0E01               	movlw	1
   574   001588  6E2A               	movwf	gpio_pin_write_logic@logic^0,c
   575   00158A  ECA4  F008         	call	_gpio_pin_write_logic	;wreg free
   576   00158E  6E33               	movwf	led_turn_on@ret^0,c
   577                           
   578                           ;ECU_Layer/LED/ecu_led.c: 56:     }
   579   001590  EFCC  F00A         	goto	l19
   580   001594                     l1308:
   581   001594  0E00               	movlw	0
   582   001596  6E33               	movwf	led_turn_on@ret^0,c
   583   001598                     l19:
   584                           
   585                           ;ECU_Layer/LED/ecu_led.c: 59:     return ret;
   586   001598  5033               	movf	led_turn_on@ret^0,w,c
   587   00159A  0012               	return		;funcret
   588   00159C                     __end_of_led_turn_on:
   589                           	callstack 0
   590                           
   591 ;; *************** function _led_turn_off *****************
   592 ;; Defined at:
   593 ;;		line 69 in file "ECU_Layer/LED/ecu_led.c"
   594 ;; Parameters:    Size  Location     Type
   595 ;;  led             1    8[COMRAM] PTR const struct .
   596 ;;		 -> led2(1), led1(1), 
   597 ;; Auto vars:     Size  Location     Type
   598 ;;  pin             1   11[COMRAM] struct .
   599 ;;  ret             1   10[COMRAM] unsigned char 
   600 ;; Return value:  Size  Location     Type
   601 ;;                  1    wreg      unsigned char 
   602 ;; Registers used:
   603 ;;		wreg, fsr2l, fsr2h, status,2, status,0, prodl, prodh, cstack
   604 ;; Tracked objects:
   605 ;;		On entry : 0/0
   606 ;;		On exit  : 0/0
   607 ;;		Unchanged: 0/0
   608 ;; Data sizes:     COMRAM   BANK0   BANK1   BANK2   BANK3   BANK4   BANK5   BANK6   BANK7   BANK8   BANK9  BANK10  BANK1
      +1  BANK12  BANK13  BANK14  BANK15
   609 ;;      Params:         1       0       0       0       0       0       0       0       0       0       0       0       
      +0       0       0       0       0
   610 ;;      Locals:         2       0       0       0       0       0       0       0       0       0       0       0       
      +0       0       0       0       0
   611 ;;      Temps:          1       0       0       0       0       0       0       0       0       0       0       0       
      +0       0       0       0       0
   612 ;;      Totals:         4       0       0       0       0       0       0       0       0       0       0       0       
      +0       0       0       0       0
   613 ;;Total ram usage:        4 bytes
   614 ;; Hardware stack levels used: 1
   615 ;; Hardware stack levels required when called: 1
   616 ;; This function calls:
   617 ;;		_gpio_pin_write_logic
   618 ;; This function is called by:
   619 ;;		_main
   620 ;; This function uses a non-reentrant model
   621 ;;
   622                           
   623                           	psect	text2
   624   00159C                     __ptext2:
   625                           	callstack 0
   626   00159C                     _led_turn_off:
   627                           	callstack 29
   628   00159C                     
   629                           ;ECU_Layer/LED/ecu_led.c: 72:     if(led != ((void*)0))
   630   00159C  5031               	movf	led_turn_off@led^0,w,c
   631   00159E  B4D8               	btfsc	status,2,c
   632   0015A0  EFD4  F00A         	goto	u821
   633   0015A4  EFD6  F00A         	goto	u820
   634   0015A8                     u821:
   635   0015A8  EF05  F00B         	goto	l1324
   636   0015AC                     u820:
   637   0015AC                     
   638                           ;ECU_Layer/LED/ecu_led.c: 73:     {;ECU_Layer/LED/ecu_led.c: 74:         pin_config_t pi
      +                          n = {.port = led->port ,.pin = led->pin ,
   639   0015AC  C03A  F034         	movff	led_turn_off@F2902,led_turn_off@pin
   640   0015B0  5031               	movf	led_turn_off@led^0,w,c
   641   0015B2  6ED9               	movwf	fsr2l,c
   642   0015B4  6ADA               	clrf	fsr2h,c
   643   0015B6  50DF               	movf	223,w,c
   644   0015B8  0B07               	andlw	7
   645   0015BA  6E32               	movwf	??_led_turn_off^0,c
   646   0015BC  5034               	movf	led_turn_off@pin^0,w,c
   647   0015BE  1832               	xorwf	??_led_turn_off^0,w,c
   648   0015C0  0BF8               	andlw	-8
   649   0015C2  1832               	xorwf	??_led_turn_off^0,w,c
   650   0015C4  6E34               	movwf	led_turn_off@pin^0,c
   651   0015C6  5031               	movf	led_turn_off@led^0,w,c
   652   0015C8  6ED9               	movwf	fsr2l,c
   653   0015CA  6ADA               	clrf	fsr2h,c
   654   0015CC  30DF               	rrcf	223,w,c
   655   0015CE  32E8               	rrcf	wreg,f,c
   656   0015D0  32E8               	rrcf	wreg,f,c
   657   0015D2  0B07               	andlw	7
   658   0015D4  6E32               	movwf	??_led_turn_off^0,c
   659   0015D6  4632               	rlncf	??_led_turn_off^0,f,c
   660   0015D8  4632               	rlncf	??_led_turn_off^0,f,c
   661   0015DA  4632               	rlncf	??_led_turn_off^0,f,c
   662   0015DC  5034               	movf	led_turn_off@pin^0,w,c
   663   0015DE  1832               	xorwf	??_led_turn_off^0,w,c
   664   0015E0  0BC7               	andlw	-57
   665   0015E2  1832               	xorwf	??_led_turn_off^0,w,c
   666   0015E4  6E34               	movwf	led_turn_off@pin^0,c
   667   0015E6  9C34               	bcf	led_turn_off@pin^0,6,c
   668   0015E8  5031               	movf	led_turn_off@led^0,w,c
   669   0015EA  6ED9               	movwf	fsr2l,c
   670   0015EC  6ADA               	clrf	fsr2h,c
   671   0015EE  ACDF               	btfss	indf2,6,c
   672   0015F0  D002               	bra	u835
   673   0015F2  8E34               	bsf	led_turn_off@pin^0,7,c
   674   0015F4  D001               	bra	u837
   675   0015F6                     u835:
   676   0015F6  9E34               	bcf	led_turn_off@pin^0,7,c
   677   0015F8                     u837:
   678   0015F8                     
   679                           ;ECU_Layer/LED/ecu_led.c: 76:         ret = gpio_pin_write_logic(&pin,GPIO_LOGIC_LOW);
   680   0015F8  0E34               	movlw	low led_turn_off@pin
   681   0015FA  6E29               	movwf	gpio_pin_write_logic@_pin_config^0,c
   682   0015FC  0E00               	movlw	0
   683   0015FE  6E2A               	movwf	gpio_pin_write_logic@logic^0,c
   684   001600  ECA4  F008         	call	_gpio_pin_write_logic	;wreg free
   685   001604  6E33               	movwf	led_turn_off@ret^0,c
   686                           
   687                           ;ECU_Layer/LED/ecu_led.c: 77:     }
   688   001606  EF07  F00B         	goto	l26
   689   00160A                     l1324:
   690   00160A  0E00               	movlw	0
   691   00160C  6E33               	movwf	led_turn_off@ret^0,c
   692   00160E                     l26:
   693                           
   694                           ;ECU_Layer/LED/ecu_led.c: 80:     return ret;
   695   00160E  5033               	movf	led_turn_off@ret^0,w,c
   696   001610  0012               	return		;funcret
   697   001612                     __end_of_led_turn_off:
   698                           	callstack 0
   699                           
   700 ;; *************** function _button_read_status *****************
   701 ;; Defined at:
   702 ;;		line 45 in file "ECU_Layer/button/ecu_button.c"
   703 ;; Parameters:    Size  Location     Type
   704 ;;  button          1    7[COMRAM] PTR const struct .
   705 ;;		 -> btn_low(3), btn_high(3), 
   706 ;;  button_statu    1    8[COMRAM] PTR enum E2871
   707 ;;		 -> btn_low_status(1), btn_high_status(1), 
   708 ;; Auto vars:     Size  Location     Type
   709 ;;  pin_logic_st    1   12[COMRAM] enum E2832
   710 ;;  ret             1   11[COMRAM] unsigned char 
   711 ;; Return value:  Size  Location     Type
   712 ;;                  1    wreg      unsigned char 
   713 ;; Registers used:
   714 ;;		wreg, fsr1l, fsr1h, fsr2l, fsr2h, status,2, status,0, prodl, prodh, cstack
   715 ;; Tracked objects:
   716 ;;		On entry : 0/0
   717 ;;		On exit  : 0/0
   718 ;;		Unchanged: 0/0
   719 ;; Data sizes:     COMRAM   BANK0   BANK1   BANK2   BANK3   BANK4   BANK5   BANK6   BANK7   BANK8   BANK9  BANK10  BANK1
      +1  BANK12  BANK13  BANK14  BANK15
   720 ;;      Params:         2       0       0       0       0       0       0       0       0       0       0       0       
      +0       0       0       0       0
   721 ;;      Locals:         2       0       0       0       0       0       0       0       0       0       0       0       
      +0       0       0       0       0
   722 ;;      Temps:          2       0       0       0       0       0       0       0       0       0       0       0       
      +0       0       0       0       0
   723 ;;      Totals:         6       0       0       0       0       0       0       0       0       0       0       0       
      +0       0       0       0       0
   724 ;;Total ram usage:        6 bytes
   725 ;; Hardware stack levels used: 1
   726 ;; Hardware stack levels required when called: 1
   727 ;; This function calls:
   728 ;;		_gpio_pin_read_logic
   729 ;; This function is called by:
   730 ;;		_main
   731 ;; This function uses a non-reentrant model
   732 ;;
   733                           
   734                           	psect	text3
   735   0013FC                     __ptext3:
   736                           	callstack 0
   737   0013FC                     _button_read_status:
   738                           	callstack 29
   739   0013FC                     
   740                           ;ECU_Layer/button/ecu_button.c: 48:     logic_t pin_logic_status = GPIO_LOGIC_LOW;
   741   0013FC  0E00               	movlw	0
   742   0013FE  6E35               	movwf	button_read_status@pin_logic_status^0,c
   743                           
   744                           ;ECU_Layer/button/ecu_button.c: 49:     if((button != ((void*)0)) && (button_status))
   745   001400  5030               	movf	button_read_status@button^0,w,c
   746   001402  B4D8               	btfsc	status,2,c
   747   001404  EF06  F00A         	goto	u841
   748   001408  EF08  F00A         	goto	u840
   749   00140C                     u841:
   750   00140C  EF52  F00A         	goto	l1360
   751   001410                     u840:
   752   001410  5031               	movf	button_read_status@button_status^0,w,c
   753   001412  B4D8               	btfsc	status,2,c
   754   001414  EF0E  F00A         	goto	u851
   755   001418  EF10  F00A         	goto	u850
   756   00141C                     u851:
   757   00141C  EF52  F00A         	goto	l1360
   758   001420                     u850:
   759   001420                     
   760                           ;ECU_Layer/button/ecu_button.c: 50:     {;ECU_Layer/button/ecu_button.c: 51:         ret
      +                           = gpio_pin_read_logic(&(button->button_pin),&pin_logic_status);
   761   001420  C030  F029         	movff	button_read_status@button,gpio_pin_read_logic@_pin_config
   762   001424  0E35               	movlw	low button_read_status@pin_logic_status
   763   001426  6E2A               	movwf	gpio_pin_read_logic@logic^0,c
   764   001428  EC46  F009         	call	_gpio_pin_read_logic	;wreg free
   765   00142C  6E34               	movwf	button_read_status@ret^0,c
   766                           
   767                           ;ECU_Layer/button/ecu_button.c: 52:         switch (button->button_connection)
   768   00142E  EF38  F00A         	goto	l1358
   769   001432                     l1344:
   770                           
   771                           ;ECU_Layer/button/ecu_button.c: 55:                 if(GPIO_LOGIC_HIGH == pin_logic_stat
      +                          us)
   772   001432  0435               	decf	button_read_status@pin_logic_status^0,w,c
   773   001434  A4D8               	btfss	status,2,c
   774   001436  EF1F  F00A         	goto	u861
   775   00143A  EF21  F00A         	goto	u860
   776   00143E                     u861:
   777   00143E  EF27  F00A         	goto	l1348
   778   001442                     u860:
   779   001442                     l1346:
   780                           
   781                           ;ECU_Layer/button/ecu_button.c: 56:                 {;ECU_Layer/button/ecu_button.c: 57:
      +                                               *button_status = BUTTON_PRESSED;
   782   001442  5031               	movf	button_read_status@button_status^0,w,c
   783   001444  6ED9               	movwf	fsr2l,c
   784   001446  6ADA               	clrf	fsr2h,c
   785   001448  6ADF               	clrf	indf2,c
   786                           
   787                           ;ECU_Layer/button/ecu_button.c: 58:                 }
   788   00144A  EF54  F00A         	goto	l203
   789   00144E                     l1348:
   790                           
   791                           ;ECU_Layer/button/ecu_button.c: 60:                 {;ECU_Layer/button/ecu_button.c: 61:
      +                                               *button_status = BUTTON_RELEASED;
   792   00144E  5031               	movf	button_read_status@button_status^0,w,c
   793   001450  6ED9               	movwf	fsr2l,c
   794   001452  6ADA               	clrf	fsr2h,c
   795   001454  0E01               	movlw	1
   796   001456  6EDF               	movwf	indf2,c
   797   001458  EF54  F00A         	goto	l203
   798   00145C                     l1350:
   799                           
   800                           ;ECU_Layer/button/ecu_button.c: 65:                 if(GPIO_LOGIC_HIGH == pin_logic_stat
      +                          us)
   801   00145C  0435               	decf	button_read_status@pin_logic_status^0,w,c
   802   00145E  A4D8               	btfss	status,2,c
   803   001460  EF34  F00A         	goto	u871
   804   001464  EF36  F00A         	goto	u870
   805   001468                     u871:
   806   001468  EF21  F00A         	goto	l1346
   807   00146C                     u870:
   808   00146C  EF27  F00A         	goto	l1348
   809   001470                     l1358:
   810   001470  5030               	movf	button_read_status@button^0,w,c
   811   001472  6ED9               	movwf	fsr2l,c
   812   001474  6ADA               	clrf	fsr2h,c
   813   001476  0E02               	movlw	2
   814   001478  26D9               	addwf	fsr2l,f,c
   815   00147A  50DF               	movf	indf2,w,c
   816   00147C  6E32               	movwf	??_button_read_status^0,c
   817   00147E  6A33               	clrf	(??_button_read_status+1)^0,c
   818                           
   819                           ; Switch on 2 bytes has been partitioned into a top level switch of size 1, and 1 sub-sw
      +                          itches
   820                           ; Switch size 1, requested type "simple"
   821                           ; Number of cases is 1, Range of values is 0 to 0
   822                           ; switch strategies available:
   823                           ; Name         Instructions Cycles
   824                           ; simple_byte            4     3 (average)
   825                           ;	Chosen strategy is simple_byte
   826   001480  5033               	movf	(??_button_read_status+1)^0,w,c
   827   001482  0A00               	xorlw	0	; case 0
   828   001484  B4D8               	btfsc	status,2,c
   829   001486  EF47  F00A         	goto	l1408
   830   00148A  EF54  F00A         	goto	l203
   831   00148E                     l1408:
   832                           
   833                           ; Switch size 1, requested type "simple"
   834                           ; Number of cases is 2, Range of values is 0 to 1
   835                           ; switch strategies available:
   836                           ; Name         Instructions Cycles
   837                           ; simple_byte            7     4 (average)
   838                           ;	Chosen strategy is simple_byte
   839   00148E  5032               	movf	??_button_read_status^0,w,c
   840   001490  0A00               	xorlw	0	; case 0
   841   001492  B4D8               	btfsc	status,2,c
   842   001494  EF19  F00A         	goto	l1344
   843   001498  0A01               	xorlw	1	; case 1
   844   00149A  B4D8               	btfsc	status,2,c
   845   00149C  EF2E  F00A         	goto	l1350
   846   0014A0  EF54  F00A         	goto	l203
   847   0014A4                     l1360:
   848   0014A4  0E00               	movlw	0
   849   0014A6  6E34               	movwf	button_read_status@ret^0,c
   850   0014A8                     l203:
   851                           
   852                           ;ECU_Layer/button/ecu_button.c: 80:     return ret;
   853   0014A8  5034               	movf	button_read_status@ret^0,w,c
   854   0014AA  0012               	return		;funcret
   855   0014AC                     __end_of_button_read_status:
   856                           	callstack 0
   857                           
   858 ;; *************** function _gpio_pin_read_logic *****************
   859 ;; Defined at:
   860 ;;		line 120 in file "MCAL_Layer/GPIO/hal_gpio.c"
   861 ;; Parameters:    Size  Location     Type
   862 ;;  _pin_config     1    0[COMRAM] PTR const struct .
   863 ;;		 -> btn_low(3), btn_high(3), 
   864 ;;  logic           1    1[COMRAM] PTR enum E2832
   865 ;;		 -> button_read_status@pin_logic_status(1), 
   866 ;; Auto vars:     Size  Location     Type
   867 ;;  ret             1    6[COMRAM] unsigned char 
   868 ;; Return value:  Size  Location     Type
   869 ;;                  1    wreg      unsigned char 
   870 ;; Registers used:
   871 ;;		wreg, fsr1l, fsr1h, fsr2l, fsr2h, status,2, status,0, prodl, prodh
   872 ;; Tracked objects:
   873 ;;		On entry : 0/0
   874 ;;		On exit  : 0/0
   875 ;;		Unchanged: 0/0
   876 ;; Data sizes:     COMRAM   BANK0   BANK1   BANK2   BANK3   BANK4   BANK5   BANK6   BANK7   BANK8   BANK9  BANK10  BANK1
      +1  BANK12  BANK13  BANK14  BANK15
   877 ;;      Params:         2       0       0       0       0       0       0       0       0       0       0       0       
      +0       0       0       0       0
   878 ;;      Locals:         1       0       0       0       0       0       0       0       0       0       0       0       
      +0       0       0       0       0
   879 ;;      Temps:          4       0       0       0       0       0       0       0       0       0       0       0       
      +0       0       0       0       0
   880 ;;      Totals:         7       0       0       0       0       0       0       0       0       0       0       0       
      +0       0       0       0       0
   881 ;;Total ram usage:        7 bytes
   882 ;; Hardware stack levels used: 1
   883 ;; This function calls:
   884 ;;		Nothing
   885 ;; This function is called by:
   886 ;;		_button_read_status
   887 ;; This function uses a non-reentrant model
   888 ;;
   889                           
   890                           	psect	text4
   891   00128C                     __ptext4:
   892                           	callstack 0
   893   00128C                     _gpio_pin_read_logic:
   894                           	callstack 29
   895   00128C                     
   896                           ;MCAL_Layer/GPIO/hal_gpio.c: 120: Std_ReturnType gpio_pin_read_logic(const pin_config_t 
      +                          *_pin_config , logic_t *logic);MCAL_Layer/GPIO/hal_gpio.c: 121: {;MCAL_Layer/GPIO/hal_gp
      +                          io.c: 122:     Std_ReturnType ret = (Std_ReturnType)0x01;
   897   00128C  0E01               	movlw	1
   898   00128E  6E2F               	movwf	gpio_pin_read_logic@ret^0,c
   899                           
   900                           ;MCAL_Layer/GPIO/hal_gpio.c: 123:     if((_pin_config != ((void*)0)) && (logic != ((void
      +                          *)0)) && (_pin_config->port <= 5 -1) && (_pin_config->pin <= 8 -1))
   901   001290  5029               	movf	gpio_pin_read_logic@_pin_config^0,w,c
   902   001292  B4D8               	btfsc	status,2,c
   903   001294  EF4E  F009         	goto	u741
   904   001298  EF50  F009         	goto	u740
   905   00129C                     u741:
   906   00129C  EFA2  F009         	goto	l1284
   907   0012A0                     u740:
   908   0012A0  502A               	movf	gpio_pin_read_logic@logic^0,w,c
   909   0012A2  B4D8               	btfsc	status,2,c
   910   0012A4  EF56  F009         	goto	u751
   911   0012A8  EF58  F009         	goto	u750
   912   0012AC                     u751:
   913   0012AC  EFA2  F009         	goto	l1284
   914   0012B0                     u750:
   915   0012B0  5029               	movf	gpio_pin_read_logic@_pin_config^0,w,c
   916   0012B2  6ED9               	movwf	fsr2l,c
   917   0012B4  6ADA               	clrf	fsr2h,c
   918   0012B6  50DF               	movf	223,w,c
   919   0012B8  0B07               	andlw	7
   920   0012BA  6E2B               	movwf	??_gpio_pin_read_logic^0,c
   921   0012BC  0E05               	movlw	5
   922   0012BE  602B               	cpfslt	??_gpio_pin_read_logic^0,c
   923   0012C0  EF64  F009         	goto	u761
   924   0012C4  EF66  F009         	goto	u760
   925   0012C8                     u761:
   926   0012C8  EFA2  F009         	goto	l1284
   927   0012CC                     u760:
   928   0012CC  5029               	movf	gpio_pin_read_logic@_pin_config^0,w,c
   929   0012CE  6ED9               	movwf	fsr2l,c
   930   0012D0  6ADA               	clrf	fsr2h,c
   931   0012D2  30DF               	rrcf	223,w,c
   932   0012D4  32E8               	rrcf	wreg,f,c
   933   0012D6  32E8               	rrcf	wreg,f,c
   934   0012D8  0B07               	andlw	7
   935   0012DA  6E2B               	movwf	??_gpio_pin_read_logic^0,c
   936   0012DC  0E08               	movlw	8
   937   0012DE  602B               	cpfslt	??_gpio_pin_read_logic^0,c
   938   0012E0  EF74  F009         	goto	u771
   939   0012E4  EF76  F009         	goto	u770
   940   0012E8                     u771:
   941   0012E8  EFA2  F009         	goto	l1284
   942   0012EC                     u770:
   943   0012EC                     
   944                           ;MCAL_Layer/GPIO/hal_gpio.c: 124:     {;MCAL_Layer/GPIO/hal_gpio.c: 125:         *logic 
      +                          = ((*port_registers[_pin_config->port] >> _pin_config->pin) & 1);
   945   0012EC  502A               	movf	gpio_pin_read_logic@logic^0,w,c
   946   0012EE  6ED9               	movwf	fsr2l,c
   947   0012F0  6ADA               	clrf	fsr2h,c
   948   0012F2  5029               	movf	gpio_pin_read_logic@_pin_config^0,w,c
   949   0012F4  6EE1               	movwf	fsr1l,c
   950   0012F6  6AE2               	clrf	fsr1h,c
   951   0012F8  30E7               	rrcf	231,w,c
   952   0012FA  32E8               	rrcf	wreg,f,c
   953   0012FC  32E8               	rrcf	wreg,f,c
   954   0012FE  0B07               	andlw	7
   955   001300  6E2B               	movwf	??_gpio_pin_read_logic^0,c
   956   001302  5029               	movf	gpio_pin_read_logic@_pin_config^0,w,c
   957   001304  6EE1               	movwf	fsr1l,c
   958   001306  6AE2               	clrf	fsr1h,c
   959   001308  50E7               	movf	231,w,c
   960   00130A  0B07               	andlw	7
   961   00130C  0D02               	mullw	2
   962   00130E  50F3               	movf	243,w,c
   963   001310  0F01               	addlw	low _port_registers
   964   001312  6EE1               	movwf	fsr1l,c
   965   001314  6AE2               	clrf	fsr1h,c
   966   001316  CFE6 F02C          	movff	postinc1,??_gpio_pin_read_logic+1
   967   00131A  CFE5 F02D          	movff	postdec1,??_gpio_pin_read_logic+2
   968   00131E  C02C  FFE1         	movff	??_gpio_pin_read_logic+1,fsr1l
   969   001322  C02D  FFE2         	movff	??_gpio_pin_read_logic+2,fsr1h
   970   001326  50E7               	movf	indf1,w,c
   971   001328  6E2E               	movwf	(??_gpio_pin_read_logic+3)^0,c
   972   00132A  2A2B               	incf	??_gpio_pin_read_logic^0,f,c
   973   00132C  EF9A  F009         	goto	u784
   974   001330                     u785:
   975   001330  90D8               	bcf	status,0,c
   976   001332  322E               	rrcf	(??_gpio_pin_read_logic+3)^0,f,c
   977   001334                     u784:
   978   001334  2E2B               	decfsz	??_gpio_pin_read_logic^0,f,c
   979   001336  EF98  F009         	goto	u785
   980   00133A  502E               	movf	(??_gpio_pin_read_logic+3)^0,w,c
   981   00133C  0B01               	andlw	1
   982   00133E  6EDF               	movwf	indf2,c
   983                           
   984                           ;MCAL_Layer/GPIO/hal_gpio.c: 126:     }
   985   001340  EFA4  F009         	goto	l101
   986   001344                     l1284:
   987   001344  0E00               	movlw	0
   988   001346  6E2F               	movwf	gpio_pin_read_logic@ret^0,c
   989   001348                     l101:
   990                           
   991                           ;MCAL_Layer/GPIO/hal_gpio.c: 128:     return ret;
   992   001348  502F               	movf	gpio_pin_read_logic@ret^0,w,c
   993   00134A  0012               	return		;funcret
   994   00134C                     __end_of_gpio_pin_read_logic:
   995                           	callstack 0
   996                           
   997 ;; *************** function _application_initialize *****************
   998 ;; Defined at:
   999 ;;		line 119 in file "Application1.c"
  1000 ;; Parameters:    Size  Location     Type
  1001 ;;		None
  1002 ;; Auto vars:     Size  Location     Type
  1003 ;;  ret_init        1    0        unsigned char 
  1004 ;; Return value:  Size  Location     Type
  1005 ;;                  1    wreg      void 
  1006 ;; Registers used:
  1007 ;;		wreg, fsr2l, fsr2h, status,2, status,0, prodl, prodh, cstack
  1008 ;; Tracked objects:
  1009 ;;		On entry : 0/0
  1010 ;;		On exit  : 0/0
  1011 ;;		Unchanged: 0/0
  1012 ;; Data sizes:     COMRAM   BANK0   BANK1   BANK2   BANK3   BANK4   BANK5   BANK6   BANK7   BANK8   BANK9  BANK10  BANK1
      +1  BANK12  BANK13  BANK14  BANK15
  1013 ;;      Params:         0       0       0       0       0       0       0       0       0       0       0       0       
      +0       0       0       0       0
  1014 ;;      Locals:         0       0       0       0       0       0       0       0       0       0       0       0       
      +0       0       0       0       0
  1015 ;;      Temps:          0       0       0       0       0       0       0       0       0       0       0       0       
      +0       0       0       0       0
  1016 ;;      Totals:         0       0       0       0       0       0       0       0       0       0       0       0       
      +0       0       0       0       0
  1017 ;;Total ram usage:        0 bytes
  1018 ;; Hardware stack levels used: 1
  1019 ;; Hardware stack levels required when called: 3
  1020 ;; This function calls:
  1021 ;;		_button_initialize
  1022 ;;		_led_initialize
  1023 ;; This function is called by:
  1024 ;;		_main
  1025 ;; This function uses a non-reentrant model
  1026 ;;
  1027                           
  1028                           	psect	text5
  1029   001706                     __ptext5:
  1030                           	callstack 0
  1031   001706                     _application_initialize:
  1032                           	callstack 27
  1033   001706  0E22               	movlw	low _btn_high
  1034   001708  6E30               	movwf	button_initialize@button^0,c
  1035   00170A  EC70  F00B         	call	_button_initialize	;wreg free
  1036   00170E  0E1F               	movlw	low _btn_low
  1037   001710  6E30               	movwf	button_initialize@button^0,c
  1038   001712  EC70  F00B         	call	_button_initialize	;wreg free
  1039   001716  0E28               	movlw	low _led1
  1040   001718  6E34               	movwf	led_initialize@led^0,c
  1041   00171A  EC09  F00B         	call	_led_initialize	;wreg free
  1042   00171E  0E27               	movlw	low _led2
  1043   001720  6E34               	movwf	led_initialize@led^0,c
  1044   001722  EC09  F00B         	call	_led_initialize	;wreg free
  1045   001726  0012               	return		;funcret
  1046   001728                     __end_of_application_initialize:
  1047                           	callstack 0
  1048                           
  1049 ;; *************** function _led_initialize *****************
  1050 ;; Defined at:
  1051 ;;		line 27 in file "ECU_Layer/LED/ecu_led.c"
  1052 ;; Parameters:    Size  Location     Type
  1053 ;;  led             1   11[COMRAM] PTR const struct .
  1054 ;;		 -> led2(1), led1(1), 
  1055 ;; Auto vars:     Size  Location     Type
  1056 ;;  pin             1   14[COMRAM] struct .
  1057 ;;  ret             1   13[COMRAM] unsigned char 
  1058 ;; Return value:  Size  Location     Type
  1059 ;;                  1    wreg      unsigned char 
  1060 ;; Registers used:
  1061 ;;		wreg, fsr2l, fsr2h, status,2, status,0, prodl, prodh, cstack
  1062 ;; Tracked objects:
  1063 ;;		On entry : 0/0
  1064 ;;		On exit  : 0/0
  1065 ;;		Unchanged: 0/0
  1066 ;; Data sizes:     COMRAM   BANK0   BANK1   BANK2   BANK3   BANK4   BANK5   BANK6   BANK7   BANK8   BANK9  BANK10  BANK1
      +1  BANK12  BANK13  BANK14  BANK15
  1067 ;;      Params:         1       0       0       0       0       0       0       0       0       0       0       0       
      +0       0       0       0       0
  1068 ;;      Locals:         2       0       0       0       0       0       0       0       0       0       0       0       
      +0       0       0       0       0
  1069 ;;      Temps:          1       0       0       0       0       0       0       0       0       0       0       0       
      +0       0       0       0       0
  1070 ;;      Totals:         4       0       0       0       0       0       0       0       0       0       0       0       
      +0       0       0       0       0
  1071 ;;Total ram usage:        4 bytes
  1072 ;; Hardware stack levels used: 1
  1073 ;; Hardware stack levels required when called: 2
  1074 ;; This function calls:
  1075 ;;		_gpio_pin_initialize
  1076 ;; This function is called by:
  1077 ;;		_application_initialize
  1078 ;; This function uses a non-reentrant model
  1079 ;;
  1080                           
  1081                           	psect	text6
  1082   001612                     __ptext6:
  1083                           	callstack 0
  1084   001612                     _led_initialize:
  1085                           	callstack 27
  1086   001612                     
  1087                           ;ECU_Layer/LED/ecu_led.c: 30:     if(led != ((void*)0))
  1088   001612  5034               	movf	led_initialize@led^0,w,c
  1089   001614  B4D8               	btfsc	status,2,c
  1090   001616  EF0F  F00B         	goto	u721
  1091   00161A  EF11  F00B         	goto	u720
  1092   00161E                     u721:
  1093   00161E  EF3E  F00B         	goto	l1270
  1094   001622                     u720:
  1095   001622                     
  1096                           ;ECU_Layer/LED/ecu_led.c: 31:     {;ECU_Layer/LED/ecu_led.c: 32:         pin_config_t pi
      +                          n = {.port = led->port ,.pin = led->pin ,
  1097   001622  C03C  F037         	movff	led_initialize@F2892,led_initialize@pin
  1098   001626  5034               	movf	led_initialize@led^0,w,c
  1099   001628  6ED9               	movwf	fsr2l,c
  1100   00162A  6ADA               	clrf	fsr2h,c
  1101   00162C  50DF               	movf	223,w,c
  1102   00162E  0B07               	andlw	7
  1103   001630  6E35               	movwf	??_led_initialize^0,c
  1104   001632  5037               	movf	led_initialize@pin^0,w,c
  1105   001634  1835               	xorwf	??_led_initialize^0,w,c
  1106   001636  0BF8               	andlw	-8
  1107   001638  1835               	xorwf	??_led_initialize^0,w,c
  1108   00163A  6E37               	movwf	led_initialize@pin^0,c
  1109   00163C  5034               	movf	led_initialize@led^0,w,c
  1110   00163E  6ED9               	movwf	fsr2l,c
  1111   001640  6ADA               	clrf	fsr2h,c
  1112   001642  30DF               	rrcf	223,w,c
  1113   001644  32E8               	rrcf	wreg,f,c
  1114   001646  32E8               	rrcf	wreg,f,c
  1115   001648  0B07               	andlw	7
  1116   00164A  6E35               	movwf	??_led_initialize^0,c
  1117   00164C  4635               	rlncf	??_led_initialize^0,f,c
  1118   00164E  4635               	rlncf	??_led_initialize^0,f,c
  1119   001650  4635               	rlncf	??_led_initialize^0,f,c
  1120   001652  5037               	movf	led_initialize@pin^0,w,c
  1121   001654  1835               	xorwf	??_led_initialize^0,w,c
  1122   001656  0BC7               	andlw	-57
  1123   001658  1835               	xorwf	??_led_initialize^0,w,c
  1124   00165A  6E37               	movwf	led_initialize@pin^0,c
  1125   00165C  9C37               	bcf	led_initialize@pin^0,6,c
  1126   00165E  5034               	movf	led_initialize@led^0,w,c
  1127   001660  6ED9               	movwf	fsr2l,c
  1128   001662  6ADA               	clrf	fsr2h,c
  1129   001664  ACDF               	btfss	indf2,6,c
  1130   001666  D002               	bra	u735
  1131   001668  8E37               	bsf	led_initialize@pin^0,7,c
  1132   00166A  D001               	bra	u737
  1133   00166C                     u735:
  1134   00166C  9E37               	bcf	led_initialize@pin^0,7,c
  1135   00166E                     u737:
  1136   00166E                     
  1137                           ;ECU_Layer/LED/ecu_led.c: 34:         ret = gpio_pin_initialize(&pin);
  1138   00166E  0E37               	movlw	low led_initialize@pin
  1139   001670  6E31               	movwf	gpio_pin_initialize@_pin_config^0,c
  1140   001672  EC56  F00A         	call	_gpio_pin_initialize	;wreg free
  1141   001676  6E36               	movwf	led_initialize@ret^0,c
  1142                           
  1143                           ;ECU_Layer/LED/ecu_led.c: 35:     }
  1144   001678  EF40  F00B         	goto	l12
  1145   00167C                     l1270:
  1146   00167C  0E00               	movlw	0
  1147   00167E  6E36               	movwf	led_initialize@ret^0,c
  1148   001680                     l12:
  1149                           
  1150                           ;ECU_Layer/LED/ecu_led.c: 38:     return ret;
  1151   001680  5036               	movf	led_initialize@ret^0,w,c
  1152   001682  0012               	return		;funcret
  1153   001684                     __end_of_led_initialize:
  1154                           	callstack 0
  1155                           
  1156 ;; *************** function _gpio_pin_initialize *****************
  1157 ;; Defined at:
  1158 ;;		line 160 in file "MCAL_Layer/GPIO/hal_gpio.c"
  1159 ;; Parameters:    Size  Location     Type
  1160 ;;  _pin_config     1    8[COMRAM] PTR const struct .
  1161 ;;		 -> led_initialize@pin(1), 
  1162 ;; Auto vars:     Size  Location     Type
  1163 ;;  ret             1   10[COMRAM] unsigned char 
  1164 ;; Return value:  Size  Location     Type
  1165 ;;                  1    wreg      unsigned char 
  1166 ;; Registers used:
  1167 ;;		wreg, fsr2l, fsr2h, status,2, status,0, prodl, prodh, cstack
  1168 ;; Tracked objects:
  1169 ;;		On entry : 0/0
  1170 ;;		On exit  : 0/0
  1171 ;;		Unchanged: 0/0
  1172 ;; Data sizes:     COMRAM   BANK0   BANK1   BANK2   BANK3   BANK4   BANK5   BANK6   BANK7   BANK8   BANK9  BANK10  BANK1
      +1  BANK12  BANK13  BANK14  BANK15
  1173 ;;      Params:         1       0       0       0       0       0       0       0       0       0       0       0       
      +0       0       0       0       0
  1174 ;;      Locals:         1       0       0       0       0       0       0       0       0       0       0       0       
      +0       0       0       0       0
  1175 ;;      Temps:          1       0       0       0       0       0       0       0       0       0       0       0       
      +0       0       0       0       0
  1176 ;;      Totals:         3       0       0       0       0       0       0       0       0       0       0       0       
      +0       0       0       0       0
  1177 ;;Total ram usage:        3 bytes
  1178 ;; Hardware stack levels used: 1
  1179 ;; Hardware stack levels required when called: 1
  1180 ;; This function calls:
  1181 ;;		_gpio_pin_direction_initialize
  1182 ;;		_gpio_pin_write_logic
  1183 ;; This function is called by:
  1184 ;;		_led_initialize
  1185 ;; This function uses a non-reentrant model
  1186 ;;
  1187                           
  1188                           	psect	text7
  1189   0014AC                     __ptext7:
  1190                           	callstack 0
  1191   0014AC                     _gpio_pin_initialize:
  1192                           	callstack 27
  1193   0014AC                     
  1194                           ;MCAL_Layer/GPIO/hal_gpio.c: 163:     if((_pin_config != ((void*)0)) && (_pin_config->po
      +                          rt <= 5 -1) && (_pin_config->pin <= 8 -1))
  1195   0014AC  5031               	movf	gpio_pin_initialize@_pin_config^0,w,c
  1196   0014AE  B4D8               	btfsc	status,2,c
  1197   0014B0  EF5C  F00A         	goto	u691
  1198   0014B4  EF5E  F00A         	goto	u690
  1199   0014B8                     u691:
  1200   0014B8  EF8F  F00A         	goto	l1254
  1201   0014BC                     u690:
  1202   0014BC  5031               	movf	gpio_pin_initialize@_pin_config^0,w,c
  1203   0014BE  6ED9               	movwf	fsr2l,c
  1204   0014C0  6ADA               	clrf	fsr2h,c
  1205   0014C2  50DF               	movf	223,w,c
  1206   0014C4  0B07               	andlw	7
  1207   0014C6  6E32               	movwf	??_gpio_pin_initialize^0,c
  1208   0014C8  0E05               	movlw	5
  1209   0014CA  6032               	cpfslt	??_gpio_pin_initialize^0,c
  1210   0014CC  EF6A  F00A         	goto	u701
  1211   0014D0  EF6C  F00A         	goto	u700
  1212   0014D4                     u701:
  1213   0014D4  EF8F  F00A         	goto	l1254
  1214   0014D8                     u700:
  1215   0014D8  5031               	movf	gpio_pin_initialize@_pin_config^0,w,c
  1216   0014DA  6ED9               	movwf	fsr2l,c
  1217   0014DC  6ADA               	clrf	fsr2h,c
  1218   0014DE  30DF               	rrcf	223,w,c
  1219   0014E0  32E8               	rrcf	wreg,f,c
  1220   0014E2  32E8               	rrcf	wreg,f,c
  1221   0014E4  0B07               	andlw	7
  1222   0014E6  6E32               	movwf	??_gpio_pin_initialize^0,c
  1223   0014E8  0E08               	movlw	8
  1224   0014EA  6032               	cpfslt	??_gpio_pin_initialize^0,c
  1225   0014EC  EF7A  F00A         	goto	u711
  1226   0014F0  EF7C  F00A         	goto	u710
  1227   0014F4                     u711:
  1228   0014F4  EF8F  F00A         	goto	l1254
  1229   0014F8                     u710:
  1230   0014F8                     
  1231                           ;MCAL_Layer/GPIO/hal_gpio.c: 164:     {;MCAL_Layer/GPIO/hal_gpio.c: 165:         ret = g
      +                          pio_pin_direction_initialize(_pin_config);
  1232   0014F8  C031  F029         	movff	gpio_pin_initialize@_pin_config,gpio_pin_direction_initialize@_pin_config
  1233   0014FC  EC01  F008         	call	_gpio_pin_direction_initialize	;wreg free
  1234   001500  6E33               	movwf	gpio_pin_initialize@ret^0,c
  1235                           
  1236                           ;MCAL_Layer/GPIO/hal_gpio.c: 166:         ret = gpio_pin_write_logic(_pin_config,_pin_co
      +                          nfig->logic);
  1237   001502  C031  F029         	movff	gpio_pin_initialize@_pin_config,gpio_pin_write_logic@_pin_config
  1238   001506  5031               	movf	gpio_pin_initialize@_pin_config^0,w,c
  1239   001508  6ED9               	movwf	fsr2l,c
  1240   00150A  6ADA               	clrf	fsr2h,c
  1241   00150C  0E00               	movlw	0
  1242   00150E  BEDF               	btfsc	indf2,7,c
  1243   001510  0E01               	movlw	1
  1244   001512  6E2A               	movwf	gpio_pin_write_logic@logic^0,c
  1245   001514  ECA4  F008         	call	_gpio_pin_write_logic	;wreg free
  1246   001518  6E33               	movwf	gpio_pin_initialize@ret^0,c
  1247                           
  1248                           ;MCAL_Layer/GPIO/hal_gpio.c: 167:     }
  1249   00151A  EF91  F00A         	goto	l111
  1250   00151E                     l1254:
  1251   00151E  0E00               	movlw	0
  1252   001520  6E33               	movwf	gpio_pin_initialize@ret^0,c
  1253   001522                     l111:
  1254                           
  1255                           ;MCAL_Layer/GPIO/hal_gpio.c: 169:     return ret;
  1256   001522  5033               	movf	gpio_pin_initialize@ret^0,w,c
  1257   001524  0012               	return		;funcret
  1258   001526                     __end_of_gpio_pin_initialize:
  1259                           	callstack 0
  1260                           
  1261 ;; *************** function _gpio_pin_write_logic *****************
  1262 ;; Defined at:
  1263 ;;		line 86 in file "MCAL_Layer/GPIO/hal_gpio.c"
  1264 ;; Parameters:    Size  Location     Type
  1265 ;;  _pin_config     1    0[COMRAM] PTR const struct .
  1266 ;;		 -> led_turn_off@pin(1), led_turn_on@pin(1), led_initialize@pin(1), 
  1267 ;;  logic           1    1[COMRAM] enum E2832
  1268 ;; Auto vars:     Size  Location     Type
  1269 ;;  ret             1    7[COMRAM] unsigned char 
  1270 ;; Return value:  Size  Location     Type
  1271 ;;                  1    wreg      unsigned char 
  1272 ;; Registers used:
  1273 ;;		wreg, fsr2l, fsr2h, status,2, status,0, prodl, prodh
  1274 ;; Tracked objects:
  1275 ;;		On entry : 0/0
  1276 ;;		On exit  : 0/0
  1277 ;;		Unchanged: 0/0
  1278 ;; Data sizes:     COMRAM   BANK0   BANK1   BANK2   BANK3   BANK4   BANK5   BANK6   BANK7   BANK8   BANK9  BANK10  BANK1
      +1  BANK12  BANK13  BANK14  BANK15
  1279 ;;      Params:         2       0       0       0       0       0       0       0       0       0       0       0       
      +0       0       0       0       0
  1280 ;;      Locals:         1       0       0       0       0       0       0       0       0       0       0       0       
      +0       0       0       0       0
  1281 ;;      Temps:          5       0       0       0       0       0       0       0       0       0       0       0       
      +0       0       0       0       0
  1282 ;;      Totals:         8       0       0       0       0       0       0       0       0       0       0       0       
      +0       0       0       0       0
  1283 ;;Total ram usage:        8 bytes
  1284 ;; Hardware stack levels used: 1
  1285 ;; This function calls:
  1286 ;;		Nothing
  1287 ;; This function is called by:
  1288 ;;		_led_turn_on
  1289 ;;		_led_turn_off
  1290 ;;		_gpio_pin_initialize
  1291 ;; This function uses a non-reentrant model
  1292 ;;
  1293                           
  1294                           	psect	text8
  1295   001148                     __ptext8:
  1296                           	callstack 0
  1297   001148                     _gpio_pin_write_logic:
  1298                           	callstack 29
  1299   001148                     
  1300                           ;MCAL_Layer/GPIO/hal_gpio.c: 86: Std_ReturnType gpio_pin_write_logic(const pin_config_t 
      +                          *_pin_config , logic_t logic);MCAL_Layer/GPIO/hal_gpio.c: 87: {;MCAL_Layer/GPIO/hal_gpio
      +                          .c: 88:     Std_ReturnType ret = (Std_ReturnType)0x01;
  1301   001148  0E01               	movlw	1
  1302   00114A  6E30               	movwf	gpio_pin_write_logic@ret^0,c
  1303                           
  1304                           ;MCAL_Layer/GPIO/hal_gpio.c: 89:     if((_pin_config != ((void*)0)) && (_pin_config->por
      +                          t <= 5 -1) && (_pin_config->pin <= 8 -1))
  1305   00114C  5029               	movf	gpio_pin_write_logic@_pin_config^0,w,c
  1306   00114E  B4D8               	btfsc	status,2,c
  1307   001150  EFAC  F008         	goto	u561
  1308   001154  EFAE  F008         	goto	u560
  1309   001158                     u561:
  1310   001158  EF2B  F009         	goto	l1208
  1311   00115C                     u560:
  1312   00115C  5029               	movf	gpio_pin_write_logic@_pin_config^0,w,c
  1313   00115E  6ED9               	movwf	fsr2l,c
  1314   001160  6ADA               	clrf	fsr2h,c
  1315   001162  50DF               	movf	223,w,c
  1316   001164  0B07               	andlw	7
  1317   001166  6E2B               	movwf	??_gpio_pin_write_logic^0,c
  1318   001168  0E05               	movlw	5
  1319   00116A  602B               	cpfslt	??_gpio_pin_write_logic^0,c
  1320   00116C  EFBA  F008         	goto	u571
  1321   001170  EFBC  F008         	goto	u570
  1322   001174                     u571:
  1323   001174  EF2B  F009         	goto	l1208
  1324   001178                     u570:
  1325   001178  5029               	movf	gpio_pin_write_logic@_pin_config^0,w,c
  1326   00117A  6ED9               	movwf	fsr2l,c
  1327   00117C  6ADA               	clrf	fsr2h,c
  1328   00117E  30DF               	rrcf	223,w,c
  1329   001180  32E8               	rrcf	wreg,f,c
  1330   001182  32E8               	rrcf	wreg,f,c
  1331   001184  0B07               	andlw	7
  1332   001186  6E2B               	movwf	??_gpio_pin_write_logic^0,c
  1333   001188  0E08               	movlw	8
  1334   00118A  602B               	cpfslt	??_gpio_pin_write_logic^0,c
  1335   00118C  EFCA  F008         	goto	u581
  1336   001190  EFCC  F008         	goto	u580
  1337   001194                     u581:
  1338   001194  EF2B  F009         	goto	l1208
  1339   001198                     u580:
  1340   001198                     
  1341                           ;MCAL_Layer/GPIO/hal_gpio.c: 90:     {;MCAL_Layer/GPIO/hal_gpio.c: 91:         if(_pin_c
      +                          onfig->direction == GPIO_DIRECTION_OUTPUT)
  1342   001198  5029               	movf	gpio_pin_write_logic@_pin_config^0,w,c
  1343   00119A  6ED9               	movwf	fsr2l,c
  1344   00119C  6ADA               	clrf	fsr2h,c
  1345   00119E  BCDF               	btfsc	indf2,6,c
  1346   0011A0  EFD4  F008         	goto	u591
  1347   0011A4  EFD6  F008         	goto	u590
  1348   0011A8                     u591:
  1349   0011A8  EF2B  F009         	goto	l1208
  1350   0011AC                     u590:
  1351   0011AC  EF2F  F009         	goto	l1210
  1352   0011B0                     l1204:
  1353                           
  1354                           ;MCAL_Layer/GPIO/hal_gpio.c: 96:                     (*lat_registers[_pin_config->port] 
      +                          &=~ ((uint8)0x01 << _pin_config->pin));
  1355   0011B0  5029               	movf	gpio_pin_write_logic@_pin_config^0,w,c
  1356   0011B2  6ED9               	movwf	fsr2l,c
  1357   0011B4  6ADA               	clrf	fsr2h,c
  1358   0011B6  30DF               	rrcf	223,w,c
  1359   0011B8  32E8               	rrcf	wreg,f,c
  1360   0011BA  32E8               	rrcf	wreg,f,c
  1361   0011BC  0B07               	andlw	7
  1362   0011BE  6E2B               	movwf	??_gpio_pin_write_logic^0,c
  1363   0011C0  0E01               	movlw	1
  1364   0011C2  6E2C               	movwf	(??_gpio_pin_write_logic+1)^0,c
  1365   0011C4  2A2B               	incf	??_gpio_pin_write_logic^0,f,c
  1366   0011C6  EFE7  F008         	goto	u604
  1367   0011CA                     u605:
  1368   0011CA  90D8               	bcf	status,0,c
  1369   0011CC  362C               	rlcf	(??_gpio_pin_write_logic+1)^0,f,c
  1370   0011CE                     u604:
  1371   0011CE  2E2B               	decfsz	??_gpio_pin_write_logic^0,f,c
  1372   0011D0  EFE5  F008         	goto	u605
  1373   0011D4  502C               	movf	(??_gpio_pin_write_logic+1)^0,w,c
  1374   0011D6  0AFF               	xorlw	255
  1375   0011D8  6E2D               	movwf	(??_gpio_pin_write_logic+2)^0,c
  1376   0011DA  5029               	movf	gpio_pin_write_logic@_pin_config^0,w,c
  1377   0011DC  6ED9               	movwf	fsr2l,c
  1378   0011DE  6ADA               	clrf	fsr2h,c
  1379   0011E0  50DF               	movf	223,w,c
  1380   0011E2  0B07               	andlw	7
  1381   0011E4  0D02               	mullw	2
  1382   0011E6  50F3               	movf	243,w,c
  1383   0011E8  0F0B               	addlw	low _lat_registers
  1384   0011EA  6ED9               	movwf	fsr2l,c
  1385   0011EC  6ADA               	clrf	fsr2h,c
  1386   0011EE  CFDE F02E          	movff	postinc2,??_gpio_pin_write_logic+3
  1387   0011F2  CFDD F02F          	movff	postdec2,??_gpio_pin_write_logic+4
  1388   0011F6  C02E  FFD9         	movff	??_gpio_pin_write_logic+3,fsr2l
  1389   0011FA  C02F  FFDA         	movff	??_gpio_pin_write_logic+4,fsr2h
  1390   0011FE  502D               	movf	(??_gpio_pin_write_logic+2)^0,w,c
  1391   001200  16DF               	andwf	indf2,f,c
  1392                           
  1393                           ;MCAL_Layer/GPIO/hal_gpio.c: 97:                     break;
  1394   001202  EF44  F009         	goto	l96
  1395   001206                     l1206:
  1396                           
  1397                           ;MCAL_Layer/GPIO/hal_gpio.c: 99:                     (*lat_registers[_pin_config->port] 
      +                          |= ((uint8)0x01 << _pin_config->pin));
  1398   001206  5029               	movf	gpio_pin_write_logic@_pin_config^0,w,c
  1399   001208  6ED9               	movwf	fsr2l,c
  1400   00120A  6ADA               	clrf	fsr2h,c
  1401   00120C  30DF               	rrcf	223,w,c
  1402   00120E  32E8               	rrcf	wreg,f,c
  1403   001210  32E8               	rrcf	wreg,f,c
  1404   001212  0B07               	andlw	7
  1405   001214  6E2B               	movwf	??_gpio_pin_write_logic^0,c
  1406   001216  0E01               	movlw	1
  1407   001218  6E2C               	movwf	(??_gpio_pin_write_logic+1)^0,c
  1408   00121A  2A2B               	incf	??_gpio_pin_write_logic^0,f,c
  1409   00121C  EF12  F009         	goto	u614
  1410   001220                     u615:
  1411   001220  90D8               	bcf	status,0,c
  1412   001222  362C               	rlcf	(??_gpio_pin_write_logic+1)^0,f,c
  1413   001224                     u614:
  1414   001224  2E2B               	decfsz	??_gpio_pin_write_logic^0,f,c
  1415   001226  EF10  F009         	goto	u615
  1416   00122A  5029               	movf	gpio_pin_write_logic@_pin_config^0,w,c
  1417   00122C  6ED9               	movwf	fsr2l,c
  1418   00122E  6ADA               	clrf	fsr2h,c
  1419   001230  50DF               	movf	223,w,c
  1420   001232  0B07               	andlw	7
  1421   001234  0D02               	mullw	2
  1422   001236  50F3               	movf	243,w,c
  1423   001238  0F0B               	addlw	low _lat_registers
  1424   00123A  6ED9               	movwf	fsr2l,c
  1425   00123C  6ADA               	clrf	fsr2h,c
  1426   00123E  CFDE F02D          	movff	postinc2,??_gpio_pin_write_logic+2
  1427   001242  CFDD F02E          	movff	postdec2,??_gpio_pin_write_logic+3
  1428   001246  C02D  FFD9         	movff	??_gpio_pin_write_logic+2,fsr2l
  1429   00124A  C02E  FFDA         	movff	??_gpio_pin_write_logic+3,fsr2h
  1430   00124E  502C               	movf	(??_gpio_pin_write_logic+1)^0,w,c
  1431   001250  12DF               	iorwf	indf2,f,c
  1432                           
  1433                           ;MCAL_Layer/GPIO/hal_gpio.c: 100:                     break;
  1434   001252  EF44  F009         	goto	l96
  1435   001256                     l1208:
  1436   001256  0E00               	movlw	0
  1437   001258  6E30               	movwf	gpio_pin_write_logic@ret^0,c
  1438                           
  1439                           ;MCAL_Layer/GPIO/hal_gpio.c: 102:             }
  1440   00125A  EF44  F009         	goto	l96
  1441   00125E                     l1210:
  1442   00125E  502A               	movf	gpio_pin_write_logic@logic^0,w,c
  1443   001260  6E2B               	movwf	??_gpio_pin_write_logic^0,c
  1444   001262  6A2C               	clrf	(??_gpio_pin_write_logic+1)^0,c
  1445                           
  1446                           ; Switch on 2 bytes has been partitioned into a top level switch of size 1, and 1 sub-sw
      +                          itches
  1447                           ; Switch size 1, requested type "simple"
  1448                           ; Number of cases is 1, Range of values is 0 to 0
  1449                           ; switch strategies available:
  1450                           ; Name         Instructions Cycles
  1451                           ; simple_byte            4     3 (average)
  1452                           ;	Chosen strategy is simple_byte
  1453   001264  502C               	movf	(??_gpio_pin_write_logic+1)^0,w,c
  1454   001266  0A00               	xorlw	0	; case 0
  1455   001268  B4D8               	btfsc	status,2,c
  1456   00126A  EF39  F009         	goto	l1410
  1457   00126E  EF2B  F009         	goto	l1208
  1458   001272                     l1410:
  1459                           
  1460                           ; Switch size 1, requested type "simple"
  1461                           ; Number of cases is 2, Range of values is 0 to 1
  1462                           ; switch strategies available:
  1463                           ; Name         Instructions Cycles
  1464                           ; simple_byte            7     4 (average)
  1465                           ;	Chosen strategy is simple_byte
  1466   001272  502B               	movf	??_gpio_pin_write_logic^0,w,c
  1467   001274  0A00               	xorlw	0	; case 0
  1468   001276  B4D8               	btfsc	status,2,c
  1469   001278  EFD8  F008         	goto	l1204
  1470   00127C  0A01               	xorlw	1	; case 1
  1471   00127E  B4D8               	btfsc	status,2,c
  1472   001280  EF03  F009         	goto	l1206
  1473   001284  EF2B  F009         	goto	l1208
  1474   001288                     l96:
  1475                           
  1476                           ;MCAL_Layer/GPIO/hal_gpio.c: 107:     return ret;
  1477   001288  5030               	movf	gpio_pin_write_logic@ret^0,w,c
  1478   00128A  0012               	return		;funcret
  1479   00128C                     __end_of_gpio_pin_write_logic:
  1480                           	callstack 0
  1481                           
  1482 ;; *************** function _button_initialize *****************
  1483 ;; Defined at:
  1484 ;;		line 25 in file "ECU_Layer/button/ecu_button.c"
  1485 ;; Parameters:    Size  Location     Type
  1486 ;;  button          1    7[COMRAM] PTR const struct .
  1487 ;;		 -> btn_low(3), btn_high(3), 
  1488 ;; Auto vars:     Size  Location     Type
  1489 ;;  ret             1    8[COMRAM] unsigned char 
  1490 ;; Return value:  Size  Location     Type
  1491 ;;                  1    wreg      unsigned char 
  1492 ;; Registers used:
  1493 ;;		wreg, fsr2l, fsr2h, status,2, status,0, prodl, prodh, cstack
  1494 ;; Tracked objects:
  1495 ;;		On entry : 0/0
  1496 ;;		On exit  : 0/0
  1497 ;;		Unchanged: 0/0
  1498 ;; Data sizes:     COMRAM   BANK0   BANK1   BANK2   BANK3   BANK4   BANK5   BANK6   BANK7   BANK8   BANK9  BANK10  BANK1
      +1  BANK12  BANK13  BANK14  BANK15
  1499 ;;      Params:         1       0       0       0       0       0       0       0       0       0       0       0       
      +0       0       0       0       0
  1500 ;;      Locals:         1       0       0       0       0       0       0       0       0       0       0       0       
      +0       0       0       0       0
  1501 ;;      Temps:          0       0       0       0       0       0       0       0       0       0       0       0       
      +0       0       0       0       0
  1502 ;;      Totals:         2       0       0       0       0       0       0       0       0       0       0       0       
      +0       0       0       0       0
  1503 ;;Total ram usage:        2 bytes
  1504 ;; Hardware stack levels used: 1
  1505 ;; Hardware stack levels required when called: 1
  1506 ;; This function calls:
  1507 ;;		_gpio_pin_direction_initialize
  1508 ;; This function is called by:
  1509 ;;		_application_initialize
  1510 ;; This function uses a non-reentrant model
  1511 ;;
  1512                           
  1513                           	psect	text9
  1514   0016E0                     __ptext9:
  1515                           	callstack 0
  1516   0016E0                     _button_initialize:
  1517                           	callstack 28
  1518   0016E0                     
  1519                           ;ECU_Layer/button/ecu_button.c: 28:     if(button != ((void*)0))
  1520   0016E0  5030               	movf	button_initialize@button^0,w,c
  1521   0016E2  B4D8               	btfsc	status,2,c
  1522   0016E4  EF76  F00B         	goto	u791
  1523   0016E8  EF78  F00B         	goto	u790
  1524   0016EC                     u791:
  1525   0016EC  EF7F  F00B         	goto	l1292
  1526   0016F0                     u790:
  1527   0016F0                     
  1528                           ;ECU_Layer/button/ecu_button.c: 29:     {;ECU_Layer/button/ecu_button.c: 30:         ret
      +                           = gpio_pin_direction_initialize(&(button->button_pin));
  1529   0016F0  C030  F029         	movff	button_initialize@button,gpio_pin_direction_initialize@_pin_config
  1530   0016F4  EC01  F008         	call	_gpio_pin_direction_initialize	;wreg free
  1531   0016F8  6E31               	movwf	button_initialize@ret^0,c
  1532                           
  1533                           ;ECU_Layer/button/ecu_button.c: 31:     }
  1534   0016FA  EF81  F00B         	goto	l189
  1535   0016FE                     l1292:
  1536   0016FE  0E00               	movlw	0
  1537   001700  6E31               	movwf	button_initialize@ret^0,c
  1538   001702                     l189:
  1539                           
  1540                           ;ECU_Layer/button/ecu_button.c: 34:     return ret;
  1541   001702  5031               	movf	button_initialize@ret^0,w,c
  1542   001704  0012               	return		;funcret
  1543   001706                     __end_of_button_initialize:
  1544                           	callstack 0
  1545                           
  1546 ;; *************** function _gpio_pin_direction_initialize *****************
  1547 ;; Defined at:
  1548 ;;		line 34 in file "MCAL_Layer/GPIO/hal_gpio.c"
  1549 ;; Parameters:    Size  Location     Type
  1550 ;;  _pin_config     1    0[COMRAM] PTR const struct .
  1551 ;;		 -> btn_low(3), btn_high(3), led_initialize@pin(1), 
  1552 ;; Auto vars:     Size  Location     Type
  1553 ;;  ret             1    6[COMRAM] unsigned char 
  1554 ;; Return value:  Size  Location     Type
  1555 ;;                  1    wreg      unsigned char 
  1556 ;; Registers used:
  1557 ;;		wreg, fsr2l, fsr2h, status,2, status,0, prodl, prodh
  1558 ;; Tracked objects:
  1559 ;;		On entry : 0/0
  1560 ;;		On exit  : 0/0
  1561 ;;		Unchanged: 0/0
  1562 ;; Data sizes:     COMRAM   BANK0   BANK1   BANK2   BANK3   BANK4   BANK5   BANK6   BANK7   BANK8   BANK9  BANK10  BANK1
      +1  BANK12  BANK13  BANK14  BANK15
  1563 ;;      Params:         1       0       0       0       0       0       0       0       0       0       0       0       
      +0       0       0       0       0
  1564 ;;      Locals:         1       0       0       0       0       0       0       0       0       0       0       0       
      +0       0       0       0       0
  1565 ;;      Temps:          5       0       0       0       0       0       0       0       0       0       0       0       
      +0       0       0       0       0
  1566 ;;      Totals:         7       0       0       0       0       0       0       0       0       0       0       0       
      +0       0       0       0       0
  1567 ;;Total ram usage:        7 bytes
  1568 ;; Hardware stack levels used: 1
  1569 ;; This function calls:
  1570 ;;		Nothing
  1571 ;; This function is called by:
  1572 ;;		_gpio_pin_initialize
  1573 ;;		_button_initialize
  1574 ;; This function uses a non-reentrant model
  1575 ;;
  1576                           
  1577                           	psect	text10
  1578   001002                     __ptext10:
  1579                           	callstack 0
  1580   001002                     _gpio_pin_direction_initialize:
  1581                           	callstack 27
  1582   001002                     
  1583                           ;MCAL_Layer/GPIO/hal_gpio.c: 34: Std_ReturnType gpio_pin_direction_initialize(const pin_
      +                          config_t *_pin_config);MCAL_Layer/GPIO/hal_gpio.c: 35: {;MCAL_Layer/GPIO/hal_gpio.c: 36:
      +                               Std_ReturnType ret = (Std_ReturnType)0x01;
  1584   001002  0E01               	movlw	1
  1585   001004  6E2F               	movwf	gpio_pin_direction_initialize@ret^0,c
  1586                           
  1587                           ;MCAL_Layer/GPIO/hal_gpio.c: 37:     if((_pin_config != ((void*)0)) && (_pin_config->por
      +                          t <= 5 -1) && (_pin_config->pin <= 8 -1))
  1588   001006  5029               	movf	gpio_pin_direction_initialize@_pin_config^0,w,c
  1589   001008  B4D8               	btfsc	status,2,c
  1590   00100A  EF09  F008         	goto	u621
  1591   00100E  EF0B  F008         	goto	u620
  1592   001012                     u621:
  1593   001012  EF7E  F008         	goto	l1234
  1594   001016                     u620:
  1595   001016  5029               	movf	gpio_pin_direction_initialize@_pin_config^0,w,c
  1596   001018  6ED9               	movwf	fsr2l,c
  1597   00101A  6ADA               	clrf	fsr2h,c
  1598   00101C  50DF               	movf	223,w,c
  1599   00101E  0B07               	andlw	7
  1600   001020  6E2A               	movwf	??_gpio_pin_direction_initialize^0,c
  1601   001022  0E05               	movlw	5
  1602   001024  602A               	cpfslt	??_gpio_pin_direction_initialize^0,c
  1603   001026  EF17  F008         	goto	u631
  1604   00102A  EF19  F008         	goto	u630
  1605   00102E                     u631:
  1606   00102E  EF7E  F008         	goto	l1234
  1607   001032                     u630:
  1608   001032  5029               	movf	gpio_pin_direction_initialize@_pin_config^0,w,c
  1609   001034  6ED9               	movwf	fsr2l,c
  1610   001036  6ADA               	clrf	fsr2h,c
  1611   001038  30DF               	rrcf	223,w,c
  1612   00103A  32E8               	rrcf	wreg,f,c
  1613   00103C  32E8               	rrcf	wreg,f,c
  1614   00103E  0B07               	andlw	7
  1615   001040  6E2A               	movwf	??_gpio_pin_direction_initialize^0,c
  1616   001042  0E08               	movlw	8
  1617   001044  602A               	cpfslt	??_gpio_pin_direction_initialize^0,c
  1618   001046  EF27  F008         	goto	u641
  1619   00104A  EF29  F008         	goto	u640
  1620   00104E                     u641:
  1621   00104E  EF7E  F008         	goto	l1234
  1622   001052                     u640:
  1623   001052  EF82  F008         	goto	l1236
  1624   001056                     l1230:
  1625                           
  1626                           ;MCAL_Layer/GPIO/hal_gpio.c: 42:                 (*tris_registers[_pin_config->port] &=~
      +                           ((uint8)0x01 << _pin_config->pin));
  1627   001056  5029               	movf	gpio_pin_direction_initialize@_pin_config^0,w,c
  1628   001058  6ED9               	movwf	fsr2l,c
  1629   00105A  6ADA               	clrf	fsr2h,c
  1630   00105C  30DF               	rrcf	223,w,c
  1631   00105E  32E8               	rrcf	wreg,f,c
  1632   001060  32E8               	rrcf	wreg,f,c
  1633   001062  0B07               	andlw	7
  1634   001064  6E2A               	movwf	??_gpio_pin_direction_initialize^0,c
  1635   001066  0E01               	movlw	1
  1636   001068  6E2B               	movwf	(??_gpio_pin_direction_initialize+1)^0,c
  1637   00106A  2A2A               	incf	??_gpio_pin_direction_initialize^0,f,c
  1638   00106C  EF3A  F008         	goto	u654
  1639   001070                     u655:
  1640   001070  90D8               	bcf	status,0,c
  1641   001072  362B               	rlcf	(??_gpio_pin_direction_initialize+1)^0,f,c
  1642   001074                     u654:
  1643   001074  2E2A               	decfsz	??_gpio_pin_direction_initialize^0,f,c
  1644   001076  EF38  F008         	goto	u655
  1645   00107A  502B               	movf	(??_gpio_pin_direction_initialize+1)^0,w,c
  1646   00107C  0AFF               	xorlw	255
  1647   00107E  6E2C               	movwf	(??_gpio_pin_direction_initialize+2)^0,c
  1648   001080  5029               	movf	gpio_pin_direction_initialize@_pin_config^0,w,c
  1649   001082  6ED9               	movwf	fsr2l,c
  1650   001084  6ADA               	clrf	fsr2h,c
  1651   001086  50DF               	movf	223,w,c
  1652   001088  0B07               	andlw	7
  1653   00108A  0D02               	mullw	2
  1654   00108C  50F3               	movf	243,w,c
  1655   00108E  0F15               	addlw	low _tris_registers
  1656   001090  6ED9               	movwf	fsr2l,c
  1657   001092  6ADA               	clrf	fsr2h,c
  1658   001094  CFDE F02D          	movff	postinc2,??_gpio_pin_direction_initialize+3
  1659   001098  CFDD F02E          	movff	postdec2,??_gpio_pin_direction_initialize+4
  1660   00109C  C02D  FFD9         	movff	??_gpio_pin_direction_initialize+3,fsr2l
  1661   0010A0  C02E  FFDA         	movff	??_gpio_pin_direction_initialize+4,fsr2h
  1662   0010A4  502C               	movf	(??_gpio_pin_direction_initialize+2)^0,w,c
  1663   0010A6  16DF               	andwf	indf2,f,c
  1664                           
  1665                           ;MCAL_Layer/GPIO/hal_gpio.c: 43:                 break;
  1666   0010A8  EFA2  F008         	goto	l79
  1667   0010AC                     l1232:
  1668                           
  1669                           ;MCAL_Layer/GPIO/hal_gpio.c: 45:                 (*tris_registers[_pin_config->port] |= 
      +                          ((uint8)0x01 << _pin_config->pin));
  1670   0010AC  5029               	movf	gpio_pin_direction_initialize@_pin_config^0,w,c
  1671   0010AE  6ED9               	movwf	fsr2l,c
  1672   0010B0  6ADA               	clrf	fsr2h,c
  1673   0010B2  30DF               	rrcf	223,w,c
  1674   0010B4  32E8               	rrcf	wreg,f,c
  1675   0010B6  32E8               	rrcf	wreg,f,c
  1676   0010B8  0B07               	andlw	7
  1677   0010BA  6E2A               	movwf	??_gpio_pin_direction_initialize^0,c
  1678   0010BC  0E01               	movlw	1
  1679   0010BE  6E2B               	movwf	(??_gpio_pin_direction_initialize+1)^0,c
  1680   0010C0  2A2A               	incf	??_gpio_pin_direction_initialize^0,f,c
  1681   0010C2  EF65  F008         	goto	u664
  1682   0010C6                     u665:
  1683   0010C6  90D8               	bcf	status,0,c
  1684   0010C8  362B               	rlcf	(??_gpio_pin_direction_initialize+1)^0,f,c
  1685   0010CA                     u664:
  1686   0010CA  2E2A               	decfsz	??_gpio_pin_direction_initialize^0,f,c
  1687   0010CC  EF63  F008         	goto	u665
  1688   0010D0  5029               	movf	gpio_pin_direction_initialize@_pin_config^0,w,c
  1689   0010D2  6ED9               	movwf	fsr2l,c
  1690   0010D4  6ADA               	clrf	fsr2h,c
  1691   0010D6  50DF               	movf	223,w,c
  1692   0010D8  0B07               	andlw	7
  1693   0010DA  0D02               	mullw	2
  1694   0010DC  50F3               	movf	243,w,c
  1695   0010DE  0F15               	addlw	low _tris_registers
  1696   0010E0  6ED9               	movwf	fsr2l,c
  1697   0010E2  6ADA               	clrf	fsr2h,c
  1698   0010E4  CFDE F02C          	movff	postinc2,??_gpio_pin_direction_initialize+2
  1699   0010E8  CFDD F02D          	movff	postdec2,??_gpio_pin_direction_initialize+3
  1700   0010EC  C02C  FFD9         	movff	??_gpio_pin_direction_initialize+2,fsr2l
  1701   0010F0  C02D  FFDA         	movff	??_gpio_pin_direction_initialize+3,fsr2h
  1702   0010F4  502B               	movf	(??_gpio_pin_direction_initialize+1)^0,w,c
  1703   0010F6  12DF               	iorwf	indf2,f,c
  1704                           
  1705                           ;MCAL_Layer/GPIO/hal_gpio.c: 46:                 break;
  1706   0010F8  EFA2  F008         	goto	l79
  1707   0010FC                     l1234:
  1708   0010FC  0E00               	movlw	0
  1709   0010FE  6E2F               	movwf	gpio_pin_direction_initialize@ret^0,c
  1710                           
  1711                           ;MCAL_Layer/GPIO/hal_gpio.c: 48:         }
  1712   001100  EFA2  F008         	goto	l79
  1713   001104                     l1236:
  1714   001104  5029               	movf	gpio_pin_direction_initialize@_pin_config^0,w,c
  1715   001106  6ED9               	movwf	fsr2l,c
  1716   001108  6ADA               	clrf	fsr2h,c
  1717   00110A  BCDF               	btfsc	indf2,6,c
  1718   00110C  EF8A  F008         	goto	u671
  1719   001110  EF8D  F008         	goto	u670
  1720   001114                     u671:
  1721   001114  0E01               	movlw	1
  1722   001116  EF8E  F008         	goto	u680
  1723   00111A                     u670:
  1724   00111A  0E00               	movlw	0
  1725   00111C                     u680:
  1726   00111C  6E2A               	movwf	??_gpio_pin_direction_initialize^0,c
  1727   00111E  6A2B               	clrf	(??_gpio_pin_direction_initialize+1)^0,c
  1728                           
  1729                           ; Switch on 2 bytes has been partitioned into a top level switch of size 1, and 1 sub-sw
      +                          itches
  1730                           ; Switch size 1, requested type "simple"
  1731                           ; Number of cases is 1, Range of values is 0 to 0
  1732                           ; switch strategies available:
  1733                           ; Name         Instructions Cycles
  1734                           ; simple_byte            4     3 (average)
  1735                           ;	Chosen strategy is simple_byte
  1736   001120  502B               	movf	(??_gpio_pin_direction_initialize+1)^0,w,c
  1737   001122  0A00               	xorlw	0	; case 0
  1738   001124  B4D8               	btfsc	status,2,c
  1739   001126  EF97  F008         	goto	l1412
  1740   00112A  EF7E  F008         	goto	l1234
  1741   00112E                     l1412:
  1742                           
  1743                           ; Switch size 1, requested type "simple"
  1744                           ; Number of cases is 2, Range of values is 0 to 1
  1745                           ; switch strategies available:
  1746                           ; Name         Instructions Cycles
  1747                           ; simple_byte            7     4 (average)
  1748                           ;	Chosen strategy is simple_byte
  1749   00112E  502A               	movf	??_gpio_pin_direction_initialize^0,w,c
  1750   001130  0A00               	xorlw	0	; case 0
  1751   001132  B4D8               	btfsc	status,2,c
  1752   001134  EF2B  F008         	goto	l1230
  1753   001138  0A01               	xorlw	1	; case 1
  1754   00113A  B4D8               	btfsc	status,2,c
  1755   00113C  EF56  F008         	goto	l1232
  1756   001140  EF7E  F008         	goto	l1234
  1757   001144                     l79:
  1758                           
  1759                           ;MCAL_Layer/GPIO/hal_gpio.c: 52:     return ret;
  1760   001144  502F               	movf	gpio_pin_direction_initialize@ret^0,w,c
  1761   001146  0012               	return		;funcret
  1762   001148                     __end_of_gpio_pin_direction_initialize:
  1763                           	callstack 0
  1764                           
  1765                           	psect	smallconst
  1766   001000                     __psmallconst:
  1767                           	callstack 0
  1768   001000  00                 	db	0
  1769   001001  00                 	db	0	; dummy byte at the end
  1770   000000                     
  1771                           	psect	rparam
  1772   000000                     
  1773                           	psect	config
  1774                           
  1775                           ; Padding undefined space
  1776   300000                     	org	3145728
  1777   300000  FF                 	db	255
  1778                           
  1779                           ;Config register CONFIG1H @ 0x300001
  1780                           ;	Oscillator Selection bits
  1781                           ;	OSC = HS, HS oscillator
  1782                           ;	Fail-Safe Clock Monitor Enable bit
  1783                           ;	FCMEN = OFF, Fail-Safe Clock Monitor disabled
  1784                           ;	Internal/External Oscillator Switchover bit
  1785                           ;	IESO = OFF, Oscillator Switchover mode disabled
  1786   300001                     	org	3145729
  1787   300001  02                 	db	2
  1788                           
  1789                           ;Config register CONFIG2L @ 0x300002
  1790                           ;	Power-up Timer Enable bit
  1791                           ;	PWRT = OFF, PWRT disabled
  1792                           ;	Brown-out Reset Enable bits
  1793                           ;	BOREN = OFF, Brown-out Reset disabled in hardware and software
  1794                           ;	Brown Out Reset Voltage bits
  1795                           ;	BORV = 1, 
  1796   300002                     	org	3145730
  1797   300002  09                 	db	9
  1798                           
  1799                           ;Config register CONFIG2H @ 0x300003
  1800                           ;	Watchdog Timer Enable bit
  1801                           ;	WDT = OFF, WDT disabled (control is placed on the SWDTEN bit)
  1802                           ;	Watchdog Timer Postscale Select bits
  1803                           ;	WDTPS = 32768, 1:32768
  1804   300003                     	org	3145731
  1805   300003  1E                 	db	30
  1806                           
  1807                           ; Padding undefined space
  1808   300004                     	org	3145732
  1809   300004  FF                 	db	255
  1810                           
  1811                           ;Config register CONFIG3H @ 0x300005
  1812                           ;	CCP2 MUX bit
  1813                           ;	CCP2MX = PORTC, CCP2 input/output is multiplexed with RC1
  1814                           ;	PORTB A/D Enable bit
  1815                           ;	PBADEN = OFF, PORTB<4:0> pins are configured as digital I/O on Reset
  1816                           ;	Low-Power Timer1 Oscillator Enable bit
  1817                           ;	LPT1OSC = OFF, Timer1 configured for higher power operation
  1818                           ;	MCLR Pin Enable bit
  1819                           ;	MCLRE = ON, MCLR pin enabled; RE3 input pin disabled
  1820   300005                     	org	3145733
  1821   300005  81                 	db	129
  1822                           
  1823                           ;Config register CONFIG4L @ 0x300006
  1824                           ;	Stack Full/Underflow Reset Enable bit
  1825                           ;	STVREN = ON, Stack full/underflow will cause Reset
  1826                           ;	Single-Supply ICSP Enable bit
  1827                           ;	LVP = OFF, Single-Supply ICSP disabled
  1828                           ;	Extended Instruction Set Enable bit
  1829                           ;	XINST = OFF, Instruction set extension and Indexed Addressing mode disabled (Legacy mo
      +                          de)
  1830                           ;	Background Debugger Enable bit
  1831                           ;	DEBUG = 0x1, unprogrammed default
  1832   300006                     	org	3145734
  1833   300006  81                 	db	129
  1834                           
  1835                           ; Padding undefined space
  1836   300007                     	org	3145735
  1837   300007  FF                 	db	255
  1838                           
  1839                           ;Config register CONFIG5L @ 0x300008
  1840                           ;	Code Protection bit
  1841                           ;	CP0 = OFF, Block 0 (000800-003FFFh) not code-protected
  1842                           ;	Code Protection bit
  1843                           ;	CP1 = OFF, Block 1 (004000-007FFFh) not code-protected
  1844                           ;	Code Protection bit
  1845                           ;	CP2 = OFF, Block 2 (008000-00BFFFh) not code-protected
  1846                           ;	Code Protection bit
  1847                           ;	CP3 = OFF, Block 3 (00C000-00FFFFh) not code-protected
  1848   300008                     	org	3145736
  1849   300008  0F                 	db	15
  1850                           
  1851                           ;Config register CONFIG5H @ 0x300009
  1852                           ;	Boot Block Code Protection bit
  1853                           ;	CPB = OFF, Boot block (000000-0007FFh) not code-protected
  1854                           ;	Data EEPROM Code Protection bit
  1855                           ;	CPD = OFF, Data EEPROM not code-protected
  1856   300009                     	org	3145737
  1857   300009  C0                 	db	192
  1858                           
  1859                           ;Config register CONFIG6L @ 0x30000A
  1860                           ;	Write Protection bit
  1861                           ;	WRT0 = OFF, Block 0 (000800-003FFFh) not write-protected
  1862                           ;	Write Protection bit
  1863                           ;	WRT1 = OFF, Block 1 (004000-007FFFh) not write-protected
  1864                           ;	Write Protection bit
  1865                           ;	WRT2 = OFF, Block 2 (008000-00BFFFh) not write-protected
  1866                           ;	Write Protection bit
  1867                           ;	WRT3 = OFF, Block 3 (00C000-00FFFFh) not write-protected
  1868   30000A                     	org	3145738
  1869   30000A  0F                 	db	15
  1870                           
  1871                           ;Config register CONFIG6H @ 0x30000B
  1872                           ;	Configuration Register Write Protection bit
  1873                           ;	WRTC = OFF, Configuration registers (300000-3000FFh) not write-protected
  1874                           ;	Boot Block Write Protection bit
  1875                           ;	WRTB = OFF, Boot Block (000000-0007FFh) not write-protected
  1876                           ;	Data EEPROM Write Protection bit
  1877                           ;	WRTD = OFF, Data EEPROM not write-protected
  1878   30000B                     	org	3145739
  1879   30000B  E0                 	db	224
  1880                           
  1881                           ;Config register CONFIG7L @ 0x30000C
  1882                           ;	Table Read Protection bit
  1883                           ;	EBTR0 = OFF, Block 0 (000800-003FFFh) not protected from table reads executed in other
      +                           blocks
  1884                           ;	Table Read Protection bit
  1885                           ;	EBTR1 = OFF, Block 1 (004000-007FFFh) not protected from table reads executed in other
      +                           blocks
  1886                           ;	Table Read Protection bit
  1887                           ;	EBTR2 = OFF, Block 2 (008000-00BFFFh) not protected from table reads executed in other
      +                           blocks
  1888                           ;	Table Read Protection bit
  1889                           ;	EBTR3 = OFF, Block 3 (00C000-00FFFFh) not protected from table reads executed in other
      +                           blocks
  1890   30000C                     	org	3145740
  1891   30000C  0F                 	db	15
  1892                           
  1893                           ;Config register CONFIG7H @ 0x30000D
  1894                           ;	Boot Block Table Read Protection bit
  1895                           ;	EBTRB = OFF, Boot Block (000000-0007FFh) not protected from table reads executed in ot
      +                          her blocks
  1896   30000D                     	org	3145741
  1897   30000D  40                 	db	64
  1898                           tosu	equ	0xFFF
  1899                           tosh	equ	0xFFE
  1900                           tosl	equ	0xFFD
  1901                           stkptr	equ	0xFFC
  1902                           pclatu	equ	0xFFB
  1903                           pclath	equ	0xFFA
  1904                           pcl	equ	0xFF9
  1905                           tblptru	equ	0xFF8
  1906                           tblptrh	equ	0xFF7
  1907                           tblptrl	equ	0xFF6
  1908                           tablat	equ	0xFF5
  1909                           prodh	equ	0xFF4
  1910                           prodl	equ	0xFF3
  1911                           indf0	equ	0xFEF
  1912                           postinc0	equ	0xFEE
  1913                           postdec0	equ	0xFED
  1914                           preinc0	equ	0xFEC
  1915                           plusw0	equ	0xFEB
  1916                           fsr0h	equ	0xFEA
  1917                           fsr0l	equ	0xFE9
  1918                           wreg	equ	0xFE8
  1919                           indf1	equ	0xFE7
  1920                           postinc1	equ	0xFE6
  1921                           postdec1	equ	0xFE5
  1922                           preinc1	equ	0xFE4
  1923                           plusw1	equ	0xFE3
  1924                           fsr1h	equ	0xFE2
  1925                           fsr1l	equ	0xFE1
  1926                           bsr	equ	0xFE0
  1927                           indf2	equ	0xFDF
  1928                           postinc2	equ	0xFDE
  1929                           postdec2	equ	0xFDD
  1930                           preinc2	equ	0xFDC
  1931                           plusw2	equ	0xFDB
  1932                           fsr2h	equ	0xFDA
  1933                           fsr2l	equ	0xFD9
  1934                           status	equ	0xFD8

Data Sizes:
    Strings     0
    Constant    0
    Data        40
    BSS         5
    Persistent  1
    Stack       0

Auto Spaces:
    Space          Size  Autos    Used
    COMRAM          127     15      61
    BANK0           128      0       0
    BANK1           256      0       0
    BANK2           256      0       0
    BANK3           256      0       0
    BANK4           256      0       0
    BANK5           256      0       0
    BANK6           256      0       0
    BANK7           256      0       0
    BANK8           256      0       0
    BANK9           256      0       0
    BANK10          256      0       0
    BANK11          256      0       0
    BANK12          256      0       0
    BANK13          256      0       0
    BANK14          256      0       0
    BANK15          128      0       0

Pointer List with Targets:

    button_initialize@button	PTR const struct . size(1) Largest target is 3
		 -> btn_high(COMRAM[3]), btn_low(COMRAM[3]), 

    button_read_status@button	PTR const struct . size(1) Largest target is 3
		 -> btn_high(COMRAM[3]), btn_low(COMRAM[3]), 

    button_read_status@button_status	PTR enum E2871 size(1) Largest target is 1
		 -> btn_high_status(COMRAM[1]), btn_low_status(COMRAM[1]), 

    gpio_pin_direction_initialize@_pin_config	PTR const struct . size(1) Largest target is 3
		 -> btn_high(COMRAM[3]), btn_low(COMRAM[3]), led_initialize@pin(COMRAM[1]), 

    gpio_pin_initialize@_pin_config	PTR const struct . size(1) Largest target is 1
		 -> led_initialize@pin(COMRAM[1]), 

    gpio_pin_read_logic@_pin_config	PTR const struct . size(1) Largest target is 3
		 -> btn_high(COMRAM[3]), btn_low(COMRAM[3]), 

    gpio_pin_read_logic@logic	PTR enum E2832 size(1) Largest target is 1
		 -> button_read_status@pin_logic_status(COMRAM[1]), 

    gpio_pin_write_logic@_pin_config	PTR const struct . size(1) Largest target is 1
		 -> led_initialize@pin(COMRAM[1]), led_turn_off@pin(COMRAM[1]), led_turn_on@pin(COMRAM[1]), 

    lat_registers	PTR volatile unsigned char [5] size(2) Largest target is 1
		 -> LATA(BITBIGSFRll[1]), LATB(BITBIGSFRlh[1]), LATC(BITBIGSFRlh[1]), LATD(BITBIGSFRlh[1]), 
		 -> LATE(BITBIGSFRlh[1]), 

    led_initialize@led	PTR const struct . size(1) Largest target is 1
		 -> led1(COMRAM[1]), led2(COMRAM[1]), 

    led_turn_off@led	PTR const struct . size(1) Largest target is 1
		 -> led1(COMRAM[1]), led2(COMRAM[1]), 

    led_turn_on@led	PTR const struct . size(1) Largest target is 1
		 -> led1(COMRAM[1]), led2(COMRAM[1]), 

    port_registers	PTR volatile unsigned char [5] size(2) Largest target is 1
		 -> PORTA(BITBIGSFRll[1]), PORTB(BITBIGSFRll[1]), PORTC(BITBIGSFRll[1]), PORTD(BITBIGSFRll[1]), 
		 -> PORTE(BITBIGSFRll[1]), 

    tris_registers	PTR volatile unsigned char [5] size(2) Largest target is 1
		 -> TRISA(BITBIGSFRll[1]), TRISB(BITBIGSFRh[1]), TRISC(BITBIGSFRh[1]), TRISD(BITBIGSFRh[1]), 
		 -> TRISE(BITBIGSFRh[1]), 


Critical Paths under _main in COMRAM

    _led_turn_on->_gpio_pin_write_logic
    _led_turn_off->_gpio_pin_write_logic
    _button_read_status->_gpio_pin_read_logic
    _application_initialize->_led_initialize
    _led_initialize->_gpio_pin_initialize
    _gpio_pin_initialize->_gpio_pin_write_logic
    _button_initialize->_gpio_pin_direction_initialize

Critical Paths under _main in BANK0

    None.

Critical Paths under _main in BANK1

    None.

Critical Paths under _main in BANK2

    None.

Critical Paths under _main in BANK3

    None.

Critical Paths under _main in BANK4

    None.

Critical Paths under _main in BANK5

    None.

Critical Paths under _main in BANK6

    None.

Critical Paths under _main in BANK7

    None.

Critical Paths under _main in BANK8

    None.

Critical Paths under _main in BANK9

    None.

Critical Paths under _main in BANK10

    None.

Critical Paths under _main in BANK11

    None.

Critical Paths under _main in BANK12

    None.

Critical Paths under _main in BANK13

    None.

Critical Paths under _main in BANK14

    None.

Critical Paths under _main in BANK15

    None.

Call Graph Tables:

 ---------------------------------------------------------------------------------
 (Depth) Function   	        Calls       Base Space   Used Autos Params    Refs
 ---------------------------------------------------------------------------------
 (0) _main                                                 0     0      0    5017
             _application_initialize
                 _button_read_status
                       _led_turn_off
                        _led_turn_on
 ---------------------------------------------------------------------------------
 (1) _led_turn_on                                          4     3      1     979
                                              8 COMRAM     4     3      1
               _gpio_pin_write_logic
 ---------------------------------------------------------------------------------
 (1) _led_turn_off                                         4     3      1     979
                                              8 COMRAM     4     3      1
               _gpio_pin_write_logic
 ---------------------------------------------------------------------------------
 (1) _button_read_status                                   6     4      2     904
                                              7 COMRAM     6     4      2
                _gpio_pin_read_logic
 ---------------------------------------------------------------------------------
 (2) _gpio_pin_read_logic                                  7     5      2     330
                                              0 COMRAM     7     5      2
 ---------------------------------------------------------------------------------
 (1) _application_initialize                               1     1      0    2155
                  _button_initialize
                     _led_initialize
 ---------------------------------------------------------------------------------
 (2) _led_initialize                                       4     3      1    1576
                                             11 COMRAM     4     3      1
                _gpio_pin_initialize
 ---------------------------------------------------------------------------------
 (3) _gpio_pin_initialize                                  3     2      1    1267
                                              8 COMRAM     3     2      1
      _gpio_pin_direction_initialize
               _gpio_pin_write_logic
 ---------------------------------------------------------------------------------
 (2) _gpio_pin_write_logic                                 8     6      2     680
                                              0 COMRAM     8     6      2
 ---------------------------------------------------------------------------------
 (2) _button_initialize                                    2     1      1     574
                                              7 COMRAM     2     1      1
      _gpio_pin_direction_initialize
 ---------------------------------------------------------------------------------
 (4) _gpio_pin_direction_initialize                        7     6      1     353
                                              0 COMRAM     7     6      1
 ---------------------------------------------------------------------------------
 Estimated maximum stack depth 4
 ---------------------------------------------------------------------------------

 Call Graph Graphs:

 _main (ROOT)
   _application_initialize
     _button_initialize
       _gpio_pin_direction_initialize
     _led_initialize
       _gpio_pin_initialize
         _gpio_pin_direction_initialize
         _gpio_pin_write_logic
   _button_read_status
     _gpio_pin_read_logic
   _led_turn_off
     _gpio_pin_write_logic
   _led_turn_on
     _gpio_pin_write_logic

 Address spaces:
Name               Size   Autos  Total    Cost      Usage
BIGRAM             F7F      0       0      40        0.0%
EEDATA             400      0       0       0        0.0%
BITBANK14          100      0       0      32        0.0%
BANK14             100      0       0      33        0.0%
BITBANK13          100      0       0      30        0.0%
BANK13             100      0       0      31        0.0%
BITBANK12          100      0       0      28        0.0%
BANK12             100      0       0      29        0.0%
BITBANK11          100      0       0      26        0.0%
BANK11             100      0       0      27        0.0%
BITBANK10          100      0       0      24        0.0%
BANK10             100      0       0      25        0.0%
BITBANK9           100      0       0      22        0.0%
BANK9              100      0       0      23        0.0%
BITBANK8           100      0       0      20        0.0%
BANK8              100      0       0      21        0.0%
BITBANK7           100      0       0      18        0.0%
BANK7              100      0       0      19        0.0%
BITBANK6           100      0       0      16        0.0%
BANK6              100      0       0      17        0.0%
BITBANK5           100      0       0      14        0.0%
BANK5              100      0       0      15        0.0%
BITBANK4           100      0       0      12        0.0%
BANK4              100      0       0      13        0.0%
BITBANK3           100      0       0      10        0.0%
BANK3              100      0       0      11        0.0%
BITBANK2           100      0       0       8        0.0%
BANK2              100      0       0       9        0.0%
BITBANK1           100      0       0       6        0.0%
BANK1              100      0       0       7        0.0%
BITBANK15           80      0       0      34        0.0%
BANK15              80      0       0      35        0.0%
BITBANK0            80      0       0       4        0.0%
BANK0               80      0       0       5        0.0%
BITCOMRAM           7F      0       0       0        0.0%
COMRAM              7F      F      3D       1       48.0%
BITBIGSFRh          69      0       0      36        0.0%
BITBIGSFRlh          4      0       0      37        0.0%
BITBIGSFRll          4      0       0      38        0.0%
BIGSFR               0      0       0     200        0.0%
BITSFR               0      0       0     200        0.0%
SFR                  0      0       0     200        0.0%
STACK                0      0       0       2        0.0%
NULL                 0      0       0       0        0.0%
ABS                  0      0      3D      39        0.0%
DATA                 0      0      3D       3        0.0%
CODE                 0      0       0       0        0.0%


Microchip Technology PIC18 Macro Assembler V2.45 build 20230818022343 
Symbol Table                                                                                   Mon Jan 15 08:15:59 2024

                                      l12 1680                                        l20 159A  
                                      l13 1682                                        l26 160E  
                                      l27 1610                                        l19 1598  
                                      l80 1146                                        l79 1144  
                                      l96 1288                                        l97 128A  
                                     l101 1348                                       l102 134A  
                                     l111 1522                                       l112 1524  
                                     l203 14A8                                       l204 14AA  
                                     l181 1726                                       l190 1704  
                                     l189 1702                                       u620 1016  
                                     u604 11CE                                       u700 14D8  
                                     u621 1012                                       u605 11CA  
                                     u701 14D4                                       u630 1032  
                                     u614 1224                                       u710 14F8  
                                     u631 102E                                       u615 1220  
                                     u711 14F4                                       u640 1052  
                                     u560 115C                                       u720 1622  
                                     u800 1536                                       u641 104E  
                                     u561 1158                                       u721 161E  
                                     u801 1532                                       u570 1178  
                                     u571 1174                                       u580 1198  
                                     u740 12A0                                       u820 15AC  
                                     u900 13AE                                       u581 1194  
                                     u741 129C                                       u821 15A8  
                                     u901 13AA                                       u670 111A  
                                     u654 1074                                       u590 11AC  
                                     u750 12B0                                       u910 13BE  
                                     u671 1114                                       u655 1070  
                                     u591 11A8                                       u735 166C  
                                     u751 12AC                                       u815 1580  
                                     u911 13BA                                       u680 111C  
                                     u664 10CA                                       u760 12CC  
                                     u840 1410                                       u920 13DC  
                                     u665 10C6                                       u737 166E  
                                     u761 12C8                                       u841 140C  
                                     u817 1582                                       u921 13D8  
                                     u690 14BC                                       u770 12EC  
                                     u850 1420                                       u691 14B8  
                                     u771 12E8                                       u851 141C  
                                     u835 15F6                                       u860 1442  
                                     u861 143E                                       u837 15F8  
                                     u790 16F0                                       u870 146C  
                                     u791 16EC                                       u871 1468  
                                     u784 1334                                       u880 137C  
                                     u785 1330                                       u881 1378  
                                     u890 138C                                       u891 1388  
                                     _ret 003D                       led_initialize@F2892 003C  
                                     wreg 0FE8                              ?_led_turn_on 0031  
                                    l1200 1198                                      l1210 125E  
                                    l1204 11B0                                      l1300 153A  
                                    l1230 1056                                      l1222 1002  
                                    l1206 1206                                      l1302 1570  
                                    l1232 10AC                                      l1224 1016  
                                    l1208 1256                                      l1320 15E8  
                                    l1312 159C                                      l1304 1572  
                                    l1226 1032                                      l1234 10FC  
                                    l1410 1272                                      l1250 14D8  
                                    l1330 1706                                      l1322 15F8  
                                    l1314 15AC                                      l1306 1582  
                                    l1412 112E                                      l1236 1104  
                                    l1252 14F8                                      l1260 1622  
                                    l1332 170E                                      l1340 1410  
                                    l1316 15B0                                      l1324 160A  
                                    l1308 1594                                      l1254 151E  
                                    l1246 14AC                                      l1262 1626  
                                    l1270 167C                                      l1334 1716  
                                    l1350 145C                                      l1342 1420  
                                    l1318 15E6                                      l1248 14BC  
                                    l1264 165C                                      l1336 171E  
                                    l1328 1706                                      l1280 12CC  
                                    l1408 148E                                      l1344 1432  
                                    l1360 14A4                                      l1290 16F0  
                                    l1194 1148                                      l1266 165E  
                                    l1258 1612                                      l1282 12EC  
                                    l1274 128C                                      l1346 1442  
                                    l1338 13FC                                      l1370 1350  
                                    l1292 16FE                                      l1196 115C  
                                    l1268 166E                                      l1276 12A0  
                                    l1284 1344                                      l1348 144E  
                                    l1380 1396                                      l1372 135E  
                                    l1198 1178                                      l1278 12B0  
                                    l1358 1470                                      l1390 13CC  
                                    l1382 139E                                      l1374 136C  
                                    l1288 16E0                                      l1296 1526  
                                    l1392 13DC                                      l1384 13AE  
                                    l1376 137C                                      l1368 134C  
                                    l1298 1536                                      l1394 13EA  
                                    l1386 13BE                                      l1378 138C  
                                    l1388 13C8                            _btn_low_status 0025  
                                    _LATA 0F89                                      _LATB 0F8A  
                                    _LATC 0F8B                                      _LATD 0F8C  
                                    _LATE 0F8D                                      _led1 0028  
                                    _led2 0027            gpio_pin_read_logic@_pin_config 0029  
                                    _main 134C                __end_of_button_read_status 14AC  
                                    fsr1h 0FE2                                      fsr2h 0FDA  
                                    indf1 0FE7                                      indf2 0FDF  
                                    fsr1l 0FE1                                      fsr2l 0FD9  
                  __end_of_led_initialize 1684                                      prodl 0FF3  
                                    start 0000                             ?_led_turn_off 0031  
                            ___param_bank 0000                      _gpio_pin_write_logic 1148  
                                   ?_main 0029                  ??_application_initialize 0038  
                                   _PORTA 0F80                                     _PORTB 0F81  
                                   _PORTC 0F82                                     _PORTD 0F83  
                                   _PORTE 0F84                                     _TRISA 0F92  
                                   _TRISB 0F93                                     _TRISC 0F94  
                                   _TRISD 0F95                                     _TRISE 0F96  
                                   tablat 0FF5                                     status 0FD8  
                         ?_led_initialize 0034                            ??_led_turn_off 0032  
          ?_gpio_pin_direction_initialize 0029                           __initialization 1684  
                            __end_of_main 13FC                     ?_gpio_pin_write_logic 0029  
                gpio_pin_read_logic@logic 002A                             _lat_registers 000B  
                                  ??_main 0038                             __activetblptr 0002  
                        led_turn_on@F2897 003B                         _button_initialize 16E0  
                      ?_button_initialize 0030                       ??_button_initialize 0031  
                 button_initialize@button 0030                                    isa$std 0001  
                            __pdataCOMRAM 0001                 __end_of_button_initialize 1706  
                            __mediumconst 0000                                    tblptrh 0FF7  
                                  tblptrl 0FF6                                    tblptru 0FF8  
                              __accesstop 0080                   __end_of__initialization 16AE  
                           ___rparam_used 0001                         led_initialize@led 0034  
                       led_initialize@pin 0037                         led_initialize@ret 0036  
                  ??_gpio_pin_write_logic 002B                            __pcstackCOMRAM 0029  
                    button_initialize@ret 0031  gpio_pin_direction_initialize@_pin_config 0029  
                    __end_of_led_turn_off 1612                    _application_initialize 1706  
                              __pnvCOMRAM 003D                         led_turn_off@F2902 003A  
                      _button_read_status 13FC                       ?_button_read_status 0030  
                    led_turn_toggle@F2907 0039                          ??_led_initialize 0035  
                          _tris_registers 0015                      ??_button_read_status 0032  
                                 __Hparam 0000                                   __Lparam 0000  
                     _gpio_pin_initialize 14AC                       _gpio_pin_read_logic 128C  
         button_read_status@button_status 0031                              __psmallconst 1000  
                                 __pcinit 1684                                   __ramtop 1000  
                                 __ptext0 134C                                   __ptext1 1526  
                                 __ptext2 159C                                   __ptext3 13FC  
                                 __ptext4 128C                                   __ptext5 1706  
                                 __ptext6 1612                                   __ptext7 14AC  
                                 __ptext8 1148                                   __ptext9 16E0  
                                 _btn_low 001F           ??_gpio_pin_direction_initialize 002A  
                    ?_gpio_pin_initialize 0031                      ?_gpio_pin_read_logic 0029  
                    end_of_initialization 16AE                             __Lmediumconst 0000  
                                 postdec1 0FE5                                   postdec2 0FDD  
                                 postinc0 0FEE                                   postinc1 0FE6  
                                 postinc2 0FDE                     ??_gpio_pin_initialize 0032  
                   ??_gpio_pin_read_logic 002B                              _led_turn_off 159C  
                           __pidataCOMRAM 16B8                  button_read_status@button 0030  
                     start_initialization 1684                             ??_led_turn_on 0032  
   __end_of_gpio_pin_direction_initialize 1148             _gpio_pin_direction_initialize 1002  
                 ?_application_initialize 0029                           led_turn_off@led 0031  
                         led_turn_off@pin 0034                           led_turn_off@ret 0033  
                             __pbssCOMRAM 0038            __end_of_application_initialize 1728  
                     __end_of_led_turn_on 159C           gpio_pin_write_logic@_pin_config 0029  
               gpio_pin_write_logic@logic 002A                               __smallconst 1000  
                   button_read_status@ret 0034          gpio_pin_direction_initialize@ret 002F  
                  gpio_pin_initialize@ret 0033                               _led_turn_on 1526  
                 gpio_pin_write_logic@ret 0030                                 copy_data0 1698  
                  gpio_pin_read_logic@ret 002F                            led_turn_on@led 0031  
                          led_turn_on@pin 0034                            led_turn_on@ret 0033  
                                __Hrparam 0000                                  __Lrparam 0000  
             __end_of_gpio_pin_initialize 1526        button_read_status@pin_logic_status 0035  
             __end_of_gpio_pin_read_logic 134C            gpio_pin_initialize@_pin_config 0031  
                                __ptext10 1002                                  _btn_high 0022  
                                isa$xinst 0000                           _btn_high_status 0026  
            __end_of_gpio_pin_write_logic 128C                            _port_registers 0001  
                           _btn_high_flag 0038                            _led_initialize 1612  
