

Microchip MPLAB XC8 Assembler V2.46 build 20240104201356 
                                                                                               Tue Oct 01 23:07:53 2024

Microchip MPLAB XC8 C Compiler v2.46 (Free license) build 20240104201356 Og1 
     1                           	processor	18F4620
     2                           	fnconf	rparam,??,?,0
     3                           	pagewidth 120
     4                           	opt	flic
     5                           	psect	idataCOMRAM,global,class=CODE,delta=1,noexec
     6                           	psect	smallconst,global,reloc=2,class=SMALLCONST,delta=1,noexec
     7                           	psect	cinit,global,reloc=2,class=CODE,delta=1
     8                           	psect	bssCOMRAM,global,class=COMRAM,space=1,delta=1,lowdata,noexec
     9                           	psect	dataCOMRAM,global,class=COMRAM,space=1,delta=1,lowdata,noexec
    10                           	psect	bssBANK0,global,class=BANK0,space=1,delta=1,lowdata,noexec
    11                           	psect	cstackCOMRAM,global,class=COMRAM,space=1,delta=1,lowdata,noexec
    12                           	psect	text0,global,reloc=2,class=CODE,delta=1
    13                           	psect	text1,global,reloc=2,class=CODE,delta=1
    14                           	psect	text2,global,reloc=2,class=CODE,delta=1
    15                           	psect	text3,global,reloc=2,class=CODE,delta=1
    16                           	psect	text4,global,reloc=2,class=CODE,delta=1
    17                           	psect	text5,global,reloc=2,class=CODE,delta=1
    18                           	psect	text6,global,reloc=2,class=CODE,delta=1
    19                           	psect	intcodelo,global,reloc=2,class=CODE,delta=1
    20                           	psect	intcode,global,reloc=2,class=CODE,delta=1
    21                           	psect	intcode_body,global,reloc=2,class=CODE,delta=1
    22                           	psect	text9,global,reloc=2,class=CODE,delta=1
    23                           	psect	text10,global,reloc=2,class=CODE,delta=1
    24                           	psect	text11,global,reloc=2,class=CODE,delta=1
    25                           	psect	intsave_regs,global,class=BIGRAM,space=1,delta=1,noexec
    26                           	psect	rparam,global,class=COMRAM,space=1,delta=1,noexec
    27                           	psect	temp,global,ovrld,common,class=COMRAM,space=1,delta=1,lowdata
    28                           	psect	config,global,abs,ovrld,class=CONFIG,space=4,delta=1,noexec
    29   000000                     
    30                           ; Generated 17/10/2023 GMT
    31                           ; 
    32                           ; Copyright © 2023, Microchip Technology Inc. and its subsidiaries ("Microchip")
    33                           ; All rights reserved.
    34                           ; 
    35                           ; This software is developed by Microchip Technology Inc. and its subsidiaries ("Microch
      +                          ip").
    36                           ; 
    37                           ; Redistribution and use in source and binary forms, with or without modification, are
    38                           ; permitted provided that the following conditions are met:
    39                           ; 
    40                           ;     1. Redistributions of source code must retain the above copyright notice, this lis
      +                          t of
    41                           ;        conditions and the following disclaimer.
    42                           ; 
    43                           ;     2. Redistributions in binary form must reproduce the above copyright notice, this 
      +                          list
    44                           ;        of conditions and the following disclaimer in the documentation and/or other
    45                           ;        materials provided with the distribution. Publication is not required when
    46                           ;        this file is used in an embedded application.
    47                           ; 
    48                           ;     3. Microchip's name may not be used to endorse or promote products derived from th
      +                          is
    49                           ;        software without specific prior written permission.
    50                           ; 
    51                           ; THIS SOFTWARE IS PROVIDED BY MICROCHIP "AS IS" AND ANY EXPRESS OR IMPLIED WARRANTIES,
    52                           ; INCLUDING, BUT NOT LIMITED TO, THE IMPLIED WARRANTIES OF MERCHANTABILITY AND FITNESS F
      +                          OR
    53                           ; PURPOSE ARE DISCLAIMED.  IN NO EVENT SHALL MICROCHIP BE LIABLE FOR ANY DIRECT, INDIREC
      +                          T,
    54                           ; INCIDENTAL, SPECIAL, EXEMPLARY, OR CONSEQUENTIAL DAMAGES (INCLUDING BUT NOT LIMITED TO
    55                           ; PROCUREMENT OF SUBSTITUTE GOODS OR SERVICES; LOSS OF USE, DATA OR PROFITS; OR BUSINESS
    56                           ; INTERRUPTION) HOWSOEVER CAUSED AND ON ANY THEORY OF LIABILITY, WHETHER IN CONTRACT, ST
      +                          RICT
    57                           ; LIABILITY, OR TORT (INCLUDING NEGLIGENCE OR OTHERWISE) ARISING IN ANY WAY OUT OF THE U
      +                          SE OF
    58                           ; THIS SOFTWARE, EVEN IF ADVISED OF THE POSSIBILITY OF SUCH DAMAGE.
    59                           ; 
    60                           ; 
    61                           ; Code-generator required, PIC18F4620 Definitions
    62                           ; 
    63                           ; SFR Addresses
    64   000000                     
    65                           	psect	idataCOMRAM
    66   0013C2                     __pidataCOMRAM:
    67                           	callstack 0
    68                           
    69                           ;initializer for _port_registers
    70   0013C2  80                 	db	128
    71   0013C3  0F                 	db	15
    72   0013C4  81                 	db	129
    73   0013C5  0F                 	db	15
    74   0013C6  82                 	db	130
    75   0013C7  0F                 	db	15
    76   0013C8  83                 	db	131
    77   0013C9  0F                 	db	15
    78   0013CA  84                 	db	132
    79   0013CB  0F                 	db	15
    80                           
    81                           ;initializer for _lat_registers
    82   0013CC  89                 	db	137
    83   0013CD  0F                 	db	15
    84   0013CE  8A                 	db	138
    85   0013CF  0F                 	db	15
    86   0013D0  8B                 	db	139
    87   0013D1  0F                 	db	15
    88   0013D2  8C                 	db	140
    89   0013D3  0F                 	db	15
    90   0013D4  8D                 	db	141
    91   0013D5  0F                 	db	15
    92                           
    93                           ;initializer for _tris_registers
    94   0013D6  92                 	db	146
    95   0013D7  0F                 	db	15
    96   0013D8  93                 	db	147
    97   0013D9  0F                 	db	15
    98   0013DA  94                 	db	148
    99   0013DB  0F                 	db	15
   100   0013DC  95                 	db	149
   101   0013DD  0F                 	db	15
   102   0013DE  96                 	db	150
   103   0013DF  0F                 	db	15
   104                           
   105                           ;initializer for _lcd2
   106   0013E0  32                 	db	50
   107   0013E1  3A                 	db	58
   108   0013E2  03                 	db	3
   109   0013E3  0B                 	db	11
   110   0013E4  13                 	db	19
   111   0013E5  1B                 	db	27
   112   0013E6  23                 	db	35
   113   0013E7  2B                 	db	43
   114   0013E8  33                 	db	51
   115   0013E9  3B                 	db	59
   116                           
   117                           ;initializer for _keypad1
   118   0013EA  02                 	db	2
   119   0013EB  0A                 	db	10
   120   0013EC  12                 	db	18
   121   0013ED  1A                 	db	26
   122   0013EE  62                 	db	98
   123   0013EF  6A                 	db	106
   124   0013F0  72                 	db	114
   125   0013F1  7A                 	db	122
   126                           
   127                           ;initializer for _lcd1
   128   0013F2  02                 	db	2
   129   0013F3  0A                 	db	10
   130   0013F4  12                 	db	18
   131   0013F5  1A                 	db	26
   132   0013F6  22                 	db	34
   133   0013F7  2A                 	db	42
   134                           
   135                           ;initializer for _segment1
   136   0013F8  02                 	db	2
   137   0013F9  0A                 	db	10
   138   0013FA  12                 	db	18
   139   0013FB  1A                 	db	26
   140   0013FC  00                 	db	0
   141                           
   142                           ;initializer for _btn1
   143   0013FD  4B                 	db	75
   144   0013FE  00                 	db	0
   145   0013FF  01                 	db	1
   146                           
   147                           ;initializer for _motor1
   148   001400  02                 	db	2
   149   001401  0A                 	db	10
   150                           
   151                           ;initializer for spi_Slave_Mode_GPIO_PIN_Configurations@F3127
   152   001402  68                 	db	104
   153                           
   154                           ;initializer for spi_Slave_Mode_GPIO_PIN_Configurations@F3125
   155   001403  2A                 	db	42
   156                           
   157                           ;initializer for spi_Slave_Mode_GPIO_PIN_Configurations@F3123
   158   001404  62                 	db	98
   159                           
   160                           ;initializer for spi_Slave_Mode_GPIO_PIN_Configurations@F3121
   161   001405  5A                 	db	90
   162                           
   163                           ;initializer for spi_Master_Mode_GPIO_PIN_Configurations@F3116
   164   001406  2A                 	db	42
   165                           
   166                           ;initializer for spi_Master_Mode_GPIO_PIN_Configurations@F3114
   167   001407  62                 	db	98
   168                           
   169                           ;initializer for spi_Master_Mode_GPIO_PIN_Configurations@F3112
   170   001408  1A                 	db	26
   171                           
   172                           ;initializer for _ret
   173   001409  01                 	db	1
   174                           
   175                           ;initializer for _led1
   176   00140A  13                 	db	19
   177                           
   178                           	psect	smallconst
   179   001000                     __psmallconst:
   180                           	callstack 0
   181   001000  00                 	db	0
   182   001001                     _keypad_values:
   183                           	callstack 0
   184   001001  37                 	db	55
   185   001002  38                 	db	56
   186   001003  39                 	db	57
   187   001004  2F                 	db	47
   188   001005  34                 	db	52
   189   001006  35                 	db	53
   190   001007  36                 	db	54
   191   001008  2A                 	db	42
   192   001009  31                 	db	49
   193   00100A  32                 	db	50
   194   00100B  33                 	db	51
   195   00100C  2D                 	db	45
   196   00100D  63                 	db	99
   197   00100E  30                 	db	48
   198   00100F  3D                 	db	61
   199   001010  2B                 	db	43
   200   001011                     __end_of_keypad_values:
   201                           	callstack 0
   202   000000                     _SSPADD	set	4040
   203   000000                     _SSPCON2bits	set	4037
   204   000000                     _IPR1bits	set	3999
   205   000000                     _SSPBUF	set	4041
   206   000000                     _SSPSTATbits	set	4039
   207   000000                     _SSPCON1bits	set	4038
   208   000000                     _TMR3L	set	4018
   209   000000                     _TMR3H	set	4019
   210   000000                     _T2CONbits	set	4042
   211   000000                     _TMR1L	set	4046
   212   000000                     _TMR1H	set	4047
   213   000000                     _T1CONbits	set	4045
   214   000000                     _TMR0L	set	4054
   215   000000                     _TMR0H	set	4055
   216   000000                     _RCONbits	set	4048
   217   000000                     _PIE2bits	set	4000
   218   000000                     _SPBRGH	set	4016
   219   000000                     _SPBRG	set	4015
   220   000000                     _BAUDCONbits	set	4024
   221   000000                     _TXREG	set	4013
   222   000000                     _TXSTAbits	set	4012
   223   000000                     _RCREG	set	4014
   224   000000                     _TRISCbits	set	3988
   225   000000                     _RCSTAbits	set	4011
   226   000000                     _EECON2	set	4007
   227   000000                     _EECON1bits	set	4006
   228   000000                     _EEDATA	set	4008
   229   000000                     _EEADR	set	4009
   230   000000                     _EEADRH	set	4010
   231   000000                     _INTCONbits	set	4082
   232   000000                     _T3CONbits	set	4017
   233   000000                     _CCPR1H	set	4031
   234   000000                     _CCPR1L	set	4030
   235   000000                     _ADRESL	set	4035
   236   000000                     _ADRESH	set	4036
   237   000000                     _TRISD	set	3989
   238   000000                     _TRISB	set	3987
   239   000000                     _TRISE	set	3990
   240   000000                     _TRISC	set	3988
   241   000000                     _ADCON2bits	set	4032
   242   000000                     _ADCON1bits	set	4033
   243   000000                     _ADCON0bits	set	4034
   244   000000                     _PORTE	set	3972
   245   000000                     _PORTD	set	3971
   246   000000                     _PORTC	set	3970
   247   000000                     _PORTB	set	3969
   248   000000                     _PORTA	set	3968
   249   000000                     _LATA	set	3977
   250   000000                     _TRISA	set	3986
   251   000000                     _PIE1bits	set	3997
   252   000000                     _PIR1bits	set	3998
   253   000000                     _CCP1CONbits	set	4029
   254   000000                     _LATE	set	3981
   255   000000                     _LATD	set	3980
   256   000000                     _LATC	set	3979
   257   000000                     _LATB	set	3978
   258   000000                     _IPR2bits	set	4002
   259   000000                     _PIR2bits	set	4001
   260   000000                     _T0CONbits	set	4053
   261   000000                     _TMR2	set	4044
   262   001011                     STR_1:
   263   001011  25                 	db	37
   264   001012  69                 	db	105	;'i'
   265   001013  00                 	db	0
   266   001014  00                 	db	0	; dummy byte at the end
   267   000000                     
   268                           ; #config settings
   269                           
   270                           	psect	cinit
   271   00140C                     __pcinit:
   272                           	callstack 0
   273   00140C                     start_initialization:
   274                           	callstack 0
   275   00140C                     __initialization:
   276                           	callstack 0
   277                           
   278                           ; Initialize objects allocated to COMRAM (73 bytes)
   279                           ; load TBLPTR registers with __pidataCOMRAM
   280   00140C  0EC2               	movlw	low __pidataCOMRAM
   281   00140E  6EF6               	movwf	tblptrl,c
   282   001410  0E13               	movlw	high __pidataCOMRAM
   283   001412  6EF7               	movwf	tblptrh,c
   284   001414  0E00               	movlw	low (__pidataCOMRAM shr (0+16))
   285   001416  6EF8               	movwf	tblptru,c
   286   001418  EE00  F001         	lfsr	0,__pdataCOMRAM
   287   00141C  EE10 F049          	lfsr	1,73
   288   001420                     copy_data0:
   289   001420  0009               	tblrd		*+
   290   001422  CFF5 FFEE          	movff	tablat,postinc0
   291   001426  50E5               	movf	postdec1,w,c
   292   001428  50E1               	movf	fsr1l,w,c
   293   00142A  E1FA               	bnz	copy_data0
   294                           
   295                           ; Clear objects allocated to BANK0 (11 bytes)
   296   00142C  EE00  F080         	lfsr	0,__pbssBANK0
   297   001430  0E0B               	movlw	11
   298   001432                     clear_0:
   299   001432  6AEE               	clrf	postinc0,c
   300   001434  06E8               	decf	wreg,f,c
   301   001436  E1FD               	bnz	clear_0
   302                           
   303                           ; Clear objects allocated to COMRAM (35 bytes)
   304   001438  EE00  F04A         	lfsr	0,__pbssCOMRAM
   305   00143C  0E23               	movlw	35
   306   00143E                     clear_1:
   307   00143E  6AEE               	clrf	postinc0,c
   308   001440  06E8               	decf	wreg,f,c
   309   001442  E1FD               	bnz	clear_1
   310   001444                     end_of_initialization:
   311                           	callstack 0
   312   001444                     __end_of__initialization:
   313                           	callstack 0
   314   001444  907E               	bcf	int$flags,0,c	;clear compiler interrupt flag (level 1)
   315   001446  927E               	bcf	int$flags,1,c	;clear compiler interrupt flag (level 2)
   316   001448  0100               	movlb	0
   317   00144A  EF2E  F00A         	goto	_main	;jump to C main() function
   318                           
   319                           	psect	bssCOMRAM
   320   00004A                     __pbssCOMRAM:
   321                           	callstack 0
   322   00004A                     	ds	6
   323   000050                     	ds	4
   324   000054                     _I2C_Report_Receive_Overflow_InterruptHandle:
   325                           	callstack 0
   326   000054                     	ds	2
   327   000056                     _I2C_Report_Write_Collision_InterruptHandler:
   328                           	callstack 0
   329   000056                     	ds	2
   330   000058                     _I2C_InterruptHandle:
   331                           	callstack 0
   332   000058                     	ds	2
   333   00005A                     _SPI_InterruptHandler:
   334                           	callstack 0
   335   00005A                     	ds	2
   336   00005C                     _timer3_preload:
   337                           	callstack 0
   338   00005C                     	ds	2
   339   00005E                     _timer1_preload:
   340                           	callstack 0
   341   00005E                     	ds	2
   342   000060                     _timer0_preload:
   343                           	callstack 0
   344   000060                     	ds	2
   345   000062                     ccp1_Compare_Mode_Set_Value@F3097:
   346                           	callstack 0
   347   000062                     	ds	2
   348   000064                     _timer2_preload:
   349                           	callstack 0
   350   000064                     	ds	1
   351   000065                     _relay1:
   352                           	callstack 0
   353   000065                     	ds	1
   354   000066                     relay_turn_off@F3070:
   355                           	callstack 0
   356   000066                     	ds	1
   357   000067                     relay_turn_on@F3065:
   358                           	callstack 0
   359   000067                     	ds	1
   360   000068                     relay_initialize@F3060:
   361                           	callstack 0
   362   000068                     	ds	1
   363   000069                     led_turn_toggle@F3077:
   364                           	callstack 0
   365   000069                     	ds	1
   366   00006A                     led_turn_off@F3072:
   367                           	callstack 0
   368   00006A                     	ds	1
   369   00006B                     led_turn_on@F3067:
   370                           	callstack 0
   371   00006B                     	ds	1
   372   00006C                     led_initialize@F3062:
   373                           	callstack 0
   374   00006C                     	ds	1
   375                           
   376                           	psect	dataCOMRAM
   377   000001                     __pdataCOMRAM:
   378                           	callstack 0
   379   000001                     _port_registers:
   380                           	callstack 0
   381   000001                     	ds	10
   382   00000B                     _lat_registers:
   383                           	callstack 0
   384   00000B                     	ds	10
   385   000015                     _tris_registers:
   386                           	callstack 0
   387   000015                     	ds	10
   388   00001F                     _lcd2:
   389                           	callstack 0
   390   00001F                     	ds	10
   391   000029                     _keypad1:
   392                           	callstack 0
   393   000029                     	ds	8
   394   000031                     _lcd1:
   395                           	callstack 0
   396   000031                     	ds	6
   397   000037                     _segment1:
   398                           	callstack 0
   399   000037                     	ds	5
   400   00003C                     _btn1:
   401                           	callstack 0
   402   00003C                     	ds	3
   403   00003F                     _motor1:
   404                           	callstack 0
   405   00003F                     	ds	2
   406   000041                     spi_Slave_Mode_GPIO_PIN_Configurations@F3127:
   407                           	callstack 0
   408   000041                     	ds	1
   409   000042                     spi_Slave_Mode_GPIO_PIN_Configurations@F3125:
   410                           	callstack 0
   411   000042                     	ds	1
   412   000043                     spi_Slave_Mode_GPIO_PIN_Configurations@F3123:
   413                           	callstack 0
   414   000043                     	ds	1
   415   000044                     spi_Slave_Mode_GPIO_PIN_Configurations@F3121:
   416                           	callstack 0
   417   000044                     	ds	1
   418   000045                     spi_Master_Mode_GPIO_PIN_Configurations@F3116:
   419                           	callstack 0
   420   000045                     	ds	1
   421   000046                     spi_Master_Mode_GPIO_PIN_Configurations@F3114:
   422                           	callstack 0
   423   000046                     	ds	1
   424   000047                     spi_Master_Mode_GPIO_PIN_Configurations@F3112:
   425                           	callstack 0
   426   000047                     	ds	1
   427   000048                     _ret:
   428                           	callstack 0
   429   000048                     	ds	1
   430   000049                     _led1:
   431                           	callstack 0
   432   000049                     	ds	1
   433                           
   434                           	psect	bssBANK0
   435   000080                     __pbssBANK0:
   436                           	callstack 0
   437   000080                     	ds	11
   438                           
   439                           	psect	cstackCOMRAM
   440   00006D                     __pcstackCOMRAM:
   441                           	callstack 0
   442   00006D                     ??_InterruptManagerLow:
   443   00006D                     
   444                           ; 2 bytes @ 0x0
   445   00006D                     	ds	1
   446   00006E                     gpio_pin_direction_initialize@_pin_config:
   447                           	callstack 0
   448   00006E                     gpio_pin_write_logic@_pin_config:
   449                           	callstack 0
   450                           
   451                           ; 1 bytes @ 0x1
   452   00006E                     	ds	1
   453   00006F                     ??_gpio_pin_direction_initialize:
   454   00006F                     gpio_pin_write_logic@logic:
   455                           	callstack 0
   456                           
   457                           ; 1 bytes @ 0x2
   458   00006F                     	ds	1
   459   000070                     ??_gpio_pin_write_logic:
   460                           
   461                           ; 1 bytes @ 0x3
   462   000070                     	ds	4
   463   000074                     gpio_pin_direction_initialize@ret:
   464                           	callstack 0
   465                           
   466                           ; 1 bytes @ 0x7
   467   000074                     	ds	1
   468   000075                     gpio_pin_write_logic@ret:
   469                           	callstack 0
   470                           
   471                           ; 1 bytes @ 0x8
   472   000075                     	ds	1
   473   000076                     gpio_pin_initialize@_pin_config:
   474                           	callstack 0
   475                           
   476                           ; 1 bytes @ 0x9
   477   000076                     	ds	1
   478   000077                     ??_gpio_pin_initialize:
   479                           
   480                           ; 1 bytes @ 0xA
   481   000077                     	ds	1
   482   000078                     gpio_pin_initialize@ret:
   483                           	callstack 0
   484                           
   485                           ; 1 bytes @ 0xB
   486   000078                     	ds	1
   487   000079                     led_initialize@led:
   488                           	callstack 0
   489                           
   490                           ; 1 bytes @ 0xC
   491   000079                     	ds	1
   492   00007A                     ??_led_initialize:
   493                           
   494                           ; 1 bytes @ 0xD
   495   00007A                     	ds	1
   496   00007B                     led_initialize@ret:
   497                           	callstack 0
   498                           
   499                           ; 1 bytes @ 0xE
   500   00007B                     	ds	1
   501   00007C                     led_initialize@pin:
   502                           	callstack 0
   503                           
   504                           ; 1 bytes @ 0xF
   505   00007C                     	ds	1
   506   00007D                     ecu_layer_initialize@ret_init:
   507                           	callstack 0
   508                           
   509                           ; 1 bytes @ 0x10
   510   00007D                     	ds	1
   511   00007E                     
   512                           ; 1 bytes @ 0x11
   513 ;;
   514 ;;Main: autosize = 0, tempsize = 0, incstack = 0, save=0
   515 ;;
   516 ;; *************** function _main *****************
   517 ;; Defined at:
   518 ;;		line 20 in file "Application1.c"
   519 ;; Parameters:    Size  Location     Type
   520 ;;		None
   521 ;; Auto vars:     Size  Location     Type
   522 ;;		None
   523 ;; Return value:  Size  Location     Type
   524 ;;                  2  1015[None  ] int 
   525 ;; Registers used:
   526 ;;		wreg, fsr2l, fsr2h, status,2, status,0, prodl, prodh, cstack
   527 ;; Tracked objects:
   528 ;;		On entry : 0/0
   529 ;;		On exit  : 0/0
   530 ;;		Unchanged: 0/0
   531 ;; Data sizes:     COMRAM   BANK0   BANK1   BANK2   BANK3   BANK4   BANK5   BANK6   BANK7   BANK8   BANK9  BANK10  BANK1
      +1  BANK12  BANK13  BANK14  BANK15
   532 ;;      Params:         0       0       0       0       0       0       0       0       0       0       0       0       
      +0       0       0       0       0
   533 ;;      Locals:         0       0       0       0       0       0       0       0       0       0       0       0       
      +0       0       0       0       0
   534 ;;      Temps:          0       0       0       0       0       0       0       0       0       0       0       0       
      +0       0       0       0       0
   535 ;;      Totals:         0       0       0       0       0       0       0       0       0       0       0       0       
      +0       0       0       0       0
   536 ;;Total ram usage:        0 bytes
   537 ;; Hardware stack levels required when called: 8
   538 ;; This function calls:
   539 ;;		_application_initialize
   540 ;; This function is called by:
   541 ;;		Startup code after reset
   542 ;; This function uses a non-reentrant model
   543 ;;
   544                           
   545                           	psect	text0
   546   00145C                     __ptext0:
   547                           	callstack 0
   548   00145C                     _main:
   549                           	callstack 23
   550   00145C                     
   551                           ;Application1.c: 22:     application_initialize();
   552   00145C  EC34  F00A         	call	_application_initialize	;wreg free
   553   001460                     l1016:
   554   001460  EF30  F00A         	goto	l1016
   555   001464  EF13  F000         	goto	start
   556   001468                     __end_of_main:
   557                           	callstack 0
   558                           
   559 ;; *************** function _application_initialize *****************
   560 ;; Defined at:
   561 ;;		line 32 in file "Application1.c"
   562 ;; Parameters:    Size  Location     Type
   563 ;;		None
   564 ;; Auto vars:     Size  Location     Type
   565 ;;  ret_init        1    0        unsigned char 
   566 ;; Return value:  Size  Location     Type
   567 ;;                  1    wreg      void 
   568 ;; Registers used:
   569 ;;		wreg, fsr2l, fsr2h, status,2, status,0, prodl, prodh, cstack
   570 ;; Tracked objects:
   571 ;;		On entry : 0/0
   572 ;;		On exit  : 0/0
   573 ;;		Unchanged: 0/0
   574 ;; Data sizes:     COMRAM   BANK0   BANK1   BANK2   BANK3   BANK4   BANK5   BANK6   BANK7   BANK8   BANK9  BANK10  BANK1
      +1  BANK12  BANK13  BANK14  BANK15
   575 ;;      Params:         0       0       0       0       0       0       0       0       0       0       0       0       
      +0       0       0       0       0
   576 ;;      Locals:         0       0       0       0       0       0       0       0       0       0       0       0       
      +0       0       0       0       0
   577 ;;      Temps:          0       0       0       0       0       0       0       0       0       0       0       0       
      +0       0       0       0       0
   578 ;;      Totals:         0       0       0       0       0       0       0       0       0       0       0       0       
      +0       0       0       0       0
   579 ;;Total ram usage:        0 bytes
   580 ;; Hardware stack levels used: 1
   581 ;; Hardware stack levels required when called: 7
   582 ;; This function calls:
   583 ;;		_ecu_layer_initialize
   584 ;; This function is called by:
   585 ;;		_main
   586 ;; This function uses a non-reentrant model
   587 ;;
   588                           
   589                           	psect	text1
   590   001468                     __ptext1:
   591                           	callstack 0
   592   001468                     _application_initialize:
   593                           	callstack 23
   594   001468  EC27  F00A         	call	_ecu_layer_initialize	;wreg free
   595   00146C  0012               	return		;funcret
   596   00146E                     __end_of_application_initialize:
   597                           	callstack 0
   598                           
   599 ;; *************** function _ecu_layer_initialize *****************
   600 ;; Defined at:
   601 ;;		line 213 in file "ECU_Layer/ecu_layer_init.c"
   602 ;; Parameters:    Size  Location     Type
   603 ;;		None
   604 ;; Auto vars:     Size  Location     Type
   605 ;;  ret_init        1   16[COMRAM] unsigned char 
   606 ;; Return value:  Size  Location     Type
   607 ;;                  1    wreg      unsigned char 
   608 ;; Registers used:
   609 ;;		wreg, fsr2l, fsr2h, status,2, status,0, prodl, prodh, cstack
   610 ;; Tracked objects:
   611 ;;		On entry : 0/0
   612 ;;		On exit  : 0/0
   613 ;;		Unchanged: 0/0
   614 ;; Data sizes:     COMRAM   BANK0   BANK1   BANK2   BANK3   BANK4   BANK5   BANK6   BANK7   BANK8   BANK9  BANK10  BANK1
      +1  BANK12  BANK13  BANK14  BANK15
   615 ;;      Params:         0       0       0       0       0       0       0       0       0       0       0       0       
      +0       0       0       0       0
   616 ;;      Locals:         1       0       0       0       0       0       0       0       0       0       0       0       
      +0       0       0       0       0
   617 ;;      Temps:          0       0       0       0       0       0       0       0       0       0       0       0       
      +0       0       0       0       0
   618 ;;      Totals:         1       0       0       0       0       0       0       0       0       0       0       0       
      +0       0       0       0       0
   619 ;;Total ram usage:        1 bytes
   620 ;; Hardware stack levels used: 1
   621 ;; Hardware stack levels required when called: 6
   622 ;; This function calls:
   623 ;;		_led_initialize
   624 ;; This function is called by:
   625 ;;		_application_initialize
   626 ;; This function uses a non-reentrant model
   627 ;;
   628                           
   629                           	psect	text2
   630   00144E                     __ptext2:
   631                           	callstack 0
   632   00144E                     _ecu_layer_initialize:
   633                           	callstack 23
   634   00144E                     
   635                           ;ECU_Layer/ecu_layer_init.c: 217:     ret_init = led_initialize(&led1);
   636   00144E  0E49               	movlw	low _led1
   637   001450  6E79               	movwf	led_initialize@led^0,c
   638   001452  EC83  F009         	call	_led_initialize	;wreg free
   639   001456  6E7D               	movwf	ecu_layer_initialize@ret_init^0,c
   640   001458                     
   641                           ;ECU_Layer/ecu_layer_init.c: 219:     return ret_init;
   642   001458  507D               	movf	ecu_layer_initialize@ret_init^0,w,c
   643   00145A  0012               	return		;funcret
   644   00145C                     __end_of_ecu_layer_initialize:
   645                           	callstack 0
   646                           
   647 ;; *************** function _led_initialize *****************
   648 ;; Defined at:
   649 ;;		line 27 in file "ECU_Layer/LED/ecu_led.c"
   650 ;; Parameters:    Size  Location     Type
   651 ;;  led             1   12[COMRAM] PTR const struct .
   652 ;;		 -> led1(1), 
   653 ;; Auto vars:     Size  Location     Type
   654 ;;  pin             1   15[COMRAM] struct .
   655 ;;  ret             1   14[COMRAM] unsigned char 
   656 ;; Return value:  Size  Location     Type
   657 ;;                  1    wreg      unsigned char 
   658 ;; Registers used:
   659 ;;		wreg, fsr2l, fsr2h, status,2, status,0, prodl, prodh, cstack
   660 ;; Tracked objects:
   661 ;;		On entry : 0/0
   662 ;;		On exit  : 0/0
   663 ;;		Unchanged: 0/0
   664 ;; Data sizes:     COMRAM   BANK0   BANK1   BANK2   BANK3   BANK4   BANK5   BANK6   BANK7   BANK8   BANK9  BANK10  BANK1
      +1  BANK12  BANK13  BANK14  BANK15
   665 ;;      Params:         1       0       0       0       0       0       0       0       0       0       0       0       
      +0       0       0       0       0
   666 ;;      Locals:         2       0       0       0       0       0       0       0       0       0       0       0       
      +0       0       0       0       0
   667 ;;      Temps:          1       0       0       0       0       0       0       0       0       0       0       0       
      +0       0       0       0       0
   668 ;;      Totals:         4       0       0       0       0       0       0       0       0       0       0       0       
      +0       0       0       0       0
   669 ;;Total ram usage:        4 bytes
   670 ;; Hardware stack levels used: 1
   671 ;; Hardware stack levels required when called: 5
   672 ;; This function calls:
   673 ;;		_gpio_pin_initialize
   674 ;; This function is called by:
   675 ;;		_ecu_layer_initialize
   676 ;; This function uses a non-reentrant model
   677 ;;
   678                           
   679                           	psect	text3
   680   001306                     __ptext3:
   681                           	callstack 0
   682   001306                     _led_initialize:
   683                           	callstack 23
   684   001306                     
   685                           ;ECU_Layer/LED/ecu_led.c: 30:     if(led != ((void*)0))
   686   001306  5079               	movf	led_initialize@led^0,w,c
   687   001308  B4D8               	btfsc	status,2,c
   688   00130A  EF89  F009         	goto	u2891
   689   00130E  EF8B  F009         	goto	u2890
   690   001312                     u2891:
   691   001312  EFB8  F009         	goto	l4160
   692   001316                     u2890:
   693   001316                     
   694                           ;ECU_Layer/LED/ecu_led.c: 31:     {;ECU_Layer/LED/ecu_led.c: 32:         pin_config_t pi
      +                          n = {.port = led->led_port ,.pin = led->led_pin ,
   695   001316  C06C  F07C         	movff	led_initialize@F3062,led_initialize@pin
   696   00131A  5079               	movf	led_initialize@led^0,w,c
   697   00131C  6ED9               	movwf	fsr2l,c
   698   00131E  6ADA               	clrf	fsr2h,c
   699   001320  50DF               	movf	223,w,c
   700   001322  0B07               	andlw	7
   701   001324  6E7A               	movwf	??_led_initialize^0,c
   702   001326  507C               	movf	led_initialize@pin^0,w,c
   703   001328  187A               	xorwf	??_led_initialize^0,w,c
   704   00132A  0BF8               	andlw	-8
   705   00132C  187A               	xorwf	??_led_initialize^0,w,c
   706   00132E  6E7C               	movwf	led_initialize@pin^0,c
   707   001330  5079               	movf	led_initialize@led^0,w,c
   708   001332  6ED9               	movwf	fsr2l,c
   709   001334  6ADA               	clrf	fsr2h,c
   710   001336  30DF               	rrcf	223,w,c
   711   001338  32E8               	rrcf	wreg,f,c
   712   00133A  32E8               	rrcf	wreg,f,c
   713   00133C  0B07               	andlw	7
   714   00133E  6E7A               	movwf	??_led_initialize^0,c
   715   001340  467A               	rlncf	??_led_initialize^0,f,c
   716   001342  467A               	rlncf	??_led_initialize^0,f,c
   717   001344  467A               	rlncf	??_led_initialize^0,f,c
   718   001346  507C               	movf	led_initialize@pin^0,w,c
   719   001348  187A               	xorwf	??_led_initialize^0,w,c
   720   00134A  0BC7               	andlw	-57
   721   00134C  187A               	xorwf	??_led_initialize^0,w,c
   722   00134E  6E7C               	movwf	led_initialize@pin^0,c
   723   001350  9C7C               	bcf	led_initialize@pin^0,6,c
   724   001352  5079               	movf	led_initialize@led^0,w,c
   725   001354  6ED9               	movwf	fsr2l,c
   726   001356  6ADA               	clrf	fsr2h,c
   727   001358  ACDF               	btfss	indf2,6,c
   728   00135A  D002               	bra	u2905
   729   00135C  8E7C               	bsf	led_initialize@pin^0,7,c
   730   00135E  D001               	bra	u2907
   731   001360                     u2905:
   732   001360  9E7C               	bcf	led_initialize@pin^0,7,c
   733   001362                     u2907:
   734   001362                     
   735                           ;ECU_Layer/LED/ecu_led.c: 34:         ret = gpio_pin_initialize(&pin);
   736   001362  0E7C               	movlw	low led_initialize@pin
   737   001364  6E76               	movwf	gpio_pin_initialize@_pin_config^0,c
   738   001366  EC46  F009         	call	_gpio_pin_initialize	;wreg free
   739   00136A  6E7B               	movwf	led_initialize@ret^0,c
   740                           
   741                           ;ECU_Layer/LED/ecu_led.c: 35:     }
   742   00136C  EFBA  F009         	goto	l287
   743   001370                     l4160:
   744   001370  0E00               	movlw	0
   745   001372  6E7B               	movwf	led_initialize@ret^0,c
   746   001374                     l287:
   747                           
   748                           ;ECU_Layer/LED/ecu_led.c: 38:     return ret;
   749   001374  507B               	movf	led_initialize@ret^0,w,c
   750   001376  0012               	return		;funcret
   751   001378                     __end_of_led_initialize:
   752                           	callstack 0
   753                           
   754 ;; *************** function _gpio_pin_initialize *****************
   755 ;; Defined at:
   756 ;;		line 151 in file "MCAL_Layer/GPIO/mcal_gpio.c"
   757 ;; Parameters:    Size  Location     Type
   758 ;;  _pin_config     1    9[COMRAM] PTR const struct .
   759 ;;		 -> relay_initialize@pin(1), led_initialize@pin(1), 
   760 ;; Auto vars:     Size  Location     Type
   761 ;;  ret             1   11[COMRAM] unsigned char 
   762 ;; Return value:  Size  Location     Type
   763 ;;                  1    wreg      unsigned char 
   764 ;; Registers used:
   765 ;;		wreg, fsr2l, fsr2h, status,2, status,0, prodl, prodh, cstack
   766 ;; Tracked objects:
   767 ;;		On entry : 0/0
   768 ;;		On exit  : 0/0
   769 ;;		Unchanged: 0/0
   770 ;; Data sizes:     COMRAM   BANK0   BANK1   BANK2   BANK3   BANK4   BANK5   BANK6   BANK7   BANK8   BANK9  BANK10  BANK1
      +1  BANK12  BANK13  BANK14  BANK15
   771 ;;      Params:         1       0       0       0       0       0       0       0       0       0       0       0       
      +0       0       0       0       0
   772 ;;      Locals:         1       0       0       0       0       0       0       0       0       0       0       0       
      +0       0       0       0       0
   773 ;;      Temps:          1       0       0       0       0       0       0       0       0       0       0       0       
      +0       0       0       0       0
   774 ;;      Totals:         3       0       0       0       0       0       0       0       0       0       0       0       
      +0       0       0       0       0
   775 ;;Total ram usage:        3 bytes
   776 ;; Hardware stack levels used: 1
   777 ;; Hardware stack levels required when called: 4
   778 ;; This function calls:
   779 ;;		_gpio_pin_direction_initialize
   780 ;;		_gpio_pin_write_logic
   781 ;; This function is called by:
   782 ;;		_led_initialize
   783 ;;		_dc_motor_initialize
   784 ;;		_keypad_initialize
   785 ;;		_lcd_4bit_initialize
   786 ;;		_lcd_8bit_initialize
   787 ;;		_relay_initialize
   788 ;;		_seven_segment_initialize
   789 ;;		_ccp1_Init
   790 ;; This function uses a non-reentrant model
   791 ;;
   792                           
   793                           	psect	text4
   794   00128C                     __ptext4:
   795                           	callstack 0
   796   00128C                     _gpio_pin_initialize:
   797                           	callstack 23
   798   00128C                     
   799                           ;MCAL_Layer/GPIO/mcal_gpio.c: 154:     if((_pin_config != ((void*)0)) && (_pin_config->p
      +                          ort <= 5 -1) && (_pin_config->pin <= 8 -1))
   800   00128C  5076               	movf	gpio_pin_initialize@_pin_config^0,w,c
   801   00128E  B4D8               	btfsc	status,2,c
   802   001290  EF4C  F009         	goto	u2861
   803   001294  EF4E  F009         	goto	u2860
   804   001298                     u2861:
   805   001298  EF7F  F009         	goto	l4144
   806   00129C                     u2860:
   807   00129C  5076               	movf	gpio_pin_initialize@_pin_config^0,w,c
   808   00129E  6ED9               	movwf	fsr2l,c
   809   0012A0  6ADA               	clrf	fsr2h,c
   810   0012A2  50DF               	movf	223,w,c
   811   0012A4  0B07               	andlw	7
   812   0012A6  6E77               	movwf	??_gpio_pin_initialize^0,c
   813   0012A8  0E05               	movlw	5
   814   0012AA  6077               	cpfslt	??_gpio_pin_initialize^0,c
   815   0012AC  EF5A  F009         	goto	u2871
   816   0012B0  EF5C  F009         	goto	u2870
   817   0012B4                     u2871:
   818   0012B4  EF7F  F009         	goto	l4144
   819   0012B8                     u2870:
   820   0012B8  5076               	movf	gpio_pin_initialize@_pin_config^0,w,c
   821   0012BA  6ED9               	movwf	fsr2l,c
   822   0012BC  6ADA               	clrf	fsr2h,c
   823   0012BE  30DF               	rrcf	223,w,c
   824   0012C0  32E8               	rrcf	wreg,f,c
   825   0012C2  32E8               	rrcf	wreg,f,c
   826   0012C4  0B07               	andlw	7
   827   0012C6  6E77               	movwf	??_gpio_pin_initialize^0,c
   828   0012C8  0E08               	movlw	8
   829   0012CA  6077               	cpfslt	??_gpio_pin_initialize^0,c
   830   0012CC  EF6A  F009         	goto	u2881
   831   0012D0  EF6C  F009         	goto	u2880
   832   0012D4                     u2881:
   833   0012D4  EF7F  F009         	goto	l4144
   834   0012D8                     u2880:
   835   0012D8                     
   836                           ;MCAL_Layer/GPIO/mcal_gpio.c: 155:     {;MCAL_Layer/GPIO/mcal_gpio.c: 156:         ret =
      +                           gpio_pin_direction_initialize(_pin_config);
   837   0012D8  C076  F06E         	movff	gpio_pin_initialize@_pin_config,gpio_pin_direction_initialize@_pin_config
   838   0012DC  ECAD  F008         	call	_gpio_pin_direction_initialize	;wreg free
   839   0012E0  6E78               	movwf	gpio_pin_initialize@ret^0,c
   840                           
   841                           ;MCAL_Layer/GPIO/mcal_gpio.c: 157:         ret = gpio_pin_write_logic(_pin_config,_pin_c
      +                          onfig->logic);
   842   0012E2  C076  F06E         	movff	gpio_pin_initialize@_pin_config,gpio_pin_write_logic@_pin_config
   843   0012E6  5076               	movf	gpio_pin_initialize@_pin_config^0,w,c
   844   0012E8  6ED9               	movwf	fsr2l,c
   845   0012EA  6ADA               	clrf	fsr2h,c
   846   0012EC  0E00               	movlw	0
   847   0012EE  BEDF               	btfsc	indf2,7,c
   848   0012F0  0E01               	movlw	1
   849   0012F2  6E6F               	movwf	gpio_pin_write_logic@logic^0,c
   850   0012F4  EC0B  F008         	call	_gpio_pin_write_logic	;wreg free
   851   0012F8  6E78               	movwf	gpio_pin_initialize@ret^0,c
   852                           
   853                           ;MCAL_Layer/GPIO/mcal_gpio.c: 158:     }
   854   0012FA  EF81  F009         	goto	l737
   855   0012FE                     l4144:
   856   0012FE  0E00               	movlw	0
   857   001300  6E78               	movwf	gpio_pin_initialize@ret^0,c
   858   001302                     l737:
   859                           
   860                           ;MCAL_Layer/GPIO/mcal_gpio.c: 160:     return ret;
   861   001302  5078               	movf	gpio_pin_initialize@ret^0,w,c
   862   001304  0012               	return		;funcret
   863   001306                     __end_of_gpio_pin_initialize:
   864                           	callstack 0
   865                           
   866 ;; *************** function _gpio_pin_write_logic *****************
   867 ;; Defined at:
   868 ;;		line 83 in file "MCAL_Layer/GPIO/mcal_gpio.c"
   869 ;; Parameters:    Size  Location     Type
   870 ;;  _pin_config     1    1[COMRAM] PTR const struct .
   871 ;;		 -> relay_turn_off@pin(1), relay_turn_on@pin(1), relay_initialize@pin(1), led_turn_off@pin(1), 
   872 ;;		 -> led_turn_on@pin(1), led_initialize@pin(1), 
   873 ;;  logic           1    2[COMRAM] enum E3002
   874 ;; Auto vars:     Size  Location     Type
   875 ;;  ret             1    8[COMRAM] unsigned char 
   876 ;; Return value:  Size  Location     Type
   877 ;;                  1    wreg      unsigned char 
   878 ;; Registers used:
   879 ;;		wreg, fsr2l, fsr2h, status,2, status,0, prodl, prodh
   880 ;; Tracked objects:
   881 ;;		On entry : 0/0
   882 ;;		On exit  : 0/0
   883 ;;		Unchanged: 0/0
   884 ;; Data sizes:     COMRAM   BANK0   BANK1   BANK2   BANK3   BANK4   BANK5   BANK6   BANK7   BANK8   BANK9  BANK10  BANK1
      +1  BANK12  BANK13  BANK14  BANK15
   885 ;;      Params:         2       0       0       0       0       0       0       0       0       0       0       0       
      +0       0       0       0       0
   886 ;;      Locals:         1       0       0       0       0       0       0       0       0       0       0       0       
      +0       0       0       0       0
   887 ;;      Temps:          5       0       0       0       0       0       0       0       0       0       0       0       
      +0       0       0       0       0
   888 ;;      Totals:         8       0       0       0       0       0       0       0       0       0       0       0       
      +0       0       0       0       0
   889 ;;Total ram usage:        8 bytes
   890 ;; Hardware stack levels used: 1
   891 ;; Hardware stack levels required when called: 3
   892 ;; This function calls:
   893 ;;		Nothing
   894 ;; This function is called by:
   895 ;;		_gpio_pin_initialize
   896 ;;		_dc_motor_move_right
   897 ;;		_dc_motor_move_left
   898 ;;		_dc_motor_stop
   899 ;;		_keypad_get_value
   900 ;;		_lcd_4bit_send_command
   901 ;;		_lcd_4bit_send_char_data
   902 ;;		_lcd_8bit_send_command
   903 ;;		_lcd_8bit_send_char_data
   904 ;;		_lcd_send_4bits
   905 ;;		_lcd_4bit_send_enable_signal
   906 ;;		_lcd_8bit_send_enable_signal
   907 ;;		_led_turn_on
   908 ;;		_led_turn_off
   909 ;;		_relay_turn_on
   910 ;;		_relay_turn_off
   911 ;;		_seven_segment_write_number
   912 ;; This function uses a non-reentrant model
   913 ;;
   914                           
   915                           	psect	text5
   916   001016                     __ptext5:
   917                           	callstack 0
   918   001016                     _gpio_pin_write_logic:
   919                           	callstack 23
   920   001016                     
   921                           ;MCAL_Layer/GPIO/mcal_gpio.c: 83: Std_ReturnType gpio_pin_write_logic(const pin_config_t
      +                           *_pin_config , logic_t logic);MCAL_Layer/GPIO/mcal_gpio.c: 84: {;MCAL_Layer/GPIO/mcal_g
      +                          pio.c: 85:     Std_ReturnType ret = (Std_ReturnType)0x01;
   922   001016  0E01               	movlw	1
   923   001018  6E75               	movwf	gpio_pin_write_logic@ret^0,c
   924                           
   925                           ;MCAL_Layer/GPIO/mcal_gpio.c: 86:     if((_pin_config != ((void*)0)) && (_pin_config->po
      +                          rt <= 5 -1) && (_pin_config->pin <= 8 -1))
   926   00101A  506E               	movf	gpio_pin_write_logic@_pin_config^0,w,c
   927   00101C  B4D8               	btfsc	status,2,c
   928   00101E  EF13  F008         	goto	u2801
   929   001022  EF15  F008         	goto	u2800
   930   001026                     u2801:
   931   001026  EF92  F008         	goto	l4122
   932   00102A                     u2800:
   933   00102A  506E               	movf	gpio_pin_write_logic@_pin_config^0,w,c
   934   00102C  6ED9               	movwf	fsr2l,c
   935   00102E  6ADA               	clrf	fsr2h,c
   936   001030  50DF               	movf	223,w,c
   937   001032  0B07               	andlw	7
   938   001034  6E70               	movwf	??_gpio_pin_write_logic^0,c
   939   001036  0E05               	movlw	5
   940   001038  6070               	cpfslt	??_gpio_pin_write_logic^0,c
   941   00103A  EF21  F008         	goto	u2811
   942   00103E  EF23  F008         	goto	u2810
   943   001042                     u2811:
   944   001042  EF92  F008         	goto	l4122
   945   001046                     u2810:
   946   001046  506E               	movf	gpio_pin_write_logic@_pin_config^0,w,c
   947   001048  6ED9               	movwf	fsr2l,c
   948   00104A  6ADA               	clrf	fsr2h,c
   949   00104C  30DF               	rrcf	223,w,c
   950   00104E  32E8               	rrcf	wreg,f,c
   951   001050  32E8               	rrcf	wreg,f,c
   952   001052  0B07               	andlw	7
   953   001054  6E70               	movwf	??_gpio_pin_write_logic^0,c
   954   001056  0E08               	movlw	8
   955   001058  6070               	cpfslt	??_gpio_pin_write_logic^0,c
   956   00105A  EF31  F008         	goto	u2821
   957   00105E  EF33  F008         	goto	u2820
   958   001062                     u2821:
   959   001062  EF92  F008         	goto	l4122
   960   001066                     u2820:
   961   001066                     
   962                           ;MCAL_Layer/GPIO/mcal_gpio.c: 87:     {;MCAL_Layer/GPIO/mcal_gpio.c: 88:         if(_pin
      +                          _config->direction == GPIO_DIRECTION_OUTPUT)
   963   001066  506E               	movf	gpio_pin_write_logic@_pin_config^0,w,c
   964   001068  6ED9               	movwf	fsr2l,c
   965   00106A  6ADA               	clrf	fsr2h,c
   966   00106C  BCDF               	btfsc	indf2,6,c
   967   00106E  EF3B  F008         	goto	u2831
   968   001072  EF3D  F008         	goto	u2830
   969   001076                     u2831:
   970   001076  EF92  F008         	goto	l4122
   971   00107A                     u2830:
   972   00107A  EF96  F008         	goto	l4124
   973   00107E                     l4118:
   974                           
   975                           ;MCAL_Layer/GPIO/mcal_gpio.c: 93:                     (*lat_registers[_pin_config->port]
      +                           &=~ ((uint8)0x01 << _pin_config->pin));
   976   00107E  506E               	movf	gpio_pin_write_logic@_pin_config^0,w,c
   977   001080  6ED9               	movwf	fsr2l,c
   978   001082  6ADA               	clrf	fsr2h,c
   979   001084  30DF               	rrcf	223,w,c
   980   001086  32E8               	rrcf	wreg,f,c
   981   001088  32E8               	rrcf	wreg,f,c
   982   00108A  0B07               	andlw	7
   983   00108C  6E70               	movwf	??_gpio_pin_write_logic^0,c
   984   00108E  0E01               	movlw	1
   985   001090  6E71               	movwf	(??_gpio_pin_write_logic+1)^0,c
   986   001092  2A70               	incf	??_gpio_pin_write_logic^0,f,c
   987   001094  EF4E  F008         	goto	u2844
   988   001098                     u2845:
   989   001098  90D8               	bcf	status,0,c
   990   00109A  3671               	rlcf	(??_gpio_pin_write_logic+1)^0,f,c
   991   00109C                     u2844:
   992   00109C  2E70               	decfsz	??_gpio_pin_write_logic^0,f,c
   993   00109E  EF4C  F008         	goto	u2845
   994   0010A2  5071               	movf	(??_gpio_pin_write_logic+1)^0,w,c
   995   0010A4  0AFF               	xorlw	255
   996   0010A6  6E72               	movwf	(??_gpio_pin_write_logic+2)^0,c
   997   0010A8  506E               	movf	gpio_pin_write_logic@_pin_config^0,w,c
   998   0010AA  6ED9               	movwf	fsr2l,c
   999   0010AC  6ADA               	clrf	fsr2h,c
  1000   0010AE  50DF               	movf	223,w,c
  1001   0010B0  0B07               	andlw	7
  1002   0010B2  0D02               	mullw	2
  1003   0010B4  50F3               	movf	243,w,c
  1004   0010B6  0F0B               	addlw	low _lat_registers
  1005   0010B8  6ED9               	movwf	fsr2l,c
  1006   0010BA  6ADA               	clrf	fsr2h,c
  1007   0010BC  CFDE F073          	movff	postinc2,??_gpio_pin_write_logic+3
  1008   0010C0  CFDD F074          	movff	postdec2,??_gpio_pin_write_logic+4
  1009   0010C4  C073  FFD9         	movff	??_gpio_pin_write_logic+3,fsr2l
  1010   0010C8  C074  FFDA         	movff	??_gpio_pin_write_logic+4,fsr2h
  1011   0010CC  5072               	movf	(??_gpio_pin_write_logic+2)^0,w,c
  1012   0010CE  16DF               	andwf	indf2,f,c
  1013                           
  1014                           ;MCAL_Layer/GPIO/mcal_gpio.c: 94:                     break;
  1015   0010D0  EFAB  F008         	goto	l722
  1016   0010D4                     l4120:
  1017                           
  1018                           ;MCAL_Layer/GPIO/mcal_gpio.c: 96:                     (*lat_registers[_pin_config->port]
      +                           |= ((uint8)0x01 << _pin_config->pin));
  1019   0010D4  506E               	movf	gpio_pin_write_logic@_pin_config^0,w,c
  1020   0010D6  6ED9               	movwf	fsr2l,c
  1021   0010D8  6ADA               	clrf	fsr2h,c
  1022   0010DA  30DF               	rrcf	223,w,c
  1023   0010DC  32E8               	rrcf	wreg,f,c
  1024   0010DE  32E8               	rrcf	wreg,f,c
  1025   0010E0  0B07               	andlw	7
  1026   0010E2  6E70               	movwf	??_gpio_pin_write_logic^0,c
  1027   0010E4  0E01               	movlw	1
  1028   0010E6  6E71               	movwf	(??_gpio_pin_write_logic+1)^0,c
  1029   0010E8  2A70               	incf	??_gpio_pin_write_logic^0,f,c
  1030   0010EA  EF79  F008         	goto	u2854
  1031   0010EE                     u2855:
  1032   0010EE  90D8               	bcf	status,0,c
  1033   0010F0  3671               	rlcf	(??_gpio_pin_write_logic+1)^0,f,c
  1034   0010F2                     u2854:
  1035   0010F2  2E70               	decfsz	??_gpio_pin_write_logic^0,f,c
  1036   0010F4  EF77  F008         	goto	u2855
  1037   0010F8  506E               	movf	gpio_pin_write_logic@_pin_config^0,w,c
  1038   0010FA  6ED9               	movwf	fsr2l,c
  1039   0010FC  6ADA               	clrf	fsr2h,c
  1040   0010FE  50DF               	movf	223,w,c
  1041   001100  0B07               	andlw	7
  1042   001102  0D02               	mullw	2
  1043   001104  50F3               	movf	243,w,c
  1044   001106  0F0B               	addlw	low _lat_registers
  1045   001108  6ED9               	movwf	fsr2l,c
  1046   00110A  6ADA               	clrf	fsr2h,c
  1047   00110C  CFDE F072          	movff	postinc2,??_gpio_pin_write_logic+2
  1048   001110  CFDD F073          	movff	postdec2,??_gpio_pin_write_logic+3
  1049   001114  C072  FFD9         	movff	??_gpio_pin_write_logic+2,fsr2l
  1050   001118  C073  FFDA         	movff	??_gpio_pin_write_logic+3,fsr2h
  1051   00111C  5071               	movf	(??_gpio_pin_write_logic+1)^0,w,c
  1052   00111E  12DF               	iorwf	indf2,f,c
  1053                           
  1054                           ;MCAL_Layer/GPIO/mcal_gpio.c: 97:                     break;
  1055   001120  EFAB  F008         	goto	l722
  1056   001124                     l4122:
  1057   001124  0E00               	movlw	0
  1058   001126  6E75               	movwf	gpio_pin_write_logic@ret^0,c
  1059                           
  1060                           ;MCAL_Layer/GPIO/mcal_gpio.c: 99:             }
  1061   001128  EFAB  F008         	goto	l722
  1062   00112C                     l4124:
  1063   00112C  506F               	movf	gpio_pin_write_logic@logic^0,w,c
  1064   00112E  6E70               	movwf	??_gpio_pin_write_logic^0,c
  1065   001130  6A71               	clrf	(??_gpio_pin_write_logic+1)^0,c
  1066                           
  1067                           ; Switch on 2 bytes has been partitioned into a top level switch of size 1, and 1 sub-sw
      +                          itches
  1068                           ; Switch size 1, requested type "simple"
  1069                           ; Number of cases is 1, Range of values is 0 to 0
  1070                           ; switch strategies available:
  1071                           ; Name         Instructions Cycles
  1072                           ; simple_byte            4     3 (average)
  1073                           ;	Chosen strategy is simple_byte
  1074   001132  5071               	movf	(??_gpio_pin_write_logic+1)^0,w,c
  1075   001134  0A00               	xorlw	0	; case 0
  1076   001136  B4D8               	btfsc	status,2,c
  1077   001138  EFA0  F008         	goto	l5020
  1078   00113C  EF92  F008         	goto	l4122
  1079   001140                     l5020:
  1080                           
  1081                           ; Switch size 1, requested type "simple"
  1082                           ; Number of cases is 2, Range of values is 0 to 1
  1083                           ; switch strategies available:
  1084                           ; Name         Instructions Cycles
  1085                           ; simple_byte            7     4 (average)
  1086                           ;	Chosen strategy is simple_byte
  1087   001140  5070               	movf	??_gpio_pin_write_logic^0,w,c
  1088   001142  0A00               	xorlw	0	; case 0
  1089   001144  B4D8               	btfsc	status,2,c
  1090   001146  EF3F  F008         	goto	l4118
  1091   00114A  0A01               	xorlw	1	; case 1
  1092   00114C  B4D8               	btfsc	status,2,c
  1093   00114E  EF6A  F008         	goto	l4120
  1094   001152  EF92  F008         	goto	l4122
  1095   001156                     l722:
  1096                           
  1097                           ;MCAL_Layer/GPIO/mcal_gpio.c: 104:     return ret;
  1098   001156  5075               	movf	gpio_pin_write_logic@ret^0,w,c
  1099   001158  0012               	return		;funcret
  1100   00115A                     __end_of_gpio_pin_write_logic:
  1101                           	callstack 0
  1102                           
  1103 ;; *************** function _gpio_pin_direction_initialize *****************
  1104 ;; Defined at:
  1105 ;;		line 34 in file "MCAL_Layer/GPIO/mcal_gpio.c"
  1106 ;; Parameters:    Size  Location     Type
  1107 ;;  _pin_config     1    1[COMRAM] PTR const struct .
  1108 ;;		 -> spi_Slave_Mode_GPIO_PIN_Configurations@SPI_SS(1), spi_Slave_Mode_GPIO_PIN_Configurations@SPI_SDO(1), spi_Slave_M
      +ode_GPIO_PIN_Configurations@SPI_SDI(1), spi_Slave_Mode_GPIO_PIN_Configurations@SPI_CLK(1), 
  1109 ;;		 -> spi_Master_Mode_GPIO_PIN_Configurations@SPI_SDO(1), spi_Master_Mode_GPIO_PIN_Configurations@SPI_SDI(1), spi_Mast
      +er_Mode_GPIO_PIN_Configurations@SPI_CLK(1), relay_initialize@pin(1), 
  1110 ;;		 -> led_initialize@pin(1), 
  1111 ;; Auto vars:     Size  Location     Type
  1112 ;;  ret             1    7[COMRAM] unsigned char 
  1113 ;; Return value:  Size  Location     Type
  1114 ;;                  1    wreg      unsigned char 
  1115 ;; Registers used:
  1116 ;;		wreg, fsr2l, fsr2h, status,2, status,0, prodl, prodh
  1117 ;; Tracked objects:
  1118 ;;		On entry : 0/0
  1119 ;;		On exit  : 0/0
  1120 ;;		Unchanged: 0/0
  1121 ;; Data sizes:     COMRAM   BANK0   BANK1   BANK2   BANK3   BANK4   BANK5   BANK6   BANK7   BANK8   BANK9  BANK10  BANK1
      +1  BANK12  BANK13  BANK14  BANK15
  1122 ;;      Params:         1       0       0       0       0       0       0       0       0       0       0       0       
      +0       0       0       0       0
  1123 ;;      Locals:         1       0       0       0       0       0       0       0       0       0       0       0       
      +0       0       0       0       0
  1124 ;;      Temps:          5       0       0       0       0       0       0       0       0       0       0       0       
      +0       0       0       0       0
  1125 ;;      Totals:         7       0       0       0       0       0       0       0       0       0       0       0       
      +0       0       0       0       0
  1126 ;;Total ram usage:        7 bytes
  1127 ;; Hardware stack levels used: 1
  1128 ;; Hardware stack levels required when called: 3
  1129 ;; This function calls:
  1130 ;;		Nothing
  1131 ;; This function is called by:
  1132 ;;		_gpio_pin_initialize
  1133 ;;		_button_initialize
  1134 ;;		_keypad_initialize
  1135 ;;		_spi_Master_Mode_GPIO_PIN_Configurations
  1136 ;;		_spi_Slave_Mode_GPIO_PIN_Configurations
  1137 ;; This function uses a non-reentrant model
  1138 ;;
  1139                           
  1140                           	psect	text6
  1141   00115A                     __ptext6:
  1142                           	callstack 0
  1143   00115A                     _gpio_pin_direction_initialize:
  1144                           	callstack 23
  1145   00115A                     
  1146                           ;MCAL_Layer/GPIO/mcal_gpio.c: 34: Std_ReturnType gpio_pin_direction_initialize(const pin
      +                          _config_t *_pin_config);MCAL_Layer/GPIO/mcal_gpio.c: 35: {;MCAL_Layer/GPIO/mcal_gpio.c: 
      +                          36:     Std_ReturnType ret = (Std_ReturnType)0x01;
  1147   00115A  0E01               	movlw	1
  1148   00115C  6E74               	movwf	gpio_pin_direction_initialize@ret^0,c
  1149                           
  1150                           ;MCAL_Layer/GPIO/mcal_gpio.c: 38:     if((_pin_config != ((void*)0)) && (_pin_config->po
      +                          rt <= 5 -1) && (_pin_config->pin <= 8 -1))
  1151   00115E  506E               	movf	gpio_pin_direction_initialize@_pin_config^0,w,c
  1152   001160  B4D8               	btfsc	status,2,c
  1153   001162  EFB5  F008         	goto	u2741
  1154   001166  EFB7  F008         	goto	u2740
  1155   00116A                     u2741:
  1156   00116A  EF2A  F009         	goto	l4100
  1157   00116E                     u2740:
  1158   00116E  506E               	movf	gpio_pin_direction_initialize@_pin_config^0,w,c
  1159   001170  6ED9               	movwf	fsr2l,c
  1160   001172  6ADA               	clrf	fsr2h,c
  1161   001174  50DF               	movf	223,w,c
  1162   001176  0B07               	andlw	7
  1163   001178  6E6F               	movwf	??_gpio_pin_direction_initialize^0,c
  1164   00117A  0E05               	movlw	5
  1165   00117C  606F               	cpfslt	??_gpio_pin_direction_initialize^0,c
  1166   00117E  EFC3  F008         	goto	u2751
  1167   001182  EFC5  F008         	goto	u2750
  1168   001186                     u2751:
  1169   001186  EF2A  F009         	goto	l4100
  1170   00118A                     u2750:
  1171   00118A  506E               	movf	gpio_pin_direction_initialize@_pin_config^0,w,c
  1172   00118C  6ED9               	movwf	fsr2l,c
  1173   00118E  6ADA               	clrf	fsr2h,c
  1174   001190  30DF               	rrcf	223,w,c
  1175   001192  32E8               	rrcf	wreg,f,c
  1176   001194  32E8               	rrcf	wreg,f,c
  1177   001196  0B07               	andlw	7
  1178   001198  6E6F               	movwf	??_gpio_pin_direction_initialize^0,c
  1179   00119A  0E08               	movlw	8
  1180   00119C  606F               	cpfslt	??_gpio_pin_direction_initialize^0,c
  1181   00119E  EFD3  F008         	goto	u2761
  1182   0011A2  EFD5  F008         	goto	u2760
  1183   0011A6                     u2761:
  1184   0011A6  EF2A  F009         	goto	l4100
  1185   0011AA                     u2760:
  1186   0011AA  EF2E  F009         	goto	l4102
  1187   0011AE                     l4096:
  1188                           
  1189                           ;MCAL_Layer/GPIO/mcal_gpio.c: 43:                 (*tris_registers[_pin_config->port] &=
      +                          ~ ((uint8)0x01 << _pin_config->pin));
  1190   0011AE  506E               	movf	gpio_pin_direction_initialize@_pin_config^0,w,c
  1191   0011B0  6ED9               	movwf	fsr2l,c
  1192   0011B2  6ADA               	clrf	fsr2h,c
  1193   0011B4  30DF               	rrcf	223,w,c
  1194   0011B6  32E8               	rrcf	wreg,f,c
  1195   0011B8  32E8               	rrcf	wreg,f,c
  1196   0011BA  0B07               	andlw	7
  1197   0011BC  6E6F               	movwf	??_gpio_pin_direction_initialize^0,c
  1198   0011BE  0E01               	movlw	1
  1199   0011C0  6E70               	movwf	(??_gpio_pin_direction_initialize+1)^0,c
  1200   0011C2  2A6F               	incf	??_gpio_pin_direction_initialize^0,f,c
  1201   0011C4  EFE6  F008         	goto	u2774
  1202   0011C8                     u2775:
  1203   0011C8  90D8               	bcf	status,0,c
  1204   0011CA  3670               	rlcf	(??_gpio_pin_direction_initialize+1)^0,f,c
  1205   0011CC                     u2774:
  1206   0011CC  2E6F               	decfsz	??_gpio_pin_direction_initialize^0,f,c
  1207   0011CE  EFE4  F008         	goto	u2775
  1208   0011D2  5070               	movf	(??_gpio_pin_direction_initialize+1)^0,w,c
  1209   0011D4  0AFF               	xorlw	255
  1210   0011D6  6E71               	movwf	(??_gpio_pin_direction_initialize+2)^0,c
  1211   0011D8  506E               	movf	gpio_pin_direction_initialize@_pin_config^0,w,c
  1212   0011DA  6ED9               	movwf	fsr2l,c
  1213   0011DC  6ADA               	clrf	fsr2h,c
  1214   0011DE  50DF               	movf	223,w,c
  1215   0011E0  0B07               	andlw	7
  1216   0011E2  0D02               	mullw	2
  1217   0011E4  50F3               	movf	243,w,c
  1218   0011E6  0F15               	addlw	low _tris_registers
  1219   0011E8  6ED9               	movwf	fsr2l,c
  1220   0011EA  6ADA               	clrf	fsr2h,c
  1221   0011EC  CFDE F072          	movff	postinc2,??_gpio_pin_direction_initialize+3
  1222   0011F0  CFDD F073          	movff	postdec2,??_gpio_pin_direction_initialize+4
  1223   0011F4  C072  FFD9         	movff	??_gpio_pin_direction_initialize+3,fsr2l
  1224   0011F8  C073  FFDA         	movff	??_gpio_pin_direction_initialize+4,fsr2h
  1225   0011FC  5071               	movf	(??_gpio_pin_direction_initialize+2)^0,w,c
  1226   0011FE  16DF               	andwf	indf2,f,c
  1227                           
  1228                           ;MCAL_Layer/GPIO/mcal_gpio.c: 44:                 break;
  1229   001200  EF44  F009         	goto	l705
  1230   001204                     l4098:
  1231                           
  1232                           ;MCAL_Layer/GPIO/mcal_gpio.c: 46:                 (*tris_registers[_pin_config->port] |=
      +                           ((uint8)0x01 << _pin_config->pin));
  1233   001204  506E               	movf	gpio_pin_direction_initialize@_pin_config^0,w,c
  1234   001206  6ED9               	movwf	fsr2l,c
  1235   001208  6ADA               	clrf	fsr2h,c
  1236   00120A  30DF               	rrcf	223,w,c
  1237   00120C  32E8               	rrcf	wreg,f,c
  1238   00120E  32E8               	rrcf	wreg,f,c
  1239   001210  0B07               	andlw	7
  1240   001212  6E6F               	movwf	??_gpio_pin_direction_initialize^0,c
  1241   001214  0E01               	movlw	1
  1242   001216  6E70               	movwf	(??_gpio_pin_direction_initialize+1)^0,c
  1243   001218  2A6F               	incf	??_gpio_pin_direction_initialize^0,f,c
  1244   00121A  EF11  F009         	goto	u2784
  1245   00121E                     u2785:
  1246   00121E  90D8               	bcf	status,0,c
  1247   001220  3670               	rlcf	(??_gpio_pin_direction_initialize+1)^0,f,c
  1248   001222                     u2784:
  1249   001222  2E6F               	decfsz	??_gpio_pin_direction_initialize^0,f,c
  1250   001224  EF0F  F009         	goto	u2785
  1251   001228  506E               	movf	gpio_pin_direction_initialize@_pin_config^0,w,c
  1252   00122A  6ED9               	movwf	fsr2l,c
  1253   00122C  6ADA               	clrf	fsr2h,c
  1254   00122E  50DF               	movf	223,w,c
  1255   001230  0B07               	andlw	7
  1256   001232  0D02               	mullw	2
  1257   001234  50F3               	movf	243,w,c
  1258   001236  0F15               	addlw	low _tris_registers
  1259   001238  6ED9               	movwf	fsr2l,c
  1260   00123A  6ADA               	clrf	fsr2h,c
  1261   00123C  CFDE F071          	movff	postinc2,??_gpio_pin_direction_initialize+2
  1262   001240  CFDD F072          	movff	postdec2,??_gpio_pin_direction_initialize+3
  1263   001244  C071  FFD9         	movff	??_gpio_pin_direction_initialize+2,fsr2l
  1264   001248  C072  FFDA         	movff	??_gpio_pin_direction_initialize+3,fsr2h
  1265   00124C  5070               	movf	(??_gpio_pin_direction_initialize+1)^0,w,c
  1266   00124E  12DF               	iorwf	indf2,f,c
  1267                           
  1268                           ;MCAL_Layer/GPIO/mcal_gpio.c: 47:                 break;
  1269   001250  EF44  F009         	goto	l705
  1270   001254                     l4100:
  1271   001254  0E00               	movlw	0
  1272   001256  6E74               	movwf	gpio_pin_direction_initialize@ret^0,c
  1273                           
  1274                           ;MCAL_Layer/GPIO/mcal_gpio.c: 49:         }
  1275   001258  EF44  F009         	goto	l705
  1276   00125C                     l4102:
  1277   00125C  506E               	movf	gpio_pin_direction_initialize@_pin_config^0,w,c
  1278   00125E  6ED9               	movwf	fsr2l,c
  1279   001260  6ADA               	clrf	fsr2h,c
  1280   001262  BCDF               	btfsc	indf2,6,c
  1281   001264  EF36  F009         	goto	u2791
  1282   001268  EF39  F009         	goto	u2790
  1283   00126C                     u2791:
  1284   00126C  0E01               	movlw	1
  1285   00126E  EF3A  F009         	goto	u2796
  1286   001272                     u2790:
  1287   001272  0E00               	movlw	0
  1288   001274                     u2796:
  1289                           
  1290                           ; Switch size 1, requested type "simple"
  1291                           ; Number of cases is 2, Range of values is 0 to 1
  1292                           ; switch strategies available:
  1293                           ; Name         Instructions Cycles
  1294                           ; simple_byte            7     4 (average)
  1295                           ;	Chosen strategy is simple_byte
  1296   001274  0A00               	xorlw	0	; case 0
  1297   001276  B4D8               	btfsc	status,2,c
  1298   001278  EFD7  F008         	goto	l4096
  1299   00127C  0A01               	xorlw	1	; case 1
  1300   00127E  B4D8               	btfsc	status,2,c
  1301   001280  EF02  F009         	goto	l4098
  1302   001284  EF2A  F009         	goto	l4100
  1303   001288                     l705:
  1304                           
  1305                           ;MCAL_Layer/GPIO/mcal_gpio.c: 53:     return ret;
  1306   001288  5074               	movf	gpio_pin_direction_initialize@ret^0,w,c
  1307   00128A  0012               	return		;funcret
  1308   00128C                     __end_of_gpio_pin_direction_initialize:
  1309                           	callstack 0
  1310                           
  1311 ;; *************** function _InterruptManagerLow *****************
  1312 ;; Defined at:
  1313 ;;		line 197 in file "MCAL_Layer/Interrupt/mcal_interrupt_manager.c"
  1314 ;; Parameters:    Size  Location     Type
  1315 ;;		None
  1316 ;; Auto vars:     Size  Location     Type
  1317 ;;		None
  1318 ;; Return value:  Size  Location     Type
  1319 ;;                  1    wreg      void 
  1320 ;; Registers used:
  1321 ;;		None
  1322 ;; Tracked objects:
  1323 ;;		On entry : 0/0
  1324 ;;		On exit  : 0/0
  1325 ;;		Unchanged: 0/0
  1326 ;; Data sizes:     COMRAM   BANK0   BANK1   BANK2   BANK3   BANK4   BANK5   BANK6   BANK7   BANK8   BANK9  BANK10  BANK1
      +1  BANK12  BANK13  BANK14  BANK15
  1327 ;;      Params:         0       0       0       0       0       0       0       0       0       0       0       0       
      +0       0       0       0       0
  1328 ;;      Locals:         0       0       0       0       0       0       0       0       0       0       0       0       
      +0       0       0       0       0
  1329 ;;      Temps:          1       0       0       0       0       0       0       0       0       0       0       0       
      +0       0       0       0       0
  1330 ;;      Totals:         1       0       0       0       0       0       0       0       0       0       0       0       
      +0       0       0       0       0
  1331 ;;Total ram usage:        1 bytes
  1332 ;; Hardware stack levels used: 1
  1333 ;; Hardware stack levels required when called: 2
  1334 ;; This function calls:
  1335 ;;		Nothing
  1336 ;; This function is called by:
  1337 ;;		Interrupt level 1
  1338 ;; This function uses a non-reentrant model
  1339 ;;
  1340                           
  1341                           	psect	intcodelo
  1342   000018                     __pintcodelo:
  1343                           	callstack 0
  1344   000018                     _InterruptManagerLow:
  1345                           	callstack 23
  1346                           
  1347                           ;incstack = 0
  1348   000018  807E               	bsf	int$flags,0,c	;set compiler interrupt flag (level 1)
  1349   00001A  CFE0 F06D          	movff	bsr,??_InterruptManagerLow
  1350   00001E  C06D  FFE0         	movff	??_InterruptManagerLow,bsr
  1351   000022  907E               	bcf	int$flags,0,c	;clear compiler interrupt flag (level 1)
  1352   000024  0010               	retfie	
  1353   000026                     __end_of_InterruptManagerLow:
  1354                           	callstack 0
  1355                           
  1356 ;; *************** function _InterruptManagerHigh *****************
  1357 ;; Defined at:
  1358 ;;		line 32 in file "MCAL_Layer/Interrupt/mcal_interrupt_manager.c"
  1359 ;; Parameters:    Size  Location     Type
  1360 ;;		None
  1361 ;; Auto vars:     Size  Location     Type
  1362 ;;		None
  1363 ;; Return value:  Size  Location     Type
  1364 ;;                  1    wreg      void 
  1365 ;; Registers used:
  1366 ;;		cstack
  1367 ;; Tracked objects:
  1368 ;;		On entry : 0/0
  1369 ;;		On exit  : 0/0
  1370 ;;		Unchanged: 0/0
  1371 ;; Data sizes:     COMRAM   BANK0   BANK1   BANK2   BANK3   BANK4   BANK5   BANK6   BANK7   BANK8   BANK9  BANK10  BANK1
      +1  BANK12  BANK13  BANK14  BANK15
  1372 ;;      Params:         0       0       0       0       0       0       0       0       0       0       0       0       
      +0       0       0       0       0
  1373 ;;      Locals:         0       0       0       0       0       0       0       0       0       0       0       0       
      +0       0       0       0       0
  1374 ;;      Temps:          0       0       0       0       0       0       0       0       0       0       0       0       
      +0       0       0       0       0
  1375 ;;      Totals:         0       0       0       0       0       0       0       0       0       0       0       0       
      +0       0       0       0       0
  1376 ;;Total ram usage:        0 bytes
  1377 ;; Hardware stack levels used: 1
  1378 ;; Hardware stack levels required when called: 1
  1379 ;; This function calls:
  1380 ;;		_I2C_BC_ISR
  1381 ;;		_I2C_ISR
  1382 ;;		_SPI_ISR
  1383 ;; This function is called by:
  1384 ;;		Interrupt level 2
  1385 ;; This function uses a non-reentrant model
  1386 ;;
  1387                           
  1388                           	psect	intcode
  1389   000008                     __pintcode:
  1390                           	callstack 0
  1391   000008                     _InterruptManagerHigh:
  1392                           	callstack 23
  1393                           
  1394                           ;incstack = 0
  1395   000008  827E               	bsf	int$flags,1,c	;set compiler interrupt flag (level 2)
  1396   00000A  EDBC  F009         	call	int_func,f	;refresh shadow registers
  1397                           
  1398                           	psect	intcode_body
  1399   001378                     __pintcode_body:
  1400                           	callstack 23
  1401   001378                     int_func:
  1402                           	callstack 23
  1403   001378  0006               	pop		; remove dummy address from shadow register refresh
  1404   00137A                     
  1405                           ;MCAL_Layer/Interrupt/mcal_interrupt_manager.c: 179:     if((1 == PIE1bits.SSPIE) && (1 
      +                          == PIR1bits.SSPIF))
  1406   00137A  A69D               	btfss	157,3,c	;volatile
  1407   00137C  EFC2  F009         	goto	i2u169_41
  1408   001380  EFC4  F009         	goto	i2u169_40
  1409   001384                     i2u169_41:
  1410   001384  EFCD  F009         	goto	i2l783
  1411   001388                     i2u169_40:
  1412   001388  A69E               	btfss	158,3,c	;volatile
  1413   00138A  EFC9  F009         	goto	i2u170_41
  1414   00138E  EFCB  F009         	goto	i2u170_40
  1415   001392                     i2u170_41:
  1416   001392  EFCD  F009         	goto	i2l783
  1417   001396                     i2u170_40:
  1418   001396                     
  1419                           ;MCAL_Layer/Interrupt/mcal_interrupt_manager.c: 180:     {;MCAL_Layer/Interrupt/mcal_int
      +                          errupt_manager.c: 181:         SPI_ISR();
  1420   001396  EC37  F00A         	call	_SPI_ISR	;wreg free
  1421   00139A                     i2l783:
  1422                           
  1423                           ;MCAL_Layer/Interrupt/mcal_interrupt_manager.c: 188:     if((1 == PIE2bits.BCLIE) && (1 
      +                          == PIR2bits.BCLIF))
  1424   00139A  A6A0               	btfss	160,3,c	;volatile
  1425   00139C  EFD2  F009         	goto	i2u171_41
  1426   0013A0  EFD4  F009         	goto	i2u171_40
  1427   0013A4                     i2u171_41:
  1428   0013A4  EFDF  F009         	goto	i2l786
  1429   0013A8                     i2u171_40:
  1430   0013A8  A6A1               	btfss	161,3,c	;volatile
  1431   0013AA  EFD9  F009         	goto	i2u172_41
  1432   0013AE  EFDB  F009         	goto	i2u172_40
  1433   0013B2                     i2u172_41:
  1434   0013B2  EFDF  F009         	goto	i2l786
  1435   0013B6                     i2u172_40:
  1436   0013B6                     
  1437                           ;MCAL_Layer/Interrupt/mcal_interrupt_manager.c: 189:     {;MCAL_Layer/Interrupt/mcal_int
      +                          errupt_manager.c: 190:         I2C_ISR();
  1438   0013B6  EC39  F00A         	call	_I2C_ISR	;wreg free
  1439                           
  1440                           ;MCAL_Layer/Interrupt/mcal_interrupt_manager.c: 191:         I2C_BC_ISR();
  1441   0013BA  EC3B  F00A         	call	_I2C_BC_ISR	;wreg free
  1442   0013BE                     i2l786:
  1443   0013BE  927E               	bcf	int$flags,1,c	;clear compiler interrupt flag (level 2)
  1444   0013C0  0011               	retfie		f
  1445   0013C2                     __end_of_InterruptManagerHigh:
  1446                           	callstack 0
  1447                           
  1448 ;; *************** function _SPI_ISR *****************
  1449 ;; Defined at:
  1450 ;;		line 203 in file "MCAL_Layer/SPI/mcal_spi.c"
  1451 ;; Parameters:    Size  Location     Type
  1452 ;;		None
  1453 ;; Auto vars:     Size  Location     Type
  1454 ;;		None
  1455 ;; Return value:  Size  Location     Type
  1456 ;;                  1    wreg      void 
  1457 ;; Registers used:
  1458 ;;		None
  1459 ;; Tracked objects:
  1460 ;;		On entry : 0/0
  1461 ;;		On exit  : 0/0
  1462 ;;		Unchanged: 0/0
  1463 ;; Data sizes:     COMRAM   BANK0   BANK1   BANK2   BANK3   BANK4   BANK5   BANK6   BANK7   BANK8   BANK9  BANK10  BANK1
      +1  BANK12  BANK13  BANK14  BANK15
  1464 ;;      Params:         0       0       0       0       0       0       0       0       0       0       0       0       
      +0       0       0       0       0
  1465 ;;      Locals:         0       0       0       0       0       0       0       0       0       0       0       0       
      +0       0       0       0       0
  1466 ;;      Temps:          0       0       0       0       0       0       0       0       0       0       0       0       
      +0       0       0       0       0
  1467 ;;      Totals:         0       0       0       0       0       0       0       0       0       0       0       0       
      +0       0       0       0       0
  1468 ;;Total ram usage:        0 bytes
  1469 ;; Hardware stack levels used: 1
  1470 ;; This function calls:
  1471 ;;		Nothing
  1472 ;; This function is called by:
  1473 ;;		_InterruptManagerHigh
  1474 ;; This function uses a non-reentrant model
  1475 ;;
  1476                           
  1477                           	psect	text9
  1478   00146E                     __ptext9:
  1479                           	callstack 0
  1480   00146E                     _SPI_ISR:
  1481                           	callstack 23
  1482   00146E                     
  1483                           ;MCAL_Layer/SPI/mcal_spi.c: 206:     (PIR1bits.SSPIF = 0);
  1484   00146E  969E               	bcf	158,3,c	;volatile
  1485   001470  0012               	return		;funcret
  1486   001472                     __end_of_SPI_ISR:
  1487                           	callstack 0
  1488                           
  1489 ;; *************** function _I2C_ISR *****************
  1490 ;; Defined at:
  1491 ;;		line 355 in file "MCAL_Layer/I2C/mcal_i2c.c"
  1492 ;; Parameters:    Size  Location     Type
  1493 ;;		None
  1494 ;; Auto vars:     Size  Location     Type
  1495 ;;		None
  1496 ;; Return value:  Size  Location     Type
  1497 ;;                  1    wreg      void 
  1498 ;; Registers used:
  1499 ;;		None
  1500 ;; Tracked objects:
  1501 ;;		On entry : 0/0
  1502 ;;		On exit  : 0/0
  1503 ;;		Unchanged: 0/0
  1504 ;; Data sizes:     COMRAM   BANK0   BANK1   BANK2   BANK3   BANK4   BANK5   BANK6   BANK7   BANK8   BANK9  BANK10  BANK1
      +1  BANK12  BANK13  BANK14  BANK15
  1505 ;;      Params:         0       0       0       0       0       0       0       0       0       0       0       0       
      +0       0       0       0       0
  1506 ;;      Locals:         0       0       0       0       0       0       0       0       0       0       0       0       
      +0       0       0       0       0
  1507 ;;      Temps:          0       0       0       0       0       0       0       0       0       0       0       0       
      +0       0       0       0       0
  1508 ;;      Totals:         0       0       0       0       0       0       0       0       0       0       0       0       
      +0       0       0       0       0
  1509 ;;Total ram usage:        0 bytes
  1510 ;; Hardware stack levels used: 1
  1511 ;; This function calls:
  1512 ;;		Nothing
  1513 ;; This function is called by:
  1514 ;;		_InterruptManagerHigh
  1515 ;; This function uses a non-reentrant model
  1516 ;;
  1517                           
  1518                           	psect	text10
  1519   001472                     __ptext10:
  1520                           	callstack 0
  1521   001472                     _I2C_ISR:
  1522                           	callstack 23
  1523   001472                     
  1524                           ;MCAL_Layer/I2C/mcal_i2c.c: 358:     (PIR1bits.SSPIF = 0);
  1525   001472  969E               	bcf	158,3,c	;volatile
  1526   001474  0012               	return		;funcret
  1527   001476                     __end_of_I2C_ISR:
  1528                           	callstack 0
  1529                           
  1530 ;; *************** function _I2C_BC_ISR *****************
  1531 ;; Defined at:
  1532 ;;		line 373 in file "MCAL_Layer/I2C/mcal_i2c.c"
  1533 ;; Parameters:    Size  Location     Type
  1534 ;;		None
  1535 ;; Auto vars:     Size  Location     Type
  1536 ;;		None
  1537 ;; Return value:  Size  Location     Type
  1538 ;;                  1    wreg      void 
  1539 ;; Registers used:
  1540 ;;		None
  1541 ;; Tracked objects:
  1542 ;;		On entry : 0/0
  1543 ;;		On exit  : 0/0
  1544 ;;		Unchanged: 0/0
  1545 ;; Data sizes:     COMRAM   BANK0   BANK1   BANK2   BANK3   BANK4   BANK5   BANK6   BANK7   BANK8   BANK9  BANK10  BANK1
      +1  BANK12  BANK13  BANK14  BANK15
  1546 ;;      Params:         0       0       0       0       0       0       0       0       0       0       0       0       
      +0       0       0       0       0
  1547 ;;      Locals:         0       0       0       0       0       0       0       0       0       0       0       0       
      +0       0       0       0       0
  1548 ;;      Temps:          0       0       0       0       0       0       0       0       0       0       0       0       
      +0       0       0       0       0
  1549 ;;      Totals:         0       0       0       0       0       0       0       0       0       0       0       0       
      +0       0       0       0       0
  1550 ;;Total ram usage:        0 bytes
  1551 ;; Hardware stack levels used: 1
  1552 ;; This function calls:
  1553 ;;		Nothing
  1554 ;; This function is called by:
  1555 ;;		_InterruptManagerHigh
  1556 ;; This function uses a non-reentrant model
  1557 ;;
  1558                           
  1559                           	psect	text11
  1560   001476                     __ptext11:
  1561                           	callstack 0
  1562   001476                     _I2C_BC_ISR:
  1563                           	callstack 23
  1564   001476                     
  1565                           ;MCAL_Layer/I2C/mcal_i2c.c: 376:     (PIR2bits.BCLIF = 0);
  1566   001476  96A1               	bcf	161,3,c	;volatile
  1567   001478  0012               	return		;funcret
  1568   00147A                     __end_of_I2C_BC_ISR:
  1569                           	callstack 0
  1570                           
  1571                           	psect	rparam
  1572   000000                     
  1573                           	psect	temp
  1574   00007E                     btemp:
  1575                           	callstack 0
  1576   00007E                     	ds	1
  1577   000000                     int$flags	set	btemp
  1578   000000                     wtemp8	set	btemp+1
  1579   000000                     ttemp5	set	btemp+1
  1580   000000                     ttemp6	set	btemp+4
  1581   000000                     ttemp7	set	btemp+8
  1582                           
  1583                           	psect	config
  1584                           
  1585                           ; Padding undefined space
  1586   300000                     	org	3145728
  1587   300000  FF                 	db	255
  1588                           
  1589                           ;Config register CONFIG1H @ 0x300001
  1590                           ;	Oscillator Selection bits
  1591                           ;	OSC = HS, HS oscillator
  1592                           ;	Fail-Safe Clock Monitor Enable bit
  1593                           ;	FCMEN = OFF, Fail-Safe Clock Monitor disabled
  1594                           ;	Internal/External Oscillator Switchover bit
  1595                           ;	IESO = OFF, Oscillator Switchover mode disabled
  1596   300001                     	org	3145729
  1597   300001  02                 	db	2
  1598                           
  1599                           ;Config register CONFIG2L @ 0x300002
  1600                           ;	Power-up Timer Enable bit
  1601                           ;	PWRT = OFF, PWRT disabled
  1602                           ;	Brown-out Reset Enable bits
  1603                           ;	BOREN = OFF, Brown-out Reset disabled in hardware and software
  1604                           ;	Brown Out Reset Voltage bits
  1605                           ;	BORV = 1, 
  1606   300002                     	org	3145730
  1607   300002  09                 	db	9
  1608                           
  1609                           ;Config register CONFIG2H @ 0x300003
  1610                           ;	Watchdog Timer Enable bit
  1611                           ;	WDT = OFF, WDT disabled (control is placed on the SWDTEN bit)
  1612                           ;	Watchdog Timer Postscale Select bits
  1613                           ;	WDTPS = 32768, 1:32768
  1614   300003                     	org	3145731
  1615   300003  1E                 	db	30
  1616                           
  1617                           ; Padding undefined space
  1618   300004                     	org	3145732
  1619   300004  FF                 	db	255
  1620                           
  1621                           ;Config register CONFIG3H @ 0x300005
  1622                           ;	CCP2 MUX bit
  1623                           ;	CCP2MX = PORTC, CCP2 input/output is multiplexed with RC1
  1624                           ;	PORTB A/D Enable bit
  1625                           ;	PBADEN = OFF, PORTB<4:0> pins are configured as digital I/O on Reset
  1626                           ;	Low-Power Timer1 Oscillator Enable bit
  1627                           ;	LPT1OSC = OFF, Timer1 configured for higher power operation
  1628                           ;	MCLR Pin Enable bit
  1629                           ;	MCLRE = ON, MCLR pin enabled; RE3 input pin disabled
  1630   300005                     	org	3145733
  1631   300005  81                 	db	129
  1632                           
  1633                           ;Config register CONFIG4L @ 0x300006
  1634                           ;	Stack Full/Underflow Reset Enable bit
  1635                           ;	STVREN = ON, Stack full/underflow will cause Reset
  1636                           ;	Single-Supply ICSP Enable bit
  1637                           ;	LVP = OFF, Single-Supply ICSP disabled
  1638                           ;	Extended Instruction Set Enable bit
  1639                           ;	XINST = OFF, Instruction set extension and Indexed Addressing mode disabled (Legacy mo
      +                          de)
  1640                           ;	Background Debugger Enable bit
  1641                           ;	DEBUG = 0x1, unprogrammed default
  1642   300006                     	org	3145734
  1643   300006  81                 	db	129
  1644                           
  1645                           ; Padding undefined space
  1646   300007                     	org	3145735
  1647   300007  FF                 	db	255
  1648                           
  1649                           ;Config register CONFIG5L @ 0x300008
  1650                           ;	Code Protection bit
  1651                           ;	CP0 = OFF, Block 0 (000800-003FFFh) not code-protected
  1652                           ;	Code Protection bit
  1653                           ;	CP1 = OFF, Block 1 (004000-007FFFh) not code-protected
  1654                           ;	Code Protection bit
  1655                           ;	CP2 = OFF, Block 2 (008000-00BFFFh) not code-protected
  1656                           ;	Code Protection bit
  1657                           ;	CP3 = OFF, Block 3 (00C000-00FFFFh) not code-protected
  1658   300008                     	org	3145736
  1659   300008  0F                 	db	15
  1660                           
  1661                           ;Config register CONFIG5H @ 0x300009
  1662                           ;	Boot Block Code Protection bit
  1663                           ;	CPB = OFF, Boot block (000000-0007FFh) not code-protected
  1664                           ;	Data EEPROM Code Protection bit
  1665                           ;	CPD = OFF, Data EEPROM not code-protected
  1666   300009                     	org	3145737
  1667   300009  C0                 	db	192
  1668                           
  1669                           ;Config register CONFIG6L @ 0x30000A
  1670                           ;	Write Protection bit
  1671                           ;	WRT0 = OFF, Block 0 (000800-003FFFh) not write-protected
  1672                           ;	Write Protection bit
  1673                           ;	WRT1 = OFF, Block 1 (004000-007FFFh) not write-protected
  1674                           ;	Write Protection bit
  1675                           ;	WRT2 = OFF, Block 2 (008000-00BFFFh) not write-protected
  1676                           ;	Write Protection bit
  1677                           ;	WRT3 = OFF, Block 3 (00C000-00FFFFh) not write-protected
  1678   30000A                     	org	3145738
  1679   30000A  0F                 	db	15
  1680                           
  1681                           ;Config register CONFIG6H @ 0x30000B
  1682                           ;	Configuration Register Write Protection bit
  1683                           ;	WRTC = OFF, Configuration registers (300000-3000FFh) not write-protected
  1684                           ;	Boot Block Write Protection bit
  1685                           ;	WRTB = OFF, Boot Block (000000-0007FFh) not write-protected
  1686                           ;	Data EEPROM Write Protection bit
  1687                           ;	WRTD = OFF, Data EEPROM not write-protected
  1688   30000B                     	org	3145739
  1689   30000B  E0                 	db	224
  1690                           
  1691                           ;Config register CONFIG7L @ 0x30000C
  1692                           ;	Table Read Protection bit
  1693                           ;	EBTR0 = OFF, Block 0 (000800-003FFFh) not protected from table reads executed in other
      +                           blocks
  1694                           ;	Table Read Protection bit
  1695                           ;	EBTR1 = OFF, Block 1 (004000-007FFFh) not protected from table reads executed in other
      +                           blocks
  1696                           ;	Table Read Protection bit
  1697                           ;	EBTR2 = OFF, Block 2 (008000-00BFFFh) not protected from table reads executed in other
      +                           blocks
  1698                           ;	Table Read Protection bit
  1699                           ;	EBTR3 = OFF, Block 3 (00C000-00FFFFh) not protected from table reads executed in other
      +                           blocks
  1700   30000C                     	org	3145740
  1701   30000C  0F                 	db	15
  1702                           
  1703                           ;Config register CONFIG7H @ 0x30000D
  1704                           ;	Boot Block Table Read Protection bit
  1705                           ;	EBTRB = OFF, Boot Block (000000-0007FFh) not protected from table reads executed in ot
      +                          her blocks
  1706   30000D                     	org	3145741
  1707   30000D  40                 	db	64
  1708                           tosu	equ	0xFFF
  1709                           tosh	equ	0xFFE
  1710                           tosl	equ	0xFFD
  1711                           stkptr	equ	0xFFC
  1712                           pclatu	equ	0xFFB
  1713                           pclath	equ	0xFFA
  1714                           pcl	equ	0xFF9
  1715                           tblptru	equ	0xFF8
  1716                           tblptrh	equ	0xFF7
  1717                           tblptrl	equ	0xFF6
  1718                           tablat	equ	0xFF5
  1719                           prodh	equ	0xFF4
  1720                           prodl	equ	0xFF3
  1721                           indf0	equ	0xFEF
  1722                           postinc0	equ	0xFEE
  1723                           postdec0	equ	0xFED
  1724                           preinc0	equ	0xFEC
  1725                           plusw0	equ	0xFEB
  1726                           fsr0h	equ	0xFEA
  1727                           fsr0l	equ	0xFE9
  1728                           wreg	equ	0xFE8
  1729                           indf1	equ	0xFE7
  1730                           postinc1	equ	0xFE6
  1731                           postdec1	equ	0xFE5
  1732                           preinc1	equ	0xFE4
  1733                           plusw1	equ	0xFE3
  1734                           fsr1h	equ	0xFE2
  1735                           fsr1l	equ	0xFE1
  1736                           bsr	equ	0xFE0
  1737                           indf2	equ	0xFDF
  1738                           postinc2	equ	0xFDE
  1739                           postdec2	equ	0xFDD
  1740                           preinc2	equ	0xFDC
  1741                           plusw2	equ	0xFDB
  1742                           fsr2h	equ	0xFDA
  1743                           fsr2l	equ	0xFD9
  1744                           status	equ	0xFD8

Data Sizes:
    Strings     3
    Constant    16
    Data        73
    BSS         46
    Persistent  0
    Stack       0

Auto Spaces:
    Space          Size  Autos    Used
    COMRAM          126     17     125
    BANK0           128      0      11
    BANK1           256      0       0
    BANK2           256      0       0
    BANK3           256      0       0
    BANK4           256      0       0
    BANK5           256      0       0
    BANK6           256      0       0
    BANK7           256      0       0
    BANK8           256      0       0
    BANK9           256      0       0
    BANK10          256      0       0
    BANK11          256      0       0
    BANK12          256      0       0
    BANK13          256      0       0
    BANK14          256      0       0
    BANK15          128      0       0

Pointer List with Targets:

    f$.$buffer	PTR unsigned char  size(2) Largest target is 0

    f$.$source	PTR const unsigned char  size(2) Largest target is 0

    gpio_pin_direction_initialize@_pin_config	PTR const struct . size(1) Largest target is 1
		 -> led_initialize@pin(COMRAM[1]), relay_initialize@pin(COMRAM[1]), spi_Master_Mode_GPIO_PIN_Configurations@SPI_CLK(COMRAM[1]), spi_Master_Mode_GPIO_PIN_Configurations@SPI_SDI(COMRAM[1]), 
		 -> spi_Master_Mode_GPIO_PIN_Configurations@SPI_SDO(COMRAM[1]), spi_Slave_Mode_GPIO_PIN_Configurations@SPI_CLK(COMRAM[1]), spi_Slave_Mode_GPIO_PIN_Configurations@SPI_SDI(COMRAM[1]), spi_Slave_Mode_GPIO_PIN_Configurations@SPI_SDO(COMRAM[1]), 
		 -> spi_Slave_Mode_GPIO_PIN_Configurations@SPI_SS(COMRAM[1]), 

    gpio_pin_initialize@_pin_config	PTR const struct . size(1) Largest target is 1
		 -> led_initialize@pin(COMRAM[1]), relay_initialize@pin(COMRAM[1]), 

    gpio_pin_write_logic@_pin_config	PTR const struct . size(1) Largest target is 1
		 -> led_initialize@pin(COMRAM[1]), led_turn_off@pin(COMRAM[1]), led_turn_on@pin(COMRAM[1]), relay_initialize@pin(COMRAM[1]), 
		 -> relay_turn_off@pin(COMRAM[1]), relay_turn_on@pin(COMRAM[1]), 

    i2c_Init@i2c_obj$I2C_InterruptHandler	PTR FTN()void  size(2) Largest target is 0

    i2c_Init@i2c_obj$I2C_Report_Receive_Overflow	PTR FTN()void  size(2) Largest target is 0

    i2c_Init@i2c_obj$I2C_Report_Write_Collision	PTR FTN()void  size(2) Largest target is 0

    i2c_Interrupt_Configurations@i2c_obj$I2C_InterruptHandler	PTR FTN()void  size(2) Largest target is 0

    i2c_Interrupt_Configurations@i2c_obj$I2C_Report_Receive_Overflow	PTR FTN()void  size(2) Largest target is 0

    i2c_Interrupt_Configurations@i2c_obj$I2C_Report_Write_Collision	PTR FTN()void  size(2) Largest target is 0

    I2C_InterruptHandle	PTR FTN()void  size(2) Largest target is 1
		 -> NULL(), 

    i2c_Master_Mode_Clock_Configurations@i2c_obj$I2C_InterruptHandler	PTR FTN()void  size(2) Largest target is 0

    i2c_Master_Mode_Clock_Configurations@i2c_obj$I2C_Report_Receive_Overflow	PTR FTN()void  size(2) Largest target is 0

    i2c_Master_Mode_Clock_Configurations@i2c_obj$I2C_Report_Write_Collision	PTR FTN()void  size(2) Largest target is 0

    I2C_Report_Receive_Overflow_InterruptHandle	PTR FTN()void  size(2) Largest target is 1
		 -> NULL(), 

    I2C_Report_Write_Collision_InterruptHandler	PTR FTN()void  size(2) Largest target is 1
		 -> NULL(), 

    i2c_Slave_Mode_Configurations@i2c_obj$I2C_InterruptHandler	PTR FTN()void  size(2) Largest target is 0

    i2c_Slave_Mode_Configurations@i2c_obj$I2C_Report_Receive_Overflow	PTR FTN()void  size(2) Largest target is 0

    i2c_Slave_Mode_Configurations@i2c_obj$I2C_Report_Write_Collision	PTR FTN()void  size(2) Largest target is 0

    lat_registers	PTR volatile unsigned char [5] size(2) Largest target is 1
		 -> LATA(BITBIGSFRlll[1]), LATB(BITBIGSFRllh[1]), LATC(BITBIGSFRllh[1]), LATD(BITBIGSFRllh[1]), 
		 -> LATE(BITBIGSFRllh[1]), 

    led_initialize@led	PTR const struct . size(1) Largest target is 1
		 -> led1(COMRAM[1]), 

    port_registers	PTR volatile unsigned char [5] size(2) Largest target is 1
		 -> PORTA(BITBIGSFRlll[1]), PORTB(BITBIGSFRlll[1]), PORTC(BITBIGSFRlll[1]), PORTD(BITBIGSFRlll[1]), 
		 -> PORTE(BITBIGSFRlll[1]), 

    S2541$SPI_InterruptHandler	PTR FTN()void  size(2) Largest target is 0

    S2980$I2C_InterruptHandler	PTR FTN()void  size(2) Largest target is 0

    S2980$I2C_Report_Receive_Overflow	PTR FTN()void  size(2) Largest target is 0

    S2980$I2C_Report_Write_Collision	PTR FTN()void  size(2) Largest target is 0

    S3835$buffer	PTR unsigned char  size(2) Largest target is 0

    S3835$source	PTR const unsigned char  size(2) Largest target is 0

    sp__memset	PTR void  size(2) Largest target is 0

    spi_Init@Config$SPI_InterruptHandler	PTR FTN()void  size(2) Largest target is 0

    spi_Interrupt_Init@Config$SPI_InterruptHandler	PTR FTN()void  size(2) Largest target is 0

    SPI_InterruptHandler	PTR FTN()void  size(2) Largest target is 1
		 -> NULL(), 

    spi_Slave_Mode_GPIO_PIN_Configurations@Config$SPI_InterruptHandler	PTR FTN()void  size(2) Largest target is 0

    tris_registers	PTR volatile unsigned char [5] size(2) Largest target is 1
		 -> TRISA(BITBIGSFRlll[1]), TRISB(ABS[1]), TRISC(SFR[1]), TRISD(ABS[1]), 
		 -> TRISE(ABS[1]), 

    vfprintf$0	PTR struct _IO_FILE size(1) Largest target is 12
		 -> sprintf@f(COMRAM[12]), 

    vfprintf$1	PTR const unsigned char  size(1) Largest target is 3
		 -> STR_1(CODE[3]), STR_2(CODE[3]), STR_3(CODE[3]), 

    vfprintf$2	PTR PTR void  size(1) Largest target is 1
		 -> sprintf@ap(COMRAM[1]), 


Critical Paths under _main in COMRAM

    _application_initialize->_ecu_layer_initialize
    _ecu_layer_initialize->_led_initialize
    _led_initialize->_gpio_pin_initialize
    _gpio_pin_initialize->_gpio_pin_write_logic

Critical Paths under _InterruptManagerLow in COMRAM

    None.

Critical Paths under _InterruptManagerHigh in COMRAM

    None.

Critical Paths under _main in BANK0

    None.

Critical Paths under _InterruptManagerLow in BANK0

    None.

Critical Paths under _InterruptManagerHigh in BANK0

    None.

Critical Paths under _main in BANK1

    None.

Critical Paths under _InterruptManagerLow in BANK1

    None.

Critical Paths under _InterruptManagerHigh in BANK1

    None.

Critical Paths under _main in BANK2

    None.

Critical Paths under _InterruptManagerLow in BANK2

    None.

Critical Paths under _InterruptManagerHigh in BANK2

    None.

Critical Paths under _main in BANK3

    None.

Critical Paths under _InterruptManagerLow in BANK3

    None.

Critical Paths under _InterruptManagerHigh in BANK3

    None.

Critical Paths under _main in BANK4

    None.

Critical Paths under _InterruptManagerLow in BANK4

    None.

Critical Paths under _InterruptManagerHigh in BANK4

    None.

Critical Paths under _main in BANK5

    None.

Critical Paths under _InterruptManagerLow in BANK5

    None.

Critical Paths under _InterruptManagerHigh in BANK5

    None.

Critical Paths under _main in BANK6

    None.

Critical Paths under _InterruptManagerLow in BANK6

    None.

Critical Paths under _InterruptManagerHigh in BANK6

    None.

Critical Paths under _main in BANK7

    None.

Critical Paths under _InterruptManagerLow in BANK7

    None.

Critical Paths under _InterruptManagerHigh in BANK7

    None.

Critical Paths under _main in BANK8

    None.

Critical Paths under _InterruptManagerLow in BANK8

    None.

Critical Paths under _InterruptManagerHigh in BANK8

    None.

Critical Paths under _main in BANK9

    None.

Critical Paths under _InterruptManagerLow in BANK9

    None.

Critical Paths under _InterruptManagerHigh in BANK9

    None.

Critical Paths under _main in BANK10

    None.

Critical Paths under _InterruptManagerLow in BANK10

    None.

Critical Paths under _InterruptManagerHigh in BANK10

    None.

Critical Paths under _main in BANK11

    None.

Critical Paths under _InterruptManagerLow in BANK11

    None.

Critical Paths under _InterruptManagerHigh in BANK11

    None.

Critical Paths under _main in BANK12

    None.

Critical Paths under _InterruptManagerLow in BANK12

    None.

Critical Paths under _InterruptManagerHigh in BANK12

    None.

Critical Paths under _main in BANK13

    None.

Critical Paths under _InterruptManagerLow in BANK13

    None.

Critical Paths under _InterruptManagerHigh in BANK13

    None.

Critical Paths under _main in BANK14

    None.

Critical Paths under _InterruptManagerLow in BANK14

    None.

Critical Paths under _InterruptManagerHigh in BANK14

    None.

Critical Paths under _main in BANK15

    None.

Critical Paths under _InterruptManagerLow in BANK15

    None.

Critical Paths under _InterruptManagerHigh in BANK15

    None.

Call Graph Tables:

 ---------------------------------------------------------------------------------
 (Depth) Function   	        Calls       Base Space   Used Autos Params    Refs
 ---------------------------------------------------------------------------------
 (0) _main                                                 0     0      0    7074
             _application_initialize
 ---------------------------------------------------------------------------------
 (1) _application_initialize                               1     1      0    7074
               _ecu_layer_initialize
 ---------------------------------------------------------------------------------
 (2) _ecu_layer_initialize                                 1     1      0    7072
                                             16 COMRAM     1     1      0
                     _led_initialize
 ---------------------------------------------------------------------------------
 (3) _led_initialize                                       4     3      1    7048
                                             12 COMRAM     4     3      1
                _gpio_pin_initialize
 ---------------------------------------------------------------------------------
 (4) _gpio_pin_initialize                                  3     2      1    6815
                                              9 COMRAM     3     2      1
      _gpio_pin_direction_initialize
               _gpio_pin_write_logic
 ---------------------------------------------------------------------------------
 (5) _gpio_pin_write_logic                                 8     6      2    4480
                                              1 COMRAM     8     6      2
 ---------------------------------------------------------------------------------
 (5) _gpio_pin_direction_initialize                        7     6      1     961
                                              1 COMRAM     7     6      1
 ---------------------------------------------------------------------------------
 Estimated maximum stack depth 5
 ---------------------------------------------------------------------------------
 (Depth) Function   	        Calls       Base Space   Used Autos Params    Refs
 ---------------------------------------------------------------------------------
 (6) _InterruptManagerLow                                  1     1      0       0
                                              0 COMRAM     1     1      0
 ---------------------------------------------------------------------------------
 Estimated maximum stack depth 6
 ---------------------------------------------------------------------------------
 (Depth) Function   	        Calls       Base Space   Used Autos Params    Refs
 ---------------------------------------------------------------------------------
 (7) _InterruptManagerHigh                                 0     0      0       0
                         _I2C_BC_ISR
                            _I2C_ISR
                            _SPI_ISR
 ---------------------------------------------------------------------------------
 (8) _SPI_ISR                                              0     0      0       0
 ---------------------------------------------------------------------------------
 (8) _I2C_ISR                                              0     0      0       0
 ---------------------------------------------------------------------------------
 (8) _I2C_BC_ISR                                           0     0      0       0
 ---------------------------------------------------------------------------------
 Estimated maximum stack depth 8
 ---------------------------------------------------------------------------------

 Call Graph Graphs:

 _main (ROOT)
   _application_initialize
     _ecu_layer_initialize
       _led_initialize
         _gpio_pin_initialize
           _gpio_pin_direction_initialize
           _gpio_pin_write_logic

 _InterruptManagerLow (ROOT)

 _InterruptManagerHigh (ROOT)
   _I2C_BC_ISR
   _I2C_ISR
   _SPI_ISR

 Address spaces:
Name               Size   Autos  Total    Cost      Usage
BIGRAM             F7F      0       0      47        0.0%
EEDATA             400      0       0       0        0.0%
BITBANK14          100      0       0      33        0.0%
BANK14             100      0       0      34        0.0%
BITBANK13          100      0       0      31        0.0%
BANK13             100      0       0      32        0.0%
BITBANK12          100      0       0      29        0.0%
BANK12             100      0       0      30        0.0%
BITBANK11          100      0       0      27        0.0%
BANK11             100      0       0      28        0.0%
BITBANK10          100      0       0      25        0.0%
BANK10             100      0       0      26        0.0%
BITBANK9           100      0       0      23        0.0%
BANK9              100      0       0      24        0.0%
BITBANK8           100      0       0      21        0.0%
BANK8              100      0       0      22        0.0%
BITBANK7           100      0       0      18        0.0%
BANK7              100      0       0      19        0.0%
BITBANK6           100      0       0      16        0.0%
BANK6              100      0       0      17        0.0%
BITBANK5           100      0       0      14        0.0%
BANK5              100      0       0      15        0.0%
BITBANK4           100      0       0      12        0.0%
BANK4              100      0       0      13        0.0%
BITBANK3           100      0       0      10        0.0%
BANK3              100      0       0      11        0.0%
BITBANK2           100      0       0       8        0.0%
BANK2              100      0       0       9        0.0%
BITBANK1           100      0       0       6        0.0%
BANK1              100      0       0       7        0.0%
BITBANK15           80      0       0      35        0.0%
BANK15              80      0       0      36        0.0%
BITBANK0            80      0       0       4        0.0%
BANK0               80      0       B       5        8.6%
BITCOMRAM           7E      0       0       0        0.0%
COMRAM              7E     11      7D       1       99.2%
BITBIGSFRhhlhhh     1A      0       0      38        0.0%
BITBIGSFRhhh         D      0       0      37        0.0%
BITBIGSFRlhhll       6      0       0      44        0.0%
BITBIGSFRlhhlhh      4      0       0      42        0.0%
BITBIGSFRhhlhl       4      0       0      39        0.0%
BITBIGSFRllh         4      0       0      45        0.0%
BITBIGSFRlhhlhh      4      0       0      41        0.0%
BITBIGSFRlll         4      0       0      46        0.0%
BITBIGSFRlhhlhl      3      0       0      43        0.0%
BITBIGSFRhhlllh      1      0       0      40        0.0%
BIGSFR               0      0       0     200        0.0%
BITSFR               0      0       0     200        0.0%
SFR                  0      0       0     200        0.0%
STACK                0      0       0       2        0.0%
NULL                 0      0       0       0        0.0%
ABS                  0      0      88      20        0.0%
DATA                 0      0      88       3        0.0%
CODE                 0      0       0       0        0.0%


Microchip Technology PIC18 Macro Assembler V2.46 build 20240104201356 
Symbol Table                                                                                   Tue Oct 01 23:07:53 2024

                                 _SSPSTATbits 0FC7                                            bsr 0FE0  
                       ??_InterruptManagerLow 006D                                           l287 1374  
                                         l288 1376                                           l705 1288  
                                         l369 145A                                           l706 128A  
                                         l722 1156                                           l723 1158  
                                         l737 1302                                           l738 1304  
                             __end_of_I2C_ISR 1476                        ??_InterruptManagerHigh 006D  
                                         _ret 0048                           led_initialize@F3062 006C  
                       relay_initialize@F3060 0068                                           wreg 0FE8  
                                        l1022 146C                                          l1016 1460  
                                        l1017 1460                                          l4100 1254  
                                        l4102 125C                                          l4110 102A  
                                        l4120 10D4                                          l4112 1046  
                                        l4114 1066                                          l4122 1124  
                                        l5020 1140                                          l4124 112C  
                                        l4108 1016                                          l4140 12B8  
                                        l4118 107E                                          l4142 12D8  
                                        l4150 1316                                          l4144 12FE  
                                        l4136 128C                                          l4152 131A  
                                        l4160 1370                                          l4090 116E  
                                        l4138 129C                                          l4154 1350  
                                        l4242 144E                                          l4092 118A  
                                        l4156 1352                                          l4148 1306  
                                        l4244 144E                                          l4340 1468  
                                        l4158 1362                                          l4246 1458  
                                        l4342 1468                                          l4096 11AE  
                                        l4088 115A                                          l4098 1204  
                                        l4944 145C                                          STR_1 1011  
                                        _LATA 0F89                                          _LATB 0F8A  
                                        _LATC 0F8B                                          _LATD 0F8C  
                                        _LATE 0F8D                                          u2800 102A  
                                        u2801 1026                                          u2810 1046  
                                        u2811 1042                                          u2740 116E  
                                        u2820 1066                                          u2741 116A  
                                        u2821 1062                                          u2750 118A  
                                        u2830 107A                                          u2751 1186  
                                        u2831 1076                                          u2760 11AA  
                                        u2761 11A6                                          u2905 1360  
                                        u2907 1362                                          u2844 109C  
                                        u2860 129C                                          u2845 1098  
                                        u2861 1298                                          u2790 1272  
                                        u2774 11CC                                          u2854 10F2  
                                        u2870 12B8                                          u2791 126C  
                                        u2775 11C8                                          u2855 10EE  
                                        u2871 12B4                                          u2784 1222  
                                        u2880 12D8                                          u2785 121E  
                                        u2881 12D4                                          u2890 1316  
                                        u2891 1312                                          u2796 1274  
                                        _TMR2 0FCC                                          _lcd1 0031  
                                        _lcd2 001F                                          _btn1 003C  
                                        _led1 0049                                          _main 145C  
                             __end_of_SPI_ISR 1472                                          fsr2h 0FDA  
                                        indf2 0FDF                                          fsr1l 0FE1  
                                        fsr2l 0FD9                                          btemp 007E  
                      __end_of_led_initialize 1378                                          prodl 0FF3  
                                        start 0026                                  ___param_bank 0000  
                        _gpio_pin_write_logic 1016                                         ?_main 006D  
                    ??_application_initialize 007E                                         _EEADR 0FA9  
                                       i1l791 001E                                         i2l783 139A  
                                       i2l786 13BE                                         _RCREG 0FAE  
                         relay_turn_off@F3070 0066                                         _TMR0H 0FD7  
                                       _TMR1H 0FCF                                         _TMR0L 0FD6  
                                       _TMR1L 0FCE                                         _TMR3H 0FB3  
                                       _TMR3L 0FB2                                         _SPBRG 0FAF  
                                       _PORTA 0F80                                         _PORTB 0F81  
                                       _PORTC 0F82                                         _PORTD 0F83  
                                       _PORTE 0F84                                         _TRISA 0F92  
                                       _TRISB 0F93                                         _TRISC 0F94  
                                       _TRISD 0F95                                         _TRISE 0F96  
                                       _TXREG 0FAD                                         tablat 0FF5  
                                       ttemp5 007F                                         ttemp6 0082  
                                       ttemp7 0086                                         status 0FD8  
                                       wtemp8 007F                               ?_led_initialize 0079  
              ?_gpio_pin_direction_initialize 006E                               __initialization 140C  
                                __end_of_main 1468                         ?_gpio_pin_write_logic 006E  
                                   ??_I2C_ISR 006D                                 _lat_registers 000B  
                                      ??_main 007E                                  ??_I2C_BC_ISR 006D  
                               __activetblptr 0003                              led_turn_on@F3067 006B  
                                   ??_SPI_ISR 006D                                        _ADRESH 0FC4  
                                      _EEADRH 0FAA                                        _ADRESL 0FC3  
                                      _EEDATA 0FA8                                        _CCPR1H 0FBF  
                                      _CCPR1L 0FBE                                        _EECON2 0FA7  
                                      i2l1123 1470                                        i2l2304 1476  
                                      i2l1280 1474                                        i2l1285 1478  
                                      i2l2292 146E                                        i2l3430 1396  
                                      i2l3432 13A8                                        i2l2298 1472  
                                      i2l3434 13B6                                        i2l3426 137A  
                                      i2l3428 1388                   convert_uin8_to_string@F3227 0050  
                                      _SPBRGH 0FB0                                        _SSPADD 0FC8  
                                      _SSPBUF 0FC9                            __end_of_I2C_BC_ISR 147A  
                                      clear_0 1432                                        clear_1 143E  
                                      _relay1 0065                                        _motor1 003F  
                                      isa$std 0001   _I2C_Report_Receive_Overflow_InterruptHandle 0054  
                                __pdataCOMRAM 0001                                  __mediumconst 0000  
                                      tblptrh 0FF7                                        tblptrl 0FF6  
                                      tblptru 0FF8                                    __accesstop 0080  
                     __end_of__initialization 1444                                 ___rparam_used 0001  
                           led_initialize@led 0079                             led_initialize@pin 007C  
                           led_initialize@ret 007B                        ??_gpio_pin_write_logic 0070  
                              __pcstackCOMRAM 006D      gpio_pin_direction_initialize@_pin_config 006E  
                                  __pbssBANK0 0080                        _application_initialize 1468  
                 __end_of_InterruptManagerLow 0026                             led_turn_off@F3072 006A  
                                     _I2C_ISR 1472                  ecu_layer_initialize@ret_init 007D  
                               _keypad_values 1001                          led_turn_toggle@F3077 0069  
                                     _SPI_ISR 146E                              ??_led_initialize 007A  
                              _tris_registers 0015                                       __Hparam 0000  
                                     __Lparam 0000                          _SPI_InterruptHandler 005A  
                         _gpio_pin_initialize 128C                                  __psmallconst 1000  
                                     __pcinit 140C                                       __ramtop 1000  
                                     __ptext0 145C                                       __ptext1 1468  
                                     __ptext2 144E                                       __ptext3 1306  
                                     __ptext4 128C                                       __ptext5 1016  
                                     __ptext6 115A                                       __ptext9 146E  
                                   _T0CONbits 0FD5                                     _T1CONbits 0FCD  
             ??_gpio_pin_direction_initialize 006F                                     _T2CONbits 0FCA  
                                     _keypad1 0029                                     _T3CONbits 0FB1  
                        ?_gpio_pin_initialize 0076                                __pintcode_body 1378  
                        end_of_initialization 1444                                       int_func 1378  
                                   _RCSTAbits 0FAB                                       postdec1 0FE5  
                                     postdec2 0FDD                                       postinc0 0FEE  
                                     postinc2 0FDE                                     _TRISCbits 0F94  
                       ??_gpio_pin_initialize 0077                                   _CCP1CONbits 0FBD  
                                   _TXSTAbits 0FAC                            relay_turn_on@F3065 0067  
               convert_uint32_to_string@F3241 0080                 convert_uint16_to_string@F3234 004A  
                                 _BAUDCONbits 0FB8                                 __pidataCOMRAM 13C2  
                              _timer0_preload 0060                                _timer1_preload 005E  
                              _timer2_preload 0064                           start_initialization 140C  
                              _timer3_preload 005C  spi_Master_Mode_GPIO_PIN_Configurations@F3112 0047  
 spi_Slave_Mode_GPIO_PIN_Configurations@F3121 0044  spi_Master_Mode_GPIO_PIN_Configurations@F3114 0046  
 spi_Slave_Mode_GPIO_PIN_Configurations@F3123 0043  spi_Master_Mode_GPIO_PIN_Configurations@F3116 0045  
 spi_Slave_Mode_GPIO_PIN_Configurations@F3125 0042   spi_Slave_Mode_GPIO_PIN_Configurations@F3127 0041  
       __end_of_gpio_pin_direction_initialize 128C                 _gpio_pin_direction_initialize 115A  
                     ?_application_initialize 006D                                      ?_I2C_ISR 006D  
                __end_of_ecu_layer_initialize 145C                                   __pbssCOMRAM 004A  
 _I2C_Report_Write_Collision_InterruptHandler 0056                __end_of_application_initialize 146E  
                                    ?_SPI_ISR 006D                  __end_of_InterruptManagerHigh 13C2  
                                   __pintcode 0008               gpio_pin_write_logic@_pin_config 006E  
                                 __pintcodelo 0018                     gpio_pin_write_logic@logic 006F  
                                 __smallconst 1000                                      _IPR1bits 0F9F  
                                    _IPR2bits 0FA2                                      _PIE1bits 0F9D  
                                    _PIE2bits 0FA0                                      i2u170_40 1396  
                                    i2u170_41 1392                                      i2u171_40 13A8  
                                    i2u171_41 13A4                                      i2u172_40 13B6  
                                    i2u172_41 13B2                                      i2u169_40 1388  
                                    i2u169_41 1384                                      _PIR1bits 0F9E  
                                    _PIR2bits 0FA1                                      _RCONbits 0FD0  
            gpio_pin_direction_initialize@ret 0074              ccp1_Compare_Mode_Set_Value@F3097 0062  
                                  _ADCON0bits 0FC2                                    _ADCON1bits 0FC1  
                                  _ADCON2bits 0FC0                                    _I2C_BC_ISR 1476  
                      gpio_pin_initialize@ret 0078                       gpio_pin_write_logic@ret 0075  
                                   copy_data0 1420                          _ecu_layer_initialize 144E  
                                  _EECON1bits 0FA6                                      __Hrparam 0000  
                                    __Lrparam 0000                   __end_of_gpio_pin_initialize 1306  
              gpio_pin_initialize@_pin_config 0076                          _InterruptManagerHigh 0008  
                                    __ptext10 1472                                      __ptext11 1476  
                       ?_ecu_layer_initialize 006D                                      _segment1 0037  
                         _I2C_InterruptHandle 0058                                      isa$xinst 0000  
                                    int$flags 007E                                   ?_I2C_BC_ISR 006D  
                       __end_of_keypad_values 1011                                    _INTCONbits 0FF2  
                       ?_InterruptManagerHigh 006D                  __end_of_gpio_pin_write_logic 115A  
                                    intlevel1 0000                                      intlevel2 0000  
                         _InterruptManagerLow 0018                          ?_InterruptManagerLow 006D  
                              _port_registers 0001                                   _SSPCON1bits 0FC6  
                                 _SSPCON2bits 0FC5                        ??_ecu_layer_initialize 007D  
                              _led_initialize 1306  
