

Microchip MPLAB XC8 Assembler V2.46 build 20240104201356 
                                                                                               Sun Sep 15 12:09:53 2024

Microchip MPLAB XC8 C Compiler v2.46 (Free license) build 20240104201356 Og1 
     1                           	processor	18F4620
     2                           	fnconf	rparam,??,?,0
     3                           	pagewidth 120
     4                           	opt	flic
     5                           	psect	idataCOMRAM,global,class=CODE,delta=1,noexec
     6                           	psect	idataBANK0,global,class=CODE,delta=1,noexec
     7                           	psect	smallconst,global,reloc=2,class=SMALLCONST,delta=1,noexec
     8                           	psect	cinit,global,reloc=2,class=CODE,delta=1
     9                           	psect	bssCOMRAM,global,class=COMRAM,space=1,delta=1,lowdata,noexec
    10                           	psect	dataCOMRAM,global,class=COMRAM,space=1,delta=1,lowdata,noexec
    11                           	psect	bssBANK0,global,class=BANK0,space=1,delta=1,lowdata,noexec
    12                           	psect	dataBANK0,global,class=BANK0,space=1,delta=1,lowdata,noexec
    13                           	psect	cstackBANK0,global,class=BANK0,space=1,delta=1,lowdata,noexec
    14                           	psect	cstackCOMRAM,global,class=COMRAM,space=1,delta=1,lowdata,noexec
    15                           	psect	text0,global,reloc=2,class=CODE,delta=1
    16                           	psect	text1,global,reloc=2,class=CODE,delta=1
    17                           	psect	text2,global,reloc=2,class=CODE,delta=1
    18                           	psect	text3,global,reloc=2,class=CODE,delta=1
    19                           	psect	text4,global,reloc=2,class=CODE,delta=1,inline
    20                           	psect	text5,global,reloc=2,class=CODE,delta=1,inline
    21                           	psect	text6,global,reloc=2,class=CODE,delta=1,inline
    22                           	psect	text7,global,reloc=2,class=CODE,delta=1
    23                           	psect	text8,global,reloc=2,class=CODE,delta=1
    24                           	psect	text9,global,reloc=2,class=CODE,delta=1
    25                           	psect	text10,global,reloc=2,class=CODE,delta=1
    26                           	psect	text11,global,reloc=2,class=CODE,delta=1
    27                           	psect	text12,global,reloc=2,class=CODE,delta=1
    28                           	psect	intcodelo,global,reloc=2,class=CODE,delta=1
    29                           	psect	text14,global,reloc=2,class=CODE,delta=1
    30                           	psect	text15,global,reloc=2,class=CODE,delta=1
    31                           	psect	intcode,global,reloc=2,class=CODE,delta=1
    32                           	psect	intcode_body,global,reloc=2,class=CODE,delta=1
    33                           	psect	text17,global,reloc=2,class=CODE,delta=1
    34                           	psect	text18,global,reloc=2,class=CODE,delta=1
    35                           	psect	text19,global,reloc=2,class=CODE,delta=1
    36                           	psect	text20,global,reloc=2,class=CODE,delta=1
    37                           	psect	text21,global,reloc=2,class=CODE,delta=1
    38                           	psect	text22,global,reloc=2,class=CODE,delta=1
    39                           	psect	text23,global,reloc=2,class=CODE,delta=1
    40                           	psect	text24,global,reloc=2,class=CODE,delta=1
    41                           	psect	text25,global,reloc=2,class=CODE,delta=1
    42                           	psect	text26,global,reloc=2,class=CODE,delta=1
    43                           	psect	intsave_regs,global,class=BIGRAM,space=1,delta=1,noexec
    44                           	psect	rparam,global,class=COMRAM,space=1,delta=1,noexec
    45                           	psect	temp,global,ovrld,common,class=COMRAM,space=1,delta=1,lowdata
    46                           	psect	config,global,abs,ovrld,class=CONFIG,space=4,delta=1,noexec
    47   000000                     
    48                           ; Generated 17/10/2023 GMT
    49                           ; 
    50                           ; Copyright © 2023, Microchip Technology Inc. and its subsidiaries ("Microchip")
    51                           ; All rights reserved.
    52                           ; 
    53                           ; This software is developed by Microchip Technology Inc. and its subsidiaries ("Microch
      +                          ip").
    54                           ; 
    55                           ; Redistribution and use in source and binary forms, with or without modification, are
    56                           ; permitted provided that the following conditions are met:
    57                           ; 
    58                           ;     1. Redistributions of source code must retain the above copyright notice, this lis
      +                          t of
    59                           ;        conditions and the following disclaimer.
    60                           ; 
    61                           ;     2. Redistributions in binary form must reproduce the above copyright notice, this 
      +                          list
    62                           ;        of conditions and the following disclaimer in the documentation and/or other
    63                           ;        materials provided with the distribution. Publication is not required when
    64                           ;        this file is used in an embedded application.
    65                           ; 
    66                           ;     3. Microchip's name may not be used to endorse or promote products derived from th
      +                          is
    67                           ;        software without specific prior written permission.
    68                           ; 
    69                           ; THIS SOFTWARE IS PROVIDED BY MICROCHIP "AS IS" AND ANY EXPRESS OR IMPLIED WARRANTIES,
    70                           ; INCLUDING, BUT NOT LIMITED TO, THE IMPLIED WARRANTIES OF MERCHANTABILITY AND FITNESS F
      +                          OR
    71                           ; PURPOSE ARE DISCLAIMED.  IN NO EVENT SHALL MICROCHIP BE LIABLE FOR ANY DIRECT, INDIREC
      +                          T,
    72                           ; INCIDENTAL, SPECIAL, EXEMPLARY, OR CONSEQUENTIAL DAMAGES (INCLUDING BUT NOT LIMITED TO
    73                           ; PROCUREMENT OF SUBSTITUTE GOODS OR SERVICES; LOSS OF USE, DATA OR PROFITS; OR BUSINESS
    74                           ; INTERRUPTION) HOWSOEVER CAUSED AND ON ANY THEORY OF LIABILITY, WHETHER IN CONTRACT, ST
      +                          RICT
    75                           ; LIABILITY, OR TORT (INCLUDING NEGLIGENCE OR OTHERWISE) ARISING IN ANY WAY OUT OF THE U
      +                          SE OF
    76                           ; THIS SOFTWARE, EVEN IF ADVISED OF THE POSSIBILITY OF SUCH DAMAGE.
    77                           ; 
    78                           ; 
    79                           ; Code-generator required, PIC18F4620 Definitions
    80                           ; 
    81                           ; SFR Addresses
    82   000000                     
    83                           	psect	idataCOMRAM
    84   001A12                     __pidataCOMRAM:
    85                           	callstack 0
    86                           
    87                           ;initializer for _lat_registers
    88   001A12  89                 	db	137
    89   001A13  0F                 	db	15
    90   001A14  8A                 	db	138
    91   001A15  0F                 	db	15
    92   001A16  8B                 	db	139
    93   001A17  0F                 	db	15
    94   001A18  8C                 	db	140
    95   001A19  0F                 	db	15
    96   001A1A  8D                 	db	141
    97   001A1B  0F                 	db	15
    98                           
    99                           ;initializer for _tris_registers
   100   001A1C  92                 	db	146
   101   001A1D  0F                 	db	15
   102   001A1E  93                 	db	147
   103   001A1F  0F                 	db	15
   104   001A20  94                 	db	148
   105   001A21  0F                 	db	15
   106   001A22  95                 	db	149
   107   001A23  0F                 	db	15
   108   001A24  96                 	db	150
   109   001A25  0F                 	db	15
   110                           
   111                           ;initializer for _segment1
   112   001A26  02                 	db	2
   113   001A27  0A                 	db	10
   114   001A28  12                 	db	18
   115   001A29  1A                 	db	26
   116   001A2A  00                 	db	0
   117                           
   118                           ;initializer for _btn1
   119   001A2B  4B                 	db	75
   120   001A2C  00                 	db	0
   121   001A2D  01                 	db	1
   122                           
   123                           ;initializer for _motor1
   124   001A2E  02                 	db	2
   125   001A2F  0A                 	db	10
   126                           
   127                           ;initializer for _ret
   128   001A30  01                 	db	1
   129                           
   130                           ;initializer for _counter
   131   001A31  FE                 	db	low _TIMER0_APP_ISR
   132   001A32  1A                 	db	high _TIMER0_APP_ISR
   133   001A33  01                 	db	1
   134   001A34  00                 	db	0
   135   001A35  0000               	dw	0
   136   001A37  02                 	db	2
   137                           
   138                           ;initializer for _led1
   139   001A38  02                 	db	2
   140                           
   141                           	psect	idataBANK0
   142   001A39                     __pidataBANK0:
   143                           	callstack 0
   144                           
   145                           ;initializer for _port_registers
   146   001A39  80                 	db	128
   147   001A3A  0F                 	db	15
   148   001A3B  81                 	db	129
   149   001A3C  0F                 	db	15
   150   001A3D  82                 	db	130
   151   001A3E  0F                 	db	15
   152   001A3F  83                 	db	131
   153   001A40  0F                 	db	15
   154   001A41  84                 	db	132
   155   001A42  0F                 	db	15
   156                           
   157                           ;initializer for _lcd2
   158   001A43  32                 	db	50
   159   001A44  3A                 	db	58
   160   001A45  03                 	db	3
   161   001A46  0B                 	db	11
   162   001A47  13                 	db	19
   163   001A48  1B                 	db	27
   164   001A49  23                 	db	35
   165   001A4A  2B                 	db	43
   166   001A4B  33                 	db	51
   167   001A4C  3B                 	db	59
   168                           
   169                           ;initializer for _keypad1
   170   001A4D  02                 	db	2
   171   001A4E  0A                 	db	10
   172   001A4F  12                 	db	18
   173   001A50  1A                 	db	26
   174   001A51  62                 	db	98
   175   001A52  6A                 	db	106
   176   001A53  72                 	db	114
   177   001A54  7A                 	db	122
   178                           
   179                           ;initializer for _lcd1
   180   001A55  02                 	db	2
   181   001A56  0A                 	db	10
   182   001A57  12                 	db	18
   183   001A58  1A                 	db	26
   184   001A59  22                 	db	34
   185   001A5A  2A                 	db	42
   186                           
   187                           	psect	smallconst
   188   001000                     __psmallconst:
   189                           	callstack 0
   190   001000  00                 	db	0
   191   001001                     _keypad_values:
   192                           	callstack 0
   193   001001  37                 	db	55
   194   001002  38                 	db	56
   195   001003  39                 	db	57
   196   001004  2F                 	db	47
   197   001005  34                 	db	52
   198   001006  35                 	db	53
   199   001007  36                 	db	54
   200   001008  2A                 	db	42
   201   001009  31                 	db	49
   202   00100A  32                 	db	50
   203   00100B  33                 	db	51
   204   00100C  2D                 	db	45
   205   00100D  63                 	db	99
   206   00100E  30                 	db	48
   207   00100F  3D                 	db	61
   208   001010  2B                 	db	43
   209   001011                     __end_of_keypad_values:
   210                           	callstack 0
   211   000000                     _TMR0L	set	4054
   212   000000                     _TMR0H	set	4055
   213   000000                     _INTCON2bits	set	4081
   214   000000                     _EECON2	set	4007
   215   000000                     _ADRESL	set	4035
   216   000000                     _ADRESH	set	4036
   217   000000                     _TRISD	set	3989
   218   000000                     _TRISC	set	3988
   219   000000                     _TRISB	set	3987
   220   000000                     _TRISE	set	3990
   221   000000                     _PORTBbits	set	3969
   222   000000                     _PIE1bits	set	3997
   223   000000                     _PIR1bits	set	3998
   224   000000                     _IPR1bits	set	3999
   225   000000                     _ADCON2bits	set	4032
   226   000000                     _ADCON1bits	set	4033
   227   000000                     _ADCON0bits	set	4034
   228   000000                     _PORTE	set	3972
   229   000000                     _PORTD	set	3971
   230   000000                     _PORTC	set	3970
   231   000000                     _PORTB	set	3969
   232   000000                     _PORTA	set	3968
   233   000000                     _LATA	set	3977
   234   000000                     _TRISA	set	3986
   235   000000                     _EECON1bits	set	4006
   236   000000                     _EEDATA	set	4008
   237   000000                     _EEADR	set	4009
   238   000000                     _EEADRH	set	4010
   239   000000                     _RCONbits	set	4048
   240   000000                     _INTCON3bits	set	4080
   241   000000                     _INTCONbits	set	4082
   242   000000                     _LATE	set	3981
   243   000000                     _LATD	set	3980
   244   000000                     _LATC	set	3979
   245   000000                     _LATB	set	3978
   246   000000                     _T0CONbits	set	4053
   247   001011                     STR_1:
   248   001011  25                 	db	37
   249   001012  69                 	db	105	;'i'
   250   001013  00                 	db	0
   251   001014  00                 	db	0	; dummy byte at the end
   252   000000                     
   253                           ; #config settings
   254                           
   255                           	psect	cinit
   256   00189E                     __pcinit:
   257                           	callstack 0
   258   00189E                     start_initialization:
   259                           	callstack 0
   260   00189E                     __initialization:
   261                           	callstack 0
   262                           
   263                           ; Initialize objects allocated to BANK0 (34 bytes)
   264                           ; load TBLPTR registers with __pidataBANK0
   265   00189E  0E39               	movlw	low __pidataBANK0
   266   0018A0  6EF6               	movwf	tblptrl,c
   267   0018A2  0E1A               	movlw	high __pidataBANK0
   268   0018A4  6EF7               	movwf	tblptrh,c
   269   0018A6  0E00               	movlw	low (__pidataBANK0 shr (0+16))
   270   0018A8  6EF8               	movwf	tblptru,c
   271   0018AA  EE00  F080         	lfsr	0,__pdataBANK0
   272   0018AE  EE10 F022          	lfsr	1,34
   273   0018B2                     copy_data0:
   274   0018B2  0009               	tblrd		*+
   275   0018B4  CFF5 FFEE          	movff	tablat,postinc0
   276   0018B8  50E5               	movf	postdec1,w,c
   277   0018BA  50E1               	movf	fsr1l,w,c
   278   0018BC  E1FA               	bnz	copy_data0
   279                           
   280                           ; Initialize objects allocated to COMRAM (39 bytes)
   281                           ; load TBLPTR registers with __pidataCOMRAM
   282   0018BE  0E12               	movlw	low __pidataCOMRAM
   283   0018C0  6EF6               	movwf	tblptrl,c
   284   0018C2  0E1A               	movlw	high __pidataCOMRAM
   285   0018C4  6EF7               	movwf	tblptrh,c
   286   0018C6  0E00               	movlw	low (__pidataCOMRAM shr (0+16))
   287   0018C8  6EF8               	movwf	tblptru,c
   288   0018CA  EE00  F035         	lfsr	0,__pdataCOMRAM
   289   0018CE  EE10 F027          	lfsr	1,39
   290   0018D2                     copy_data1:
   291   0018D2  0009               	tblrd		*+
   292   0018D4  CFF5 FFEE          	movff	tablat,postinc0
   293   0018D8  50E5               	movf	postdec1,w,c
   294   0018DA  50E1               	movf	fsr1l,w,c
   295   0018DC  E1FA               	bnz	copy_data1
   296                           
   297                           ; Clear objects allocated to BANK0 (11 bytes)
   298   0018DE  EE00  F0AF         	lfsr	0,__pbssBANK0
   299   0018E2  0E0B               	movlw	11
   300   0018E4                     clear_0:
   301   0018E4  6AEE               	clrf	postinc0,c
   302   0018E6  06E8               	decf	wreg,f,c
   303   0018E8  E1FD               	bnz	clear_0
   304                           
   305                           ; Clear objects allocated to COMRAM (52 bytes)
   306   0018EA  EE00  F001         	lfsr	0,__pbssCOMRAM
   307   0018EE  0E34               	movlw	52
   308   0018F0                     clear_1:
   309   0018F0  6AEE               	clrf	postinc0,c
   310   0018F2  06E8               	decf	wreg,f,c
   311   0018F4  E1FD               	bnz	clear_1
   312   0018F6                     end_of_initialization:
   313                           	callstack 0
   314   0018F6                     __end_of__initialization:
   315                           	callstack 0
   316   0018F6  906F               	bcf	int$flags,0,c	;clear compiler interrupt flag (level 1)
   317   0018F8  926F               	bcf	int$flags,1,c	;clear compiler interrupt flag (level 2)
   318   0018FA  0100               	movlb	0
   319   0018FC  EF2E  F00D         	goto	_main	;jump to C main() function
   320                           
   321                           	psect	bssCOMRAM
   322   000001                     __pbssCOMRAM:
   323                           	callstack 0
   324   000001                     	ds	6
   325   000007                     	ds	4
   326   00000B                     _timer0_preload:
   327                           	callstack 0
   328   00000B                     	ds	2
   329   00000D                     _TIMER0_InterruptHandler:
   330                           	callstack 0
   331   00000D                     	ds	2
   332   00000F                     _RB7_High_InterruptHandler:
   333                           	callstack 0
   334   00000F                     	ds	2
   335   000011                     _RB7_Low_InterruptHandler:
   336                           	callstack 0
   337   000011                     	ds	2
   338   000013                     _RB6_High_InterruptHandler:
   339                           	callstack 0
   340   000013                     	ds	2
   341   000015                     _RB6_Low_InterruptHandler:
   342                           	callstack 0
   343   000015                     	ds	2
   344   000017                     _RB5_High_InterruptHandler:
   345                           	callstack 0
   346   000017                     	ds	2
   347   000019                     _RB5_Low_InterruptHandler:
   348                           	callstack 0
   349   000019                     	ds	2
   350   00001B                     _RB4_High_InterruptHandler:
   351                           	callstack 0
   352   00001B                     	ds	2
   353   00001D                     _RB4_Low_InterruptHandler:
   354                           	callstack 0
   355   00001D                     	ds	2
   356   00001F                     _INT2_InterruptHandler:
   357                           	callstack 0
   358   00001F                     	ds	2
   359   000021                     _INT1_InterruptHandler:
   360                           	callstack 0
   361   000021                     	ds	2
   362   000023                     _INT0_InterruptHandler:
   363                           	callstack 0
   364   000023                     	ds	2
   365   000025                     _ADC_InterruptHandler:
   366                           	callstack 0
   367   000025                     	ds	2
   368   000027                     _RB7_flag:
   369                           	callstack 0
   370   000027                     	ds	1
   371   000028                     _RB6_flag:
   372                           	callstack 0
   373   000028                     	ds	1
   374   000029                     _RB5_flag:
   375                           	callstack 0
   376   000029                     	ds	1
   377   00002A                     _RB4_flag:
   378                           	callstack 0
   379   00002A                     	ds	1
   380   00002B                     _relay1:
   381                           	callstack 0
   382   00002B                     	ds	1
   383   00002C                     relay_turn_off@F3070:
   384                           	callstack 0
   385   00002C                     	ds	1
   386   00002D                     relay_turn_on@F3065:
   387                           	callstack 0
   388   00002D                     	ds	1
   389   00002E                     relay_initialize@F3060:
   390                           	callstack 0
   391   00002E                     	ds	1
   392   00002F                     led_turn_toggle@F3077:
   393                           	callstack 0
   394   00002F                     	ds	1
   395   000030                     led_turn_off@F3072:
   396                           	callstack 0
   397   000030                     	ds	1
   398   000031                     led_turn_on@F3067:
   399                           	callstack 0
   400   000031                     	ds	1
   401   000032                     led_initialize@F3062:
   402                           	callstack 0
   403   000032                     	ds	1
   404   000033                     _value:
   405                           	callstack 0
   406   000033                     	ds	2
   407                           
   408                           	psect	dataCOMRAM
   409   000035                     __pdataCOMRAM:
   410                           	callstack 0
   411   000035                     _lat_registers:
   412                           	callstack 0
   413   000035                     	ds	10
   414   00003F                     _tris_registers:
   415                           	callstack 0
   416   00003F                     	ds	10
   417   000049                     _segment1:
   418                           	callstack 0
   419   000049                     	ds	5
   420   00004E                     _btn1:
   421                           	callstack 0
   422   00004E                     	ds	3
   423   000051                     _motor1:
   424                           	callstack 0
   425   000051                     	ds	2
   426   000053                     _ret:
   427                           	callstack 0
   428   000053                     	ds	1
   429   000054                     _counter:
   430                           	callstack 0
   431   000054                     	ds	7
   432   00005B                     _led1:
   433                           	callstack 0
   434   00005B                     	ds	1
   435                           
   436                           	psect	bssBANK0
   437   0000AF                     __pbssBANK0:
   438                           	callstack 0
   439   0000AF                     	ds	11
   440                           
   441                           	psect	dataBANK0
   442   000080                     __pdataBANK0:
   443                           	callstack 0
   444   000080                     _port_registers:
   445                           	callstack 0
   446   000080                     	ds	10
   447   00008A                     _lcd2:
   448                           	callstack 0
   449   00008A                     	ds	10
   450   000094                     _keypad1:
   451                           	callstack 0
   452   000094                     	ds	8
   453   00009C                     _lcd1:
   454                           	callstack 0
   455   00009C                     	ds	6
   456                           
   457                           	psect	cstackBANK0
   458   0000A2                     __pcstackBANK0:
   459                           	callstack 0
   460   0000A2                     ??_gpio_pin_direction_initialize:
   461   0000A2                     ??_gpio_pin_write_logic:
   462   0000A2                     ??_timer0_Read_Value:
   463   0000A2                     ??_timer0_Init:
   464                           
   465                           ; 1 bytes @ 0x0
   466   0000A2                     	ds	2
   467   0000A4                     timer0_Init@ret:
   468                           	callstack 0
   469   0000A4                     timer0_Read_Value@ret:
   470                           	callstack 0
   471                           
   472                           ; 1 bytes @ 0x2
   473   0000A4                     	ds	1
   474   0000A5                     timer0_Read_Value@l_tmr0l:
   475                           	callstack 0
   476                           
   477                           ; 1 bytes @ 0x3
   478   0000A5                     	ds	1
   479   0000A6                     timer0_Read_Value@l_tmr0h:
   480                           	callstack 0
   481                           
   482                           ; 1 bytes @ 0x4
   483   0000A6                     	ds	1
   484   0000A7                     gpio_pin_initialize@_pin_config:
   485                           	callstack 0
   486                           
   487                           ; 1 bytes @ 0x5
   488   0000A7                     	ds	1
   489   0000A8                     ??_gpio_pin_initialize:
   490                           
   491                           ; 1 bytes @ 0x6
   492   0000A8                     	ds	1
   493   0000A9                     gpio_pin_initialize@ret:
   494                           	callstack 0
   495                           
   496                           ; 1 bytes @ 0x7
   497   0000A9                     	ds	1
   498   0000AA                     led_initialize@led:
   499                           	callstack 0
   500                           
   501                           ; 1 bytes @ 0x8
   502   0000AA                     	ds	1
   503   0000AB                     ??_led_initialize:
   504                           
   505                           ; 1 bytes @ 0x9
   506   0000AB                     	ds	1
   507   0000AC                     led_initialize@ret:
   508                           	callstack 0
   509                           
   510                           ; 1 bytes @ 0xA
   511   0000AC                     	ds	1
   512   0000AD                     led_initialize@pin:
   513                           	callstack 0
   514                           
   515                           ; 1 bytes @ 0xB
   516   0000AD                     	ds	1
   517   0000AE                     ecu_layer_initialize@ret_init:
   518                           	callstack 0
   519                           
   520                           ; 1 bytes @ 0xC
   521   0000AE                     	ds	1
   522                           
   523                           	psect	cstackCOMRAM
   524   00005C                     __pcstackCOMRAM:
   525                           	callstack 0
   526   00005C                     gpio_pin_toggle_logic@_pin_config:
   527                           	callstack 0
   528   00005C                     RB4_ISR@source:
   529                           	callstack 0
   530   00005C                     RB5_ISR@source:
   531                           	callstack 0
   532   00005C                     RB6_ISR@source:
   533                           	callstack 0
   534   00005C                     RB7_ISR@source:
   535                           	callstack 0
   536                           
   537                           ; 1 bytes @ 0x0
   538   00005C                     	ds	1
   539   00005D                     ??_gpio_pin_toggle_logic:
   540                           
   541                           ; 1 bytes @ 0x1
   542   00005D                     	ds	4
   543   000061                     gpio_pin_toggle_logic@ret:
   544                           	callstack 0
   545                           
   546                           ; 1 bytes @ 0x5
   547   000061                     	ds	1
   548   000062                     led_turn_toggle@led:
   549                           	callstack 0
   550                           
   551                           ; 1 bytes @ 0x6
   552   000062                     	ds	1
   553   000063                     ??_led_turn_toggle:
   554                           
   555                           ; 1 bytes @ 0x7
   556   000063                     	ds	1
   557   000064                     led_turn_toggle@pin:
   558                           	callstack 0
   559                           
   560                           ; 1 bytes @ 0x8
   561   000064                     	ds	1
   562   000065                     ??_InterruptManagerHigh:
   563                           
   564                           ; 1 bytes @ 0x9
   565   000065                     	ds	6
   566   00006B                     ??_InterruptManagerLow:
   567                           
   568                           ; 1 bytes @ 0xF
   569   00006B                     	ds	1
   570   00006C                     gpio_pin_direction_initialize@_pin_config:
   571                           	callstack 0
   572   00006C                     gpio_pin_write_logic@_pin_config:
   573                           	callstack 0
   574   00006C                     timer0_Read_Value@_timer:
   575                           	callstack 0
   576   00006C                     timer0_Prescaler_Config@_timer:
   577                           	callstack 0
   578   00006C                     timer0_Mode_Select@_timer:
   579                           	callstack 0
   580   00006C                     timer0_Register_Size_Config@_timer:
   581                           	callstack 0
   582                           
   583                           ; 1 bytes @ 0x10
   584   00006C                     	ds	1
   585   00006D                     ??_timer0_Prescaler_Config:
   586   00006D                     gpio_pin_direction_initialize@ret:
   587                           	callstack 0
   588   00006D                     gpio_pin_write_logic@logic:
   589                           	callstack 0
   590   00006D                     timer0_Read_Value@_value:
   591                           	callstack 0
   592                           
   593                           ; 1 bytes @ 0x11
   594   00006D                     	ds	1
   595   00006E                     gpio_pin_write_logic@ret:
   596                           	callstack 0
   597   00006E                     timer0_Init@_timer:
   598                           	callstack 0
   599                           
   600                           ; 1 bytes @ 0x12
   601   00006E                     	ds	1
   602   00006F                     
   603                           ; 1 bytes @ 0x13
   604 ;;
   605 ;;Main: autosize = 0, tempsize = 0, incstack = 0, save=0
   606 ;;
   607 ;; *************** function _main *****************
   608 ;; Defined at:
   609 ;;		line 39 in file "Application1.c"
   610 ;; Parameters:    Size  Location     Type
   611 ;;		None
   612 ;; Auto vars:     Size  Location     Type
   613 ;;		None
   614 ;; Return value:  Size  Location     Type
   615 ;;                  2  969[None  ] int 
   616 ;; Registers used:
   617 ;;		wreg, fsr2l, fsr2h, status,2, status,0, prodl, prodh, cstack
   618 ;; Tracked objects:
   619 ;;		On entry : 0/0
   620 ;;		On exit  : 0/0
   621 ;;		Unchanged: 0/0
   622 ;; Data sizes:     COMRAM   BANK0   BANK1   BANK2   BANK3   BANK4   BANK5   BANK6   BANK7   BANK8   BANK9  BANK10  BANK1
      +1  BANK12  BANK13  BANK14  BANK15
   623 ;;      Params:         0       0       0       0       0       0       0       0       0       0       0       0       
      +0       0       0       0       0
   624 ;;      Locals:         0       0       0       0       0       0       0       0       0       0       0       0       
      +0       0       0       0       0
   625 ;;      Temps:          0       0       0       0       0       0       0       0       0       0       0       0       
      +0       0       0       0       0
   626 ;;      Totals:         0       0       0       0       0       0       0       0       0       0       0       0       
      +0       0       0       0       0
   627 ;;Total ram usage:        0 bytes
   628 ;; Hardware stack levels required when called: 12
   629 ;; This function calls:
   630 ;;		_application_initialize
   631 ;;		_timer0_Read_Value
   632 ;; This function is called by:
   633 ;;		Startup code after reset
   634 ;; This function uses a non-reentrant model
   635 ;;
   636                           
   637                           	psect	text0
   638   001A5C                     __ptext0:
   639                           	callstack 0
   640   001A5C                     _main:
   641                           	callstack 19
   642   001A5C                     
   643                           ;Application1.c: 41:     application_initialize();
   644   001A5C  EC78  F00D         	call	_application_initialize	;wreg free
   645   001A60                     l5600:
   646                           
   647                           ;Application1.c: 44:     {;Application1.c: 45:         ret = timer0_Read_Value(&counter,
      +                          &value);
   648   001A60  0E54               	movlw	low _counter
   649   001A62  6E6C               	movwf	timer0_Read_Value@_timer^0,c
   650   001A64  0E33               	movlw	low _value
   651   001A66  6E6D               	movwf	timer0_Read_Value@_value^0,c
   652   001A68  ECA9  F00C         	call	_timer0_Read_Value	;wreg free
   653   001A6C  6E53               	movwf	_ret^0,c
   654   001A6E  EF30  F00D         	goto	l5600
   655   001A72  EF33  F000         	goto	start
   656   001A76                     __end_of_main:
   657                           	callstack 0
   658                           
   659 ;; *************** function _timer0_Read_Value *****************
   660 ;; Defined at:
   661 ;;		line 108 in file "MCAL_Layer/Timer0/mcal_timer0.c"
   662 ;; Parameters:    Size  Location     Type
   663 ;;  _timer          1   16[COMRAM] PTR const struct .
   664 ;;		 -> counter(7), 
   665 ;;  _value          1   17[COMRAM] PTR unsigned short 
   666 ;;		 -> value(2), 
   667 ;; Auto vars:     Size  Location     Type
   668 ;;  l_tmr0h         1    4[BANK0 ] unsigned char 
   669 ;;  l_tmr0l         1    3[BANK0 ] unsigned char 
   670 ;;  ret             1    2[BANK0 ] unsigned char 
   671 ;; Return value:  Size  Location     Type
   672 ;;                  1    wreg      unsigned char 
   673 ;; Registers used:
   674 ;;		wreg, fsr2l, fsr2h, status,2, status,0
   675 ;; Tracked objects:
   676 ;;		On entry : 0/0
   677 ;;		On exit  : 0/0
   678 ;;		Unchanged: 0/0
   679 ;; Data sizes:     COMRAM   BANK0   BANK1   BANK2   BANK3   BANK4   BANK5   BANK6   BANK7   BANK8   BANK9  BANK10  BANK1
      +1  BANK12  BANK13  BANK14  BANK15
   680 ;;      Params:         2       0       0       0       0       0       0       0       0       0       0       0       
      +0       0       0       0       0
   681 ;;      Locals:         0       3       0       0       0       0       0       0       0       0       0       0       
      +0       0       0       0       0
   682 ;;      Temps:          0       2       0       0       0       0       0       0       0       0       0       0       
      +0       0       0       0       0
   683 ;;      Totals:         2       5       0       0       0       0       0       0       0       0       0       0       
      +0       0       0       0       0
   684 ;;Total ram usage:        7 bytes
   685 ;; Hardware stack levels used: 1
   686 ;; Hardware stack levels required when called: 7
   687 ;; This function calls:
   688 ;;		Nothing
   689 ;; This function is called by:
   690 ;;		_main
   691 ;; This function uses a non-reentrant model
   692 ;;
   693                           
   694                           	psect	text1
   695   001952                     __ptext1:
   696                           	callstack 0
   697   001952                     _timer0_Read_Value:
   698                           	callstack 23
   699   001952                     
   700                           ;MCAL_Layer/Timer0/mcal_timer0.c: 108: Std_ReturnType timer0_Read_Value(const timer0_con
      +                          fig_t *_timer, uint16 *_value);MCAL_Layer/Timer0/mcal_timer0.c: 109: {;MCAL_Layer/Timer0
      +                          /mcal_timer0.c: 110:     Std_ReturnType ret = (Std_ReturnType)0x01;
   701   001952  0E01               	movlw	1
   702   001954  0100               	movlb	0	; () banked
   703   001956  6FA4               	movwf	timer0_Read_Value@ret& (0+255),b
   704   001958  0E00               	movlw	0
   705   00195A  6FA6               	movwf	timer0_Read_Value@l_tmr0h& (0+255),b
   706                           
   707                           ;MCAL_Layer/Timer0/mcal_timer0.c: 113:     if (((void*)0) != _timer)
   708   00195C  506C               	movf	timer0_Read_Value@_timer^0,w,c
   709   00195E  B4D8               	btfsc	status,2,c
   710   001960  EFB4  F00C         	goto	u4311
   711   001964  EFB6  F00C         	goto	u4310
   712   001968                     u4311:
   713   001968  EFCD  F00C         	goto	l5024
   714   00196C                     u4310:
   715   00196C                     
   716                           ; BSR set to: 0
   717                           ;MCAL_Layer/Timer0/mcal_timer0.c: 114:     {;MCAL_Layer/Timer0/mcal_timer0.c: 115:      
      +                             l_tmr0l = TMR0L;
   718   00196C  CFD6 F0A5          	movff	4054,timer0_Read_Value@l_tmr0l	;volatile
   719                           
   720                           ;MCAL_Layer/Timer0/mcal_timer0.c: 116:         l_tmr0h = TMR0H;
   721   001970  CFD7 F0A6          	movff	4055,timer0_Read_Value@l_tmr0h	;volatile
   722   001974                     
   723                           ; BSR set to: 0
   724                           ;MCAL_Layer/Timer0/mcal_timer0.c: 117:         *_value = (uint16) ((l_tmr0h << 8) + l_tm
      +                          r0l);
   725   001974  51A5               	movf	timer0_Read_Value@l_tmr0l& (0+255),w,b
   726   001976  C0A6  F0A2         	movff	timer0_Read_Value@l_tmr0h,??_timer0_Read_Value
   727   00197A  6BA3               	clrf	(??_timer0_Read_Value+1)& (0+255),b
   728   00197C  C0A2  F0A3         	movff	??_timer0_Read_Value,??_timer0_Read_Value+1
   729   001980  6BA2               	clrf	??_timer0_Read_Value& (0+255),b
   730   001982  27A2               	addwf	??_timer0_Read_Value& (0+255),f,b
   731   001984  0E00               	movlw	0
   732   001986  23A3               	addwfc	(??_timer0_Read_Value+1)& (0+255),f,b
   733   001988  506D               	movf	timer0_Read_Value@_value^0,w,c
   734   00198A  6ED9               	movwf	fsr2l,c
   735   00198C  6ADA               	clrf	fsr2h,c
   736   00198E  C0A2  FFDE         	movff	??_timer0_Read_Value,postinc2
   737   001992  C0A3  FFDD         	movff	??_timer0_Read_Value+1,postdec2
   738                           
   739                           ;MCAL_Layer/Timer0/mcal_timer0.c: 118:     }
   740   001996  EFCF  F00C         	goto	l1024
   741   00199A                     l5024:
   742                           
   743                           ; BSR set to: 0
   744   00199A  0E00               	movlw	0
   745   00199C  6FA4               	movwf	timer0_Read_Value@ret& (0+255),b
   746   00199E                     l1024:
   747                           
   748                           ; BSR set to: 0
   749                           ;MCAL_Layer/Timer0/mcal_timer0.c: 121:     return ret;
   750   00199E  51A4               	movf	timer0_Read_Value@ret& (0+255),w,b
   751   0019A0                     
   752                           ; BSR set to: 0
   753   0019A0  0012               	return		;funcret
   754   0019A2                     __end_of_timer0_Read_Value:
   755                           	callstack 0
   756                           
   757 ;; *************** function _application_initialize *****************
   758 ;; Defined at:
   759 ;;		line 51 in file "Application1.c"
   760 ;; Parameters:    Size  Location     Type
   761 ;;		None
   762 ;; Auto vars:     Size  Location     Type
   763 ;;  ret_init        1    0        unsigned char 
   764 ;; Return value:  Size  Location     Type
   765 ;;                  1    wreg      void 
   766 ;; Registers used:
   767 ;;		wreg, fsr2l, fsr2h, status,2, status,0, prodl, prodh, cstack
   768 ;; Tracked objects:
   769 ;;		On entry : 0/0
   770 ;;		On exit  : 0/0
   771 ;;		Unchanged: 0/0
   772 ;; Data sizes:     COMRAM   BANK0   BANK1   BANK2   BANK3   BANK4   BANK5   BANK6   BANK7   BANK8   BANK9  BANK10  BANK1
      +1  BANK12  BANK13  BANK14  BANK15
   773 ;;      Params:         0       0       0       0       0       0       0       0       0       0       0       0       
      +0       0       0       0       0
   774 ;;      Locals:         0       0       0       0       0       0       0       0       0       0       0       0       
      +0       0       0       0       0
   775 ;;      Temps:          0       0       0       0       0       0       0       0       0       0       0       0       
      +0       0       0       0       0
   776 ;;      Totals:         0       0       0       0       0       0       0       0       0       0       0       0       
      +0       0       0       0       0
   777 ;;Total ram usage:        0 bytes
   778 ;; Hardware stack levels used: 1
   779 ;; Hardware stack levels required when called: 11
   780 ;; This function calls:
   781 ;;		_ecu_layer_initialize
   782 ;;		_timer0_Init
   783 ;; This function is called by:
   784 ;;		_main
   785 ;; This function uses a non-reentrant model
   786 ;;
   787                           
   788                           	psect	text2
   789   001AF0                     __ptext2:
   790                           	callstack 0
   791   001AF0                     _application_initialize:
   792                           	callstack 19
   793   001AF0  EC6F  F00D         	call	_ecu_layer_initialize	;wreg free
   794   001AF4  0E54               	movlw	low _counter
   795   001AF6  6E6E               	movwf	timer0_Init@_timer^0,c
   796   001AF8  ECA7  F00A         	call	_timer0_Init	;wreg free
   797   001AFC  0012               	return		;funcret
   798   001AFE                     __end_of_application_initialize:
   799                           	callstack 0
   800                           
   801 ;; *************** function _timer0_Init *****************
   802 ;; Defined at:
   803 ;;		line 28 in file "MCAL_Layer/Timer0/mcal_timer0.c"
   804 ;; Parameters:    Size  Location     Type
   805 ;;  _timer          1   18[COMRAM] PTR const struct .
   806 ;;		 -> counter(7), 
   807 ;; Auto vars:     Size  Location     Type
   808 ;;  ret             1    2[BANK0 ] unsigned char 
   809 ;; Return value:  Size  Location     Type
   810 ;;                  1    wreg      unsigned char 
   811 ;; Registers used:
   812 ;;		wreg, fsr2l, fsr2h, status,2, status,0, cstack
   813 ;; Tracked objects:
   814 ;;		On entry : 0/0
   815 ;;		On exit  : 0/0
   816 ;;		Unchanged: 0/0
   817 ;; Data sizes:     COMRAM   BANK0   BANK1   BANK2   BANK3   BANK4   BANK5   BANK6   BANK7   BANK8   BANK9  BANK10  BANK1
      +1  BANK12  BANK13  BANK14  BANK15
   818 ;;      Params:         1       0       0       0       0       0       0       0       0       0       0       0       
      +0       0       0       0       0
   819 ;;      Locals:         0       1       0       0       0       0       0       0       0       0       0       0       
      +0       0       0       0       0
   820 ;;      Temps:          0       2       0       0       0       0       0       0       0       0       0       0       
      +0       0       0       0       0
   821 ;;      Totals:         1       3       0       0       0       0       0       0       0       0       0       0       
      +0       0       0       0       0
   822 ;;Total ram usage:        4 bytes
   823 ;; Hardware stack levels used: 1
   824 ;; Hardware stack levels required when called: 8
   825 ;; This function calls:
   826 ;;		_global_interrupt_Enable
   827 ;;		_timer0_Mode_Select
   828 ;;		_timer0_Prescaler_Config
   829 ;;		_timer0_Register_Size_Config
   830 ;; This function is called by:
   831 ;;		_application_initialize
   832 ;; This function uses a non-reentrant model
   833 ;;
   834                           
   835                           	psect	text3
   836   00154E                     __ptext3:
   837                           	callstack 0
   838   00154E                     _timer0_Init:
   839                           	callstack 21
   840   00154E                     
   841                           ;MCAL_Layer/Timer0/mcal_timer0.c: 28: Std_ReturnType timer0_Init(const timer0_config_t *
      +                          _timer);MCAL_Layer/Timer0/mcal_timer0.c: 29: {;MCAL_Layer/Timer0/mcal_timer0.c: 30:     
      +                          Std_ReturnType ret = (Std_ReturnType)0x01;
   842   00154E  0E01               	movlw	1
   843   001550  0100               	movlb	0	; () banked
   844   001552  6FA4               	movwf	timer0_Init@ret& (0+255),b
   845                           
   846                           ;MCAL_Layer/Timer0/mcal_timer0.c: 32:     if (((void*)0) != _timer)
   847   001554  506E               	movf	timer0_Init@_timer^0,w,c
   848   001556  B4D8               	btfsc	status,2,c
   849   001558  EFB0  F00A         	goto	u4161
   850   00155C  EFB2  F00A         	goto	u4160
   851   001560                     u4161:
   852   001560  EF0A  F00B         	goto	l4918
   853   001564                     u4160:
   854   001564                     
   855                           ; BSR set to: 0
   856                           ;MCAL_Layer/Timer0/mcal_timer0.c: 33:     {;MCAL_Layer/Timer0/mcal_timer0.c: 35:        
      +                           (T0CONbits.TMR0ON = 0);
   857   001564  9ED5               	bcf	213,7,c	;volatile
   858   001566                     
   859                           ; BSR set to: 0
   860                           ;MCAL_Layer/Timer0/mcal_timer0.c: 37:         timer0_Prescaler_Config(_timer);
   861   001566  C06E  F06C         	movff	timer0_Init@_timer,timer0_Prescaler_Config@_timer
   862   00156A  EC80  F00C         	call	_timer0_Prescaler_Config	;wreg free
   863                           
   864                           ;MCAL_Layer/Timer0/mcal_timer0.c: 39:         timer0_Mode_Select(_timer);
   865   00156E  C06E  F06C         	movff	timer0_Init@_timer,timer0_Mode_Select@_timer
   866   001572  ECDF  F00B         	call	_timer0_Mode_Select	;wreg free
   867                           
   868                           ;MCAL_Layer/Timer0/mcal_timer0.c: 41:         timer0_Register_Size_Config(_timer);
   869   001576  C06E  F06C         	movff	timer0_Init@_timer,timer0_Register_Size_Config@_timer
   870   00157A  ECD1  F00C         	call	_timer0_Register_Size_Config	;wreg free
   871   00157E                     
   872                           ;MCAL_Layer/Timer0/mcal_timer0.c: 43:         TMR0H = (_timer->timer0_preload_value) >> 
      +                          8;
   873   00157E  506E               	movf	timer0_Init@_timer^0,w,c
   874   001580  6ED9               	movwf	fsr2l,c
   875   001582  6ADA               	clrf	fsr2h,c
   876   001584  0E04               	movlw	4
   877   001586  26D9               	addwf	fsr2l,f,c
   878   001588  CFDE F0A2          	movff	postinc2,??_timer0_Init
   879   00158C  CFDD F0A3          	movff	postdec2,??_timer0_Init+1
   880   001590  C0A3  F0A2         	movff	??_timer0_Init+1,??_timer0_Init
   881   001594  0100               	movlb	0	; () banked
   882   001596  6BA3               	clrf	(??_timer0_Init+1)& (0+255),b
   883   001598  51A2               	movf	??_timer0_Init& (0+255),w,b
   884   00159A  6ED7               	movwf	215,c	;volatile
   885   00159C                     
   886                           ; BSR set to: 0
   887                           ;MCAL_Layer/Timer0/mcal_timer0.c: 44:         TMR0L = (uint8) (_timer->timer0_preload_va
      +                          lue);
   888   00159C  506E               	movf	timer0_Init@_timer^0,w,c
   889   00159E  6ED9               	movwf	fsr2l,c
   890   0015A0  6ADA               	clrf	fsr2h,c
   891   0015A2  0E04               	movlw	4
   892   0015A4  26D9               	addwf	fsr2l,f,c
   893   0015A6  50DF               	movf	indf2,w,c
   894   0015A8  6ED6               	movwf	214,c	;volatile
   895   0015AA                     
   896                           ; BSR set to: 0
   897                           ;MCAL_Layer/Timer0/mcal_timer0.c: 46:         timer0_preload = _timer->timer0_preload_va
      +                          lue;
   898   0015AA  506E               	movf	timer0_Init@_timer^0,w,c
   899   0015AC  6ED9               	movwf	fsr2l,c
   900   0015AE  6ADA               	clrf	fsr2h,c
   901   0015B0  0E04               	movlw	4
   902   0015B2  26D9               	addwf	fsr2l,f,c
   903   0015B4  CFDE F00B          	movff	postinc2,_timer0_preload
   904   0015B8  CFDD F00C          	movff	postdec2,_timer0_preload+1
   905   0015BC                     
   906                           ; BSR set to: 0
   907                           ;MCAL_Layer/Timer0/mcal_timer0.c: 49:         TIMER0_InterruptHandler = _timer->TIMER0_I
      +                          nterruptHandler;
   908   0015BC  506E               	movf	timer0_Init@_timer^0,w,c
   909   0015BE  6ED9               	movwf	fsr2l,c
   910   0015C0  6ADA               	clrf	fsr2h,c
   911   0015C2  CFDE F00D          	movff	postinc2,_TIMER0_InterruptHandler
   912   0015C6  CFDD F00E          	movff	postdec2,_TIMER0_InterruptHandler+1
   913   0015CA                     
   914                           ; BSR set to: 0
   915                           ;MCAL_Layer/Timer0/mcal_timer0.c: 52:         if(INTERRUPT_PRIORITY_HIGH == _timer->prio
      +                          rity)
   916   0015CA  506E               	movf	timer0_Init@_timer^0,w,c
   917   0015CC  6ED9               	movwf	fsr2l,c
   918   0015CE  6ADA               	clrf	fsr2h,c
   919   0015D0  0E02               	movlw	2
   920   0015D2  26D9               	addwf	fsr2l,f,c
   921   0015D4  04DE               	decf	postinc2,w,c
   922   0015D6  A4D8               	btfss	status,2,c
   923   0015D8  EFF0  F00A         	goto	u4171
   924   0015DC  EFF2  F00A         	goto	u4170
   925   0015E0                     u4171:
   926   0015E0  EFF5  F00A         	goto	l4910
   927   0015E4                     u4170:
   928   0015E4                     
   929                           ; BSR set to: 0
   930                           ;MCAL_Layer/Timer0/mcal_timer0.c: 53:         {;MCAL_Layer/Timer0/mcal_timer0.c: 54:    
      +                                   (INTCON2bits.TMR0IP = 1);
   931   0015E4  84F1               	bsf	241,2,c	;volatile
   932                           
   933                           ;MCAL_Layer/Timer0/mcal_timer0.c: 55:         }
   934   0015E6  EF03  F00B         	goto	l1006
   935   0015EA                     l4910:
   936                           
   937                           ; BSR set to: 0
   938   0015EA  506E               	movf	timer0_Init@_timer^0,w,c
   939   0015EC  6ED9               	movwf	fsr2l,c
   940   0015EE  6ADA               	clrf	fsr2h,c
   941   0015F0  0E02               	movlw	2
   942   0015F2  26D9               	addwf	fsr2l,f,c
   943   0015F4  50DF               	movf	indf2,w,c
   944   0015F6  A4D8               	btfss	status,2,c
   945   0015F8  EF00  F00B         	goto	u4181
   946   0015FC  EF02  F00B         	goto	u4180
   947   001600                     u4181:
   948   001600  EF03  F00B         	goto	l1006
   949   001604                     u4180:
   950   001604                     
   951                           ; BSR set to: 0
   952                           ;MCAL_Layer/Timer0/mcal_timer0.c: 57:         {;MCAL_Layer/Timer0/mcal_timer0.c: 58:    
      +                                   (INTCON2bits.TMR0IP = 0);
   953   001604  94F1               	bcf	241,2,c	;volatile
   954   001606                     l1006:
   955                           
   956                           ; BSR set to: 0
   957                           ;MCAL_Layer/Timer0/mcal_timer0.c: 62:         (INTCONbits.TMR0IF = 0);
   958   001606  94F2               	bcf	242,2,c	;volatile
   959                           
   960                           ;MCAL_Layer/Timer0/mcal_timer0.c: 63:         (INTCONbits.TMR0IE = 1);
   961   001608  8AF2               	bsf	242,5,c	;volatile
   962   00160A                     
   963                           ; BSR set to: 0
   964                           ;MCAL_Layer/Timer0/mcal_timer0.c: 64:         global_interrupt_Enable();
   965   00160A  EC84  F00D         	call	_global_interrupt_Enable	;wreg free
   966   00160E                     
   967                           ;MCAL_Layer/Timer0/mcal_timer0.c: 67:         (T0CONbits.TMR0ON = 1);
   968   00160E  8ED5               	bsf	213,7,c	;volatile
   969                           
   970                           ;MCAL_Layer/Timer0/mcal_timer0.c: 68:     }
   971   001610  EF0C  F00B         	goto	l1009
   972   001614                     l4918:
   973                           
   974                           ; BSR set to: 0
   975   001614  0E00               	movlw	0
   976   001616  6FA4               	movwf	timer0_Init@ret& (0+255),b
   977   001618                     l1009:
   978                           
   979                           ;MCAL_Layer/Timer0/mcal_timer0.c: 71:     return ret;
   980   001618  0100               	movlb	0	; () banked
   981   00161A  51A4               	movf	timer0_Init@ret& (0+255),w,b
   982   00161C                     
   983                           ; BSR set to: 0
   984   00161C  0012               	return		;funcret
   985   00161E                     __end_of_timer0_Init:
   986                           	callstack 0
   987                           
   988 ;; *************** function _timer0_Register_Size_Config *****************
   989 ;; Defined at:
   990 ;;		line 162 in file "MCAL_Layer/Timer0/mcal_timer0.c"
   991 ;; Parameters:    Size  Location     Type
   992 ;;  _timer          1   16[COMRAM] PTR const struct .
   993 ;;		 -> counter(7), 
   994 ;; Auto vars:     Size  Location     Type
   995 ;;		None
   996 ;; Return value:  Size  Location     Type
   997 ;;                  1    wreg      void 
   998 ;; Registers used:
   999 ;;		wreg, fsr2l, fsr2h, status,2, status,0
  1000 ;; Tracked objects:
  1001 ;;		On entry : 0/0
  1002 ;;		On exit  : 0/0
  1003 ;;		Unchanged: 0/0
  1004 ;; Data sizes:     COMRAM   BANK0   BANK1   BANK2   BANK3   BANK4   BANK5   BANK6   BANK7   BANK8   BANK9  BANK10  BANK1
      +1  BANK12  BANK13  BANK14  BANK15
  1005 ;;      Params:         1       0       0       0       0       0       0       0       0       0       0       0       
      +0       0       0       0       0
  1006 ;;      Locals:         0       0       0       0       0       0       0       0       0       0       0       0       
      +0       0       0       0       0
  1007 ;;      Temps:          0       0       0       0       0       0       0       0       0       0       0       0       
      +0       0       0       0       0
  1008 ;;      Totals:         1       0       0       0       0       0       0       0       0       0       0       0       
      +0       0       0       0       0
  1009 ;;Total ram usage:        1 bytes
  1010 ;; Hardware stack levels used: 1
  1011 ;; Hardware stack levels required when called: 7
  1012 ;; This function calls:
  1013 ;;		Nothing
  1014 ;; This function is called by:
  1015 ;;		_timer0_Init
  1016 ;; This function uses a non-reentrant model
  1017 ;;
  1018                           
  1019                           	psect	text4
  1020   0019A2                     __ptext4:
  1021                           	callstack 0
  1022   0019A2                     _timer0_Register_Size_Config:
  1023                           	callstack 21
  1024   0019A2                     
  1025                           ;MCAL_Layer/Timer0/mcal_timer0.c: 162: static __attribute__((inline)) void timer0_Regist
      +                          er_Size_Config(const timer0_config_t *_timer);MCAL_Layer/Timer0/mcal_timer0.c: 163: {;MC
      +                          AL_Layer/Timer0/mcal_timer0.c: 164:     if (1 == _timer->timer0_register_size)
  1026   0019A2  506C               	movf	timer0_Register_Size_Config@_timer^0,w,c
  1027   0019A4  6ED9               	movwf	fsr2l,c
  1028   0019A6  6ADA               	clrf	fsr2h,c
  1029   0019A8  0E06               	movlw	6
  1030   0019AA  26D9               	addwf	fsr2l,f,c
  1031   0019AC  A6DF               	btfss	indf2,3,c
  1032   0019AE  EFDB  F00C         	goto	u4051
  1033   0019B2  EFDD  F00C         	goto	u4050
  1034   0019B6                     u4051:
  1035   0019B6  EFE0  F00C         	goto	l4798
  1036   0019BA                     u4050:
  1037   0019BA                     
  1038                           ;MCAL_Layer/Timer0/mcal_timer0.c: 165:     {;MCAL_Layer/Timer0/mcal_timer0.c: 166:      
      +                             (T0CONbits.T08BIT = 1);
  1039   0019BA  8CD5               	bsf	213,6,c	;volatile
  1040                           
  1041                           ;MCAL_Layer/Timer0/mcal_timer0.c: 167:     }
  1042   0019BC  EFED  F00C         	goto	l1050
  1043   0019C0                     l4798:
  1044   0019C0  506C               	movf	timer0_Register_Size_Config@_timer^0,w,c
  1045   0019C2  6ED9               	movwf	fsr2l,c
  1046   0019C4  6ADA               	clrf	fsr2h,c
  1047   0019C6  0E06               	movlw	6
  1048   0019C8  26D9               	addwf	fsr2l,f,c
  1049   0019CA  B6DF               	btfsc	indf2,3,c
  1050   0019CC  EFEA  F00C         	goto	u4061
  1051   0019D0  EFEC  F00C         	goto	u4060
  1052   0019D4                     u4061:
  1053   0019D4  EFED  F00C         	goto	l1050
  1054   0019D8                     u4060:
  1055   0019D8                     
  1056                           ;MCAL_Layer/Timer0/mcal_timer0.c: 169:     {;MCAL_Layer/Timer0/mcal_timer0.c: 170:      
      +                             (T0CONbits.T08BIT = 0);
  1057   0019D8  9CD5               	bcf	213,6,c	;volatile
  1058   0019DA                     l1050:
  1059   0019DA  0012               	return		;funcret
  1060   0019DC                     __end_of_timer0_Register_Size_Config:
  1061                           	callstack 0
  1062                           
  1063 ;; *************** function _timer0_Prescaler_Config *****************
  1064 ;; Defined at:
  1065 ;;		line 126 in file "MCAL_Layer/Timer0/mcal_timer0.c"
  1066 ;; Parameters:    Size  Location     Type
  1067 ;;  _timer          1   16[COMRAM] PTR const struct .
  1068 ;;		 -> counter(7), 
  1069 ;; Auto vars:     Size  Location     Type
  1070 ;;		None
  1071 ;; Return value:  Size  Location     Type
  1072 ;;                  1    wreg      void 
  1073 ;; Registers used:
  1074 ;;		wreg, fsr2l, fsr2h, status,2, status,0
  1075 ;; Tracked objects:
  1076 ;;		On entry : 0/0
  1077 ;;		On exit  : 0/0
  1078 ;;		Unchanged: 0/0
  1079 ;; Data sizes:     COMRAM   BANK0   BANK1   BANK2   BANK3   BANK4   BANK5   BANK6   BANK7   BANK8   BANK9  BANK10  BANK1
      +1  BANK12  BANK13  BANK14  BANK15
  1080 ;;      Params:         1       0       0       0       0       0       0       0       0       0       0       0       
      +0       0       0       0       0
  1081 ;;      Locals:         0       0       0       0       0       0       0       0       0       0       0       0       
      +0       0       0       0       0
  1082 ;;      Temps:          1       0       0       0       0       0       0       0       0       0       0       0       
      +0       0       0       0       0
  1083 ;;      Totals:         2       0       0       0       0       0       0       0       0       0       0       0       
      +0       0       0       0       0
  1084 ;;Total ram usage:        2 bytes
  1085 ;; Hardware stack levels used: 1
  1086 ;; Hardware stack levels required when called: 7
  1087 ;; This function calls:
  1088 ;;		Nothing
  1089 ;; This function is called by:
  1090 ;;		_timer0_Init
  1091 ;; This function uses a non-reentrant model
  1092 ;;
  1093                           
  1094                           	psect	text5
  1095   001900                     __ptext5:
  1096                           	callstack 0
  1097   001900                     _timer0_Prescaler_Config:
  1098                           	callstack 21
  1099   001900                     
  1100                           ;MCAL_Layer/Timer0/mcal_timer0.c: 126: static __attribute__((inline)) void timer0_Presca
      +                          ler_Config(const timer0_config_t *_timer);MCAL_Layer/Timer0/mcal_timer0.c: 127: {;MCAL_L
      +                          ayer/Timer0/mcal_timer0.c: 128:     if (1 == _timer->prescaler_enable)
  1101   001900  506C               	movf	timer0_Prescaler_Config@_timer^0,w,c
  1102   001902  6ED9               	movwf	fsr2l,c
  1103   001904  6ADA               	clrf	fsr2h,c
  1104   001906  0E06               	movlw	6
  1105   001908  26D9               	addwf	fsr2l,f,c
  1106   00190A  A0DF               	btfss	indf2,0,c
  1107   00190C  EF8A  F00C         	goto	u3991
  1108   001910  EF8C  F00C         	goto	u3990
  1109   001914                     u3991:
  1110   001914  EF9B  F00C         	goto	l4774
  1111   001918                     u3990:
  1112   001918                     
  1113                           ;MCAL_Layer/Timer0/mcal_timer0.c: 129:     {;MCAL_Layer/Timer0/mcal_timer0.c: 130:      
      +                             (T0CONbits.PSA = 0);
  1114   001918  96D5               	bcf	213,3,c	;volatile
  1115   00191A                     
  1116                           ;MCAL_Layer/Timer0/mcal_timer0.c: 131:         T0CONbits.T0PS = _timer->prescaler_value;
  1117   00191A  506C               	movf	timer0_Prescaler_Config@_timer^0,w,c
  1118   00191C  6ED9               	movwf	fsr2l,c
  1119   00191E  6ADA               	clrf	fsr2h,c
  1120   001920  0E03               	movlw	3
  1121   001922  26D9               	addwf	fsr2l,f,c
  1122   001924  50DF               	movf	indf2,w,c
  1123   001926  6E6D               	movwf	??_timer0_Prescaler_Config^0,c
  1124   001928  50D5               	movf	213,w,c	;volatile
  1125   00192A  186D               	xorwf	??_timer0_Prescaler_Config^0,w,c
  1126   00192C  0BF8               	andlw	-8
  1127   00192E  186D               	xorwf	??_timer0_Prescaler_Config^0,w,c
  1128   001930  6ED5               	movwf	213,c	;volatile
  1129                           
  1130                           ;MCAL_Layer/Timer0/mcal_timer0.c: 132:     }
  1131   001932  EFA8  F00C         	goto	l1032
  1132   001936                     l4774:
  1133   001936  506C               	movf	timer0_Prescaler_Config@_timer^0,w,c
  1134   001938  6ED9               	movwf	fsr2l,c
  1135   00193A  6ADA               	clrf	fsr2h,c
  1136   00193C  0E06               	movlw	6
  1137   00193E  26D9               	addwf	fsr2l,f,c
  1138   001940  B0DF               	btfsc	indf2,0,c
  1139   001942  EFA5  F00C         	goto	u4001
  1140   001946  EFA7  F00C         	goto	u4000
  1141   00194A                     u4001:
  1142   00194A  EFA8  F00C         	goto	l1032
  1143   00194E                     u4000:
  1144   00194E                     
  1145                           ;MCAL_Layer/Timer0/mcal_timer0.c: 134:     {;MCAL_Layer/Timer0/mcal_timer0.c: 135:      
      +                             (T0CONbits.PSA = 1);
  1146   00194E  86D5               	bsf	213,3,c	;volatile
  1147   001950                     l1032:
  1148   001950  0012               	return		;funcret
  1149   001952                     __end_of_timer0_Prescaler_Config:
  1150                           	callstack 0
  1151                           
  1152 ;; *************** function _timer0_Mode_Select *****************
  1153 ;; Defined at:
  1154 ;;		line 140 in file "MCAL_Layer/Timer0/mcal_timer0.c"
  1155 ;; Parameters:    Size  Location     Type
  1156 ;;  _timer          1   16[COMRAM] PTR const struct .
  1157 ;;		 -> counter(7), 
  1158 ;; Auto vars:     Size  Location     Type
  1159 ;;		None
  1160 ;; Return value:  Size  Location     Type
  1161 ;;                  1    wreg      void 
  1162 ;; Registers used:
  1163 ;;		wreg, fsr2l, fsr2h, status,2, status,0
  1164 ;; Tracked objects:
  1165 ;;		On entry : 0/0
  1166 ;;		On exit  : 0/0
  1167 ;;		Unchanged: 0/0
  1168 ;; Data sizes:     COMRAM   BANK0   BANK1   BANK2   BANK3   BANK4   BANK5   BANK6   BANK7   BANK8   BANK9  BANK10  BANK1
      +1  BANK12  BANK13  BANK14  BANK15
  1169 ;;      Params:         1       0       0       0       0       0       0       0       0       0       0       0       
      +0       0       0       0       0
  1170 ;;      Locals:         0       0       0       0       0       0       0       0       0       0       0       0       
      +0       0       0       0       0
  1171 ;;      Temps:          0       0       0       0       0       0       0       0       0       0       0       0       
      +0       0       0       0       0
  1172 ;;      Totals:         1       0       0       0       0       0       0       0       0       0       0       0       
      +0       0       0       0       0
  1173 ;;Total ram usage:        1 bytes
  1174 ;; Hardware stack levels used: 1
  1175 ;; Hardware stack levels required when called: 7
  1176 ;; This function calls:
  1177 ;;		Nothing
  1178 ;; This function is called by:
  1179 ;;		_timer0_Init
  1180 ;; This function uses a non-reentrant model
  1181 ;;
  1182                           
  1183                           	psect	text6
  1184   0017BE                     __ptext6:
  1185                           	callstack 0
  1186   0017BE                     _timer0_Mode_Select:
  1187                           	callstack 21
  1188   0017BE                     
  1189                           ;MCAL_Layer/Timer0/mcal_timer0.c: 140: static __attribute__((inline)) void timer0_Mode_S
      +                          elect(const timer0_config_t *_timer);MCAL_Layer/Timer0/mcal_timer0.c: 141: {;MCAL_Layer/
      +                          Timer0/mcal_timer0.c: 142:     if (1 == _timer->timer0_mode)
  1190   0017BE  506C               	movf	timer0_Mode_Select@_timer^0,w,c
  1191   0017C0  6ED9               	movwf	fsr2l,c
  1192   0017C2  6ADA               	clrf	fsr2h,c
  1193   0017C4  0E06               	movlw	6
  1194   0017C6  26D9               	addwf	fsr2l,f,c
  1195   0017C8  A4DF               	btfss	indf2,2,c
  1196   0017CA  EFE9  F00B         	goto	u4011
  1197   0017CE  EFEB  F00B         	goto	u4010
  1198   0017D2                     u4011:
  1199   0017D2  EFEE  F00B         	goto	l4782
  1200   0017D6                     u4010:
  1201   0017D6                     
  1202                           ;MCAL_Layer/Timer0/mcal_timer0.c: 143:     {;MCAL_Layer/Timer0/mcal_timer0.c: 144:      
      +                             (T0CONbits.T0CS = 0);
  1203   0017D6  9AD5               	bcf	213,5,c	;volatile
  1204                           
  1205                           ;MCAL_Layer/Timer0/mcal_timer0.c: 145:     }
  1206   0017D8  EF19  F00C         	goto	l1043
  1207   0017DC                     l4782:
  1208   0017DC  506C               	movf	timer0_Mode_Select@_timer^0,w,c
  1209   0017DE  6ED9               	movwf	fsr2l,c
  1210   0017E0  6ADA               	clrf	fsr2h,c
  1211   0017E2  0E06               	movlw	6
  1212   0017E4  26D9               	addwf	fsr2l,f,c
  1213   0017E6  B4DF               	btfsc	indf2,2,c
  1214   0017E8  EFF8  F00B         	goto	u4021
  1215   0017EC  EFFA  F00B         	goto	u4020
  1216   0017F0                     u4021:
  1217   0017F0  EF19  F00C         	goto	l1043
  1218   0017F4                     u4020:
  1219   0017F4                     
  1220                           ;MCAL_Layer/Timer0/mcal_timer0.c: 147:     {;MCAL_Layer/Timer0/mcal_timer0.c: 148:      
      +                             (T0CONbits.T0CS = 1);
  1221   0017F4  8AD5               	bsf	213,5,c	;volatile
  1222   0017F6                     
  1223                           ;MCAL_Layer/Timer0/mcal_timer0.c: 149:         if (1 == _timer->timer0_counter_edge)
  1224   0017F6  506C               	movf	timer0_Mode_Select@_timer^0,w,c
  1225   0017F8  6ED9               	movwf	fsr2l,c
  1226   0017FA  6ADA               	clrf	fsr2h,c
  1227   0017FC  0E06               	movlw	6
  1228   0017FE  26D9               	addwf	fsr2l,f,c
  1229   001800  A2DF               	btfss	indf2,1,c
  1230   001802  EF05  F00C         	goto	u4031
  1231   001806  EF07  F00C         	goto	u4030
  1232   00180A                     u4031:
  1233   00180A  EF0A  F00C         	goto	l4790
  1234   00180E                     u4030:
  1235   00180E                     
  1236                           ;MCAL_Layer/Timer0/mcal_timer0.c: 150:         {;MCAL_Layer/Timer0/mcal_timer0.c: 151:  
      +                                     (T0CONbits.T0SE = 0);
  1237   00180E  98D5               	bcf	213,4,c	;volatile
  1238                           
  1239                           ;MCAL_Layer/Timer0/mcal_timer0.c: 152:         }
  1240   001810  EF19  F00C         	goto	l1043
  1241   001814                     l4790:
  1242   001814  506C               	movf	timer0_Mode_Select@_timer^0,w,c
  1243   001816  6ED9               	movwf	fsr2l,c
  1244   001818  6ADA               	clrf	fsr2h,c
  1245   00181A  0E06               	movlw	6
  1246   00181C  26D9               	addwf	fsr2l,f,c
  1247   00181E  B2DF               	btfsc	indf2,1,c
  1248   001820  EF14  F00C         	goto	u4041
  1249   001824  EF16  F00C         	goto	u4040
  1250   001828                     u4041:
  1251   001828  EF19  F00C         	goto	l1042
  1252   00182C                     u4040:
  1253   00182C                     
  1254                           ;MCAL_Layer/Timer0/mcal_timer0.c: 154:         {;MCAL_Layer/Timer0/mcal_timer0.c: 155:  
      +                                     (T0CONbits.T0SE = 1);
  1255   00182C  88D5               	bsf	213,4,c	;volatile
  1256                           
  1257                           ;MCAL_Layer/Timer0/mcal_timer0.c: 156:         }
  1258   00182E  EF19  F00C         	goto	l1043
  1259   001832                     l1042:
  1260   001832                     l1043:
  1261   001832  0012               	return		;funcret
  1262   001834                     __end_of_timer0_Mode_Select:
  1263                           	callstack 0
  1264                           
  1265 ;; *************** function _global_interrupt_Enable *****************
  1266 ;; Defined at:
  1267 ;;		line 18 in file "MCAL_Layer/Interrupt/mcal_interrupt_cfg.c"
  1268 ;; Parameters:    Size  Location     Type
  1269 ;;		None
  1270 ;; Auto vars:     Size  Location     Type
  1271 ;;		None
  1272 ;; Return value:  Size  Location     Type
  1273 ;;                  1    wreg      void 
  1274 ;; Registers used:
  1275 ;;		None
  1276 ;; Tracked objects:
  1277 ;;		On entry : 0/0
  1278 ;;		On exit  : 0/0
  1279 ;;		Unchanged: 0/0
  1280 ;; Data sizes:     COMRAM   BANK0   BANK1   BANK2   BANK3   BANK4   BANK5   BANK6   BANK7   BANK8   BANK9  BANK10  BANK1
      +1  BANK12  BANK13  BANK14  BANK15
  1281 ;;      Params:         0       0       0       0       0       0       0       0       0       0       0       0       
      +0       0       0       0       0
  1282 ;;      Locals:         0       0       0       0       0       0       0       0       0       0       0       0       
      +0       0       0       0       0
  1283 ;;      Temps:          0       0       0       0       0       0       0       0       0       0       0       0       
      +0       0       0       0       0
  1284 ;;      Totals:         0       0       0       0       0       0       0       0       0       0       0       0       
      +0       0       0       0       0
  1285 ;;Total ram usage:        0 bytes
  1286 ;; Hardware stack levels used: 1
  1287 ;; Hardware stack levels required when called: 7
  1288 ;; This function calls:
  1289 ;;		Nothing
  1290 ;; This function is called by:
  1291 ;;		_timer0_Init
  1292 ;;		_adc_Init
  1293 ;;		_ext_interrupt_INTx_Init
  1294 ;;		_ext_interrupt_RBx_Init
  1295 ;; This function uses a non-reentrant model
  1296 ;;
  1297                           
  1298                           	psect	text7
  1299   001B08                     __ptext7:
  1300                           	callstack 0
  1301   001B08                     _global_interrupt_Enable:
  1302                           	callstack 21
  1303   001B08                     
  1304                           ;MCAL_Layer/Interrupt/mcal_interrupt_cfg.c: 21:     (RCONbits.IPEN = 1);
  1305   001B08  8ED0               	bsf	208,7,c	;volatile
  1306                           
  1307                           ;MCAL_Layer/Interrupt/mcal_interrupt_cfg.c: 22:     (INTCONbits.GIEH = 1);
  1308   001B0A  8EF2               	bsf	242,7,c	;volatile
  1309                           
  1310                           ;MCAL_Layer/Interrupt/mcal_interrupt_cfg.c: 23:     (INTCONbits.GIEL = 1);
  1311   001B0C  8CF2               	bsf	242,6,c	;volatile
  1312   001B0E  0012               	return		;funcret
  1313   001B10                     __end_of_global_interrupt_Enable:
  1314                           	callstack 0
  1315                           
  1316 ;; *************** function _ecu_layer_initialize *****************
  1317 ;; Defined at:
  1318 ;;		line 213 in file "ECU_Layer/ecu_layer_init.c"
  1319 ;; Parameters:    Size  Location     Type
  1320 ;;		None
  1321 ;; Auto vars:     Size  Location     Type
  1322 ;;  ret_init        1   12[BANK0 ] unsigned char 
  1323 ;; Return value:  Size  Location     Type
  1324 ;;                  1    wreg      unsigned char 
  1325 ;; Registers used:
  1326 ;;		wreg, fsr2l, fsr2h, status,2, status,0, prodl, prodh, cstack
  1327 ;; Tracked objects:
  1328 ;;		On entry : 0/0
  1329 ;;		On exit  : 0/0
  1330 ;;		Unchanged: 0/0
  1331 ;; Data sizes:     COMRAM   BANK0   BANK1   BANK2   BANK3   BANK4   BANK5   BANK6   BANK7   BANK8   BANK9  BANK10  BANK1
      +1  BANK12  BANK13  BANK14  BANK15
  1332 ;;      Params:         0       0       0       0       0       0       0       0       0       0       0       0       
      +0       0       0       0       0
  1333 ;;      Locals:         0       1       0       0       0       0       0       0       0       0       0       0       
      +0       0       0       0       0
  1334 ;;      Temps:          0       0       0       0       0       0       0       0       0       0       0       0       
      +0       0       0       0       0
  1335 ;;      Totals:         0       1       0       0       0       0       0       0       0       0       0       0       
      +0       0       0       0       0
  1336 ;;Total ram usage:        1 bytes
  1337 ;; Hardware stack levels used: 1
  1338 ;; Hardware stack levels required when called: 10
  1339 ;; This function calls:
  1340 ;;		_led_initialize
  1341 ;; This function is called by:
  1342 ;;		_application_initialize
  1343 ;; This function uses a non-reentrant model
  1344 ;;
  1345                           
  1346                           	psect	text8
  1347   001ADE                     __ptext8:
  1348                           	callstack 0
  1349   001ADE                     _ecu_layer_initialize:
  1350                           	callstack 19
  1351   001ADE                     
  1352                           ;ECU_Layer/ecu_layer_init.c: 217:     ret_init = led_initialize(&led1);
  1353   001ADE  0E5B               	movlw	low _led1
  1354   001AE0  0100               	movlb	0	; () banked
  1355   001AE2  6FAA               	movwf	led_initialize@led& (0+255),b
  1356   001AE4  ECA3  F00B         	call	_led_initialize	;wreg free
  1357   001AE8  0100               	movlb	0	; () banked
  1358   001AEA  6FAE               	movwf	ecu_layer_initialize@ret_init& (0+255),b
  1359   001AEC                     
  1360                           ; BSR set to: 0
  1361                           ;ECU_Layer/ecu_layer_init.c: 219:     return ret_init;
  1362   001AEC  51AE               	movf	ecu_layer_initialize@ret_init& (0+255),w,b
  1363   001AEE                     
  1364                           ; BSR set to: 0
  1365   001AEE  0012               	return		;funcret
  1366   001AF0                     __end_of_ecu_layer_initialize:
  1367                           	callstack 0
  1368                           
  1369 ;; *************** function _led_initialize *****************
  1370 ;; Defined at:
  1371 ;;		line 27 in file "ECU_Layer/LED/ecu_led.c"
  1372 ;; Parameters:    Size  Location     Type
  1373 ;;  led             1    8[BANK0 ] PTR const struct .
  1374 ;;		 -> led1(1), 
  1375 ;; Auto vars:     Size  Location     Type
  1376 ;;  pin             1   11[BANK0 ] struct .
  1377 ;;  ret             1   10[BANK0 ] unsigned char 
  1378 ;; Return value:  Size  Location     Type
  1379 ;;                  1    wreg      unsigned char 
  1380 ;; Registers used:
  1381 ;;		wreg, fsr2l, fsr2h, status,2, status,0, prodl, prodh, cstack
  1382 ;; Tracked objects:
  1383 ;;		On entry : 0/0
  1384 ;;		On exit  : 0/0
  1385 ;;		Unchanged: 0/0
  1386 ;; Data sizes:     COMRAM   BANK0   BANK1   BANK2   BANK3   BANK4   BANK5   BANK6   BANK7   BANK8   BANK9  BANK10  BANK1
      +1  BANK12  BANK13  BANK14  BANK15
  1387 ;;      Params:         0       1       0       0       0       0       0       0       0       0       0       0       
      +0       0       0       0       0
  1388 ;;      Locals:         0       2       0       0       0       0       0       0       0       0       0       0       
      +0       0       0       0       0
  1389 ;;      Temps:          0       1       0       0       0       0       0       0       0       0       0       0       
      +0       0       0       0       0
  1390 ;;      Totals:         0       4       0       0       0       0       0       0       0       0       0       0       
      +0       0       0       0       0
  1391 ;;Total ram usage:        4 bytes
  1392 ;; Hardware stack levels used: 1
  1393 ;; Hardware stack levels required when called: 9
  1394 ;; This function calls:
  1395 ;;		_gpio_pin_initialize
  1396 ;; This function is called by:
  1397 ;;		_ecu_layer_initialize
  1398 ;; This function uses a non-reentrant model
  1399 ;;
  1400                           
  1401                           	psect	text9
  1402   001746                     __ptext9:
  1403                           	callstack 0
  1404   001746                     _led_initialize:
  1405                           	callstack 19
  1406   001746                     
  1407                           ;ECU_Layer/LED/ecu_led.c: 30:     if(led != ((void*)0))
  1408   001746  0100               	movlb	0	; () banked
  1409   001748  51AA               	movf	led_initialize@led& (0+255),w,b
  1410   00174A  B4D8               	btfsc	status,2,c
  1411   00174C  EFAA  F00B         	goto	u3971
  1412   001750  EFAC  F00B         	goto	u3970
  1413   001754                     u3971:
  1414   001754  EFDB  F00B         	goto	l4762
  1415   001758                     u3970:
  1416   001758                     
  1417                           ; BSR set to: 0
  1418                           ;ECU_Layer/LED/ecu_led.c: 31:     {;ECU_Layer/LED/ecu_led.c: 32:         pin_config_t pi
      +                          n = {.port = led->led_port ,.pin = led->led_pin ,
  1419   001758  C032  F0AD         	movff	led_initialize@F3062,led_initialize@pin
  1420   00175C                     
  1421                           ; BSR set to: 0
  1422   00175C  51AA               	movf	led_initialize@led& (0+255),w,b
  1423   00175E  6ED9               	movwf	fsr2l,c
  1424   001760  6ADA               	clrf	fsr2h,c
  1425   001762  50DF               	movf	223,w,c
  1426   001764  0B07               	andlw	7
  1427   001766  6FAB               	movwf	??_led_initialize& (0+255),b
  1428   001768  51AD               	movf	led_initialize@pin& (0+255),w,b
  1429   00176A  19AB               	xorwf	??_led_initialize& (0+255),w,b
  1430   00176C  0BF8               	andlw	-8
  1431   00176E  19AB               	xorwf	??_led_initialize& (0+255),w,b
  1432   001770  6FAD               	movwf	led_initialize@pin& (0+255),b
  1433   001772  51AA               	movf	led_initialize@led& (0+255),w,b
  1434   001774  6ED9               	movwf	fsr2l,c
  1435   001776  6ADA               	clrf	fsr2h,c
  1436   001778  30DF               	rrcf	223,w,c
  1437   00177A  32E8               	rrcf	wreg,f,c
  1438   00177C  32E8               	rrcf	wreg,f,c
  1439   00177E  0B07               	andlw	7
  1440   001780  6FAB               	movwf	??_led_initialize& (0+255),b
  1441   001782  47AB               	rlncf	??_led_initialize& (0+255),f,b
  1442   001784  47AB               	rlncf	??_led_initialize& (0+255),f,b
  1443   001786  47AB               	rlncf	??_led_initialize& (0+255),f,b
  1444   001788  51AD               	movf	led_initialize@pin& (0+255),w,b
  1445   00178A  19AB               	xorwf	??_led_initialize& (0+255),w,b
  1446   00178C  0BC7               	andlw	-57
  1447   00178E  19AB               	xorwf	??_led_initialize& (0+255),w,b
  1448   001790  6FAD               	movwf	led_initialize@pin& (0+255),b
  1449   001792                     
  1450                           ; BSR set to: 0
  1451   001792  9DAD               	bcf	led_initialize@pin& (0+255),6,b
  1452   001794                     
  1453                           ; BSR set to: 0
  1454   001794  51AA               	movf	led_initialize@led& (0+255),w,b
  1455   001796  6ED9               	movwf	fsr2l,c
  1456   001798  6ADA               	clrf	fsr2h,c
  1457   00179A  ACDF               	btfss	indf2,6,c
  1458   00179C  D002               	bra	u3985
  1459   00179E  8FAD               	bsf	led_initialize@pin& (0+255),7,b
  1460   0017A0  D002               	bra	u3987
  1461   0017A2                     u3985:
  1462   0017A2  0100               	movlb	0	; () banked
  1463   0017A4  9FAD               	bcf	led_initialize@pin& (0+255),7,b
  1464   0017A6                     u3987:
  1465   0017A6                     
  1466                           ; BSR set to: 0
  1467                           ;ECU_Layer/LED/ecu_led.c: 34:         ret = gpio_pin_initialize(&pin);
  1468   0017A6  0EAD               	movlw	low led_initialize@pin
  1469   0017A8  6FA7               	movwf	gpio_pin_initialize@_pin_config& (0+255),b
  1470   0017AA  EC63  F00B         	call	_gpio_pin_initialize	;wreg free
  1471   0017AE  0100               	movlb	0	; () banked
  1472   0017B0  6FAC               	movwf	led_initialize@ret& (0+255),b
  1473                           
  1474                           ;ECU_Layer/LED/ecu_led.c: 35:     }
  1475   0017B2  EFDD  F00B         	goto	l287
  1476   0017B6                     l4762:
  1477                           
  1478                           ; BSR set to: 0
  1479   0017B6  0E00               	movlw	0
  1480   0017B8  6FAC               	movwf	led_initialize@ret& (0+255),b
  1481   0017BA                     l287:
  1482                           
  1483                           ; BSR set to: 0
  1484                           ;ECU_Layer/LED/ecu_led.c: 38:     return ret;
  1485   0017BA  51AC               	movf	led_initialize@ret& (0+255),w,b
  1486   0017BC                     
  1487                           ; BSR set to: 0
  1488   0017BC  0012               	return		;funcret
  1489   0017BE                     __end_of_led_initialize:
  1490                           	callstack 0
  1491                           
  1492 ;; *************** function _gpio_pin_initialize *****************
  1493 ;; Defined at:
  1494 ;;		line 151 in file "MCAL_Layer/GPIO/mcal_gpio.c"
  1495 ;; Parameters:    Size  Location     Type
  1496 ;;  _pin_config     1    5[BANK0 ] PTR const struct .
  1497 ;;		 -> relay_initialize@pin(1), led_initialize@pin(1), 
  1498 ;; Auto vars:     Size  Location     Type
  1499 ;;  ret             1    7[BANK0 ] unsigned char 
  1500 ;; Return value:  Size  Location     Type
  1501 ;;                  1    wreg      unsigned char 
  1502 ;; Registers used:
  1503 ;;		wreg, fsr2l, fsr2h, status,2, status,0, prodl, prodh, cstack
  1504 ;; Tracked objects:
  1505 ;;		On entry : 0/0
  1506 ;;		On exit  : 0/0
  1507 ;;		Unchanged: 0/0
  1508 ;; Data sizes:     COMRAM   BANK0   BANK1   BANK2   BANK3   BANK4   BANK5   BANK6   BANK7   BANK8   BANK9  BANK10  BANK1
      +1  BANK12  BANK13  BANK14  BANK15
  1509 ;;      Params:         0       1       0       0       0       0       0       0       0       0       0       0       
      +0       0       0       0       0
  1510 ;;      Locals:         0       1       0       0       0       0       0       0       0       0       0       0       
      +0       0       0       0       0
  1511 ;;      Temps:          0       1       0       0       0       0       0       0       0       0       0       0       
      +0       0       0       0       0
  1512 ;;      Totals:         0       3       0       0       0       0       0       0       0       0       0       0       
      +0       0       0       0       0
  1513 ;;Total ram usage:        3 bytes
  1514 ;; Hardware stack levels used: 1
  1515 ;; Hardware stack levels required when called: 8
  1516 ;; This function calls:
  1517 ;;		_gpio_pin_direction_initialize
  1518 ;;		_gpio_pin_write_logic
  1519 ;; This function is called by:
  1520 ;;		_led_initialize
  1521 ;;		_dc_motor_initialize
  1522 ;;		_keypad_initialize
  1523 ;;		_lcd_4bit_initialize
  1524 ;;		_lcd_8bit_initialize
  1525 ;;		_relay_initialize
  1526 ;;		_seven_segment_initialize
  1527 ;; This function uses a non-reentrant model
  1528 ;;
  1529                           
  1530                           	psect	text10
  1531   0016C6                     __ptext10:
  1532                           	callstack 0
  1533   0016C6                     _gpio_pin_initialize:
  1534                           	callstack 19
  1535   0016C6                     
  1536                           ;MCAL_Layer/GPIO/mcal_gpio.c: 154:     if((_pin_config != ((void*)0)) && (_pin_config->p
      +                          ort <= 5 -1) && (_pin_config->pin <= 8 -1))
  1537   0016C6  0100               	movlb	0	; () banked
  1538   0016C8  51A7               	movf	gpio_pin_initialize@_pin_config& (0+255),w,b
  1539   0016CA  B4D8               	btfsc	status,2,c
  1540   0016CC  EF6A  F00B         	goto	u3941
  1541   0016D0  EF6C  F00B         	goto	u3940
  1542   0016D4                     u3941:
  1543   0016D4  EF9F  F00B         	goto	l4746
  1544   0016D8                     u3940:
  1545   0016D8                     
  1546                           ; BSR set to: 0
  1547   0016D8  51A7               	movf	gpio_pin_initialize@_pin_config& (0+255),w,b
  1548   0016DA  6ED9               	movwf	fsr2l,c
  1549   0016DC  6ADA               	clrf	fsr2h,c
  1550   0016DE  50DF               	movf	223,w,c
  1551   0016E0  0B07               	andlw	7
  1552   0016E2  6FA8               	movwf	??_gpio_pin_initialize& (0+255),b
  1553   0016E4  0E05               	movlw	5
  1554   0016E6  61A8               	cpfslt	??_gpio_pin_initialize& (0+255),b
  1555   0016E8  EF78  F00B         	goto	u3951
  1556   0016EC  EF7A  F00B         	goto	u3950
  1557   0016F0                     u3951:
  1558   0016F0  EF9F  F00B         	goto	l4746
  1559   0016F4                     u3950:
  1560   0016F4                     
  1561                           ; BSR set to: 0
  1562   0016F4  51A7               	movf	gpio_pin_initialize@_pin_config& (0+255),w,b
  1563   0016F6  6ED9               	movwf	fsr2l,c
  1564   0016F8  6ADA               	clrf	fsr2h,c
  1565   0016FA  30DF               	rrcf	223,w,c
  1566   0016FC  32E8               	rrcf	wreg,f,c
  1567   0016FE  32E8               	rrcf	wreg,f,c
  1568   001700  0B07               	andlw	7
  1569   001702  6FA8               	movwf	??_gpio_pin_initialize& (0+255),b
  1570   001704  0E08               	movlw	8
  1571   001706  61A8               	cpfslt	??_gpio_pin_initialize& (0+255),b
  1572   001708  EF88  F00B         	goto	u3961
  1573   00170C  EF8A  F00B         	goto	u3960
  1574   001710                     u3961:
  1575   001710  EF9F  F00B         	goto	l4746
  1576   001714                     u3960:
  1577   001714                     
  1578                           ; BSR set to: 0
  1579                           ;MCAL_Layer/GPIO/mcal_gpio.c: 155:     {;MCAL_Layer/GPIO/mcal_gpio.c: 156:         ret =
      +                           gpio_pin_direction_initialize(_pin_config);
  1580   001714  C0A7  F06C         	movff	gpio_pin_initialize@_pin_config,gpio_pin_direction_initialize@_pin_config
  1581   001718  EC0B  F00A         	call	_gpio_pin_direction_initialize	;wreg free
  1582   00171C  0100               	movlb	0	; () banked
  1583   00171E  6FA9               	movwf	gpio_pin_initialize@ret& (0+255),b
  1584                           
  1585                           ;MCAL_Layer/GPIO/mcal_gpio.c: 157:         ret = gpio_pin_write_logic(_pin_config,_pin_c
      +                          onfig->logic);
  1586   001720  C0A7  F06C         	movff	gpio_pin_initialize@_pin_config,gpio_pin_write_logic@_pin_config
  1587   001724  51A7               	movf	gpio_pin_initialize@_pin_config& (0+255),w,b
  1588   001726  6ED9               	movwf	fsr2l,c
  1589   001728  6ADA               	clrf	fsr2h,c
  1590   00172A  0E00               	movlw	0
  1591   00172C  BEDF               	btfsc	indf2,7,c
  1592   00172E  0E01               	movlw	1
  1593   001730  6E6D               	movwf	gpio_pin_write_logic@logic^0,c
  1594   001732  EC66  F009         	call	_gpio_pin_write_logic	;wreg free
  1595   001736  0100               	movlb	0	; () banked
  1596   001738  6FA9               	movwf	gpio_pin_initialize@ret& (0+255),b
  1597                           
  1598                           ;MCAL_Layer/GPIO/mcal_gpio.c: 158:     }
  1599   00173A  EFA1  F00B         	goto	l598
  1600   00173E                     l4746:
  1601                           
  1602                           ; BSR set to: 0
  1603   00173E  0E00               	movlw	0
  1604   001740  6FA9               	movwf	gpio_pin_initialize@ret& (0+255),b
  1605   001742                     l598:
  1606                           
  1607                           ; BSR set to: 0
  1608                           ;MCAL_Layer/GPIO/mcal_gpio.c: 160:     return ret;
  1609   001742  51A9               	movf	gpio_pin_initialize@ret& (0+255),w,b
  1610   001744                     
  1611                           ; BSR set to: 0
  1612   001744  0012               	return		;funcret
  1613   001746                     __end_of_gpio_pin_initialize:
  1614                           	callstack 0
  1615                           
  1616 ;; *************** function _gpio_pin_write_logic *****************
  1617 ;; Defined at:
  1618 ;;		line 83 in file "MCAL_Layer/GPIO/mcal_gpio.c"
  1619 ;; Parameters:    Size  Location     Type
  1620 ;;  _pin_config     1   16[COMRAM] PTR const struct .
  1621 ;;		 -> relay_turn_off@pin(1), relay_turn_on@pin(1), relay_initialize@pin(1), led_turn_off@pin(1), 
  1622 ;;		 -> led_turn_on@pin(1), led_initialize@pin(1), 
  1623 ;;  logic           1   17[COMRAM] enum E3002
  1624 ;; Auto vars:     Size  Location     Type
  1625 ;;  ret             1   18[COMRAM] unsigned char 
  1626 ;; Return value:  Size  Location     Type
  1627 ;;                  1    wreg      unsigned char 
  1628 ;; Registers used:
  1629 ;;		wreg, fsr2l, fsr2h, status,2, status,0, prodl, prodh
  1630 ;; Tracked objects:
  1631 ;;		On entry : 0/0
  1632 ;;		On exit  : 0/0
  1633 ;;		Unchanged: 0/0
  1634 ;; Data sizes:     COMRAM   BANK0   BANK1   BANK2   BANK3   BANK4   BANK5   BANK6   BANK7   BANK8   BANK9  BANK10  BANK1
      +1  BANK12  BANK13  BANK14  BANK15
  1635 ;;      Params:         2       0       0       0       0       0       0       0       0       0       0       0       
      +0       0       0       0       0
  1636 ;;      Locals:         1       0       0       0       0       0       0       0       0       0       0       0       
      +0       0       0       0       0
  1637 ;;      Temps:          0       5       0       0       0       0       0       0       0       0       0       0       
      +0       0       0       0       0
  1638 ;;      Totals:         3       5       0       0       0       0       0       0       0       0       0       0       
      +0       0       0       0       0
  1639 ;;Total ram usage:        8 bytes
  1640 ;; Hardware stack levels used: 1
  1641 ;; Hardware stack levels required when called: 7
  1642 ;; This function calls:
  1643 ;;		Nothing
  1644 ;; This function is called by:
  1645 ;;		_gpio_pin_initialize
  1646 ;;		_dc_motor_move_right
  1647 ;;		_dc_motor_move_left
  1648 ;;		_dc_motor_stop
  1649 ;;		_keypad_get_value
  1650 ;;		_lcd_4bit_send_command
  1651 ;;		_lcd_4bit_send_char_data
  1652 ;;		_lcd_8bit_send_command
  1653 ;;		_lcd_8bit_send_char_data
  1654 ;;		_lcd_send_4bits
  1655 ;;		_lcd_4bit_send_enable_signal
  1656 ;;		_lcd_8bit_send_enable_signal
  1657 ;;		_led_turn_on
  1658 ;;		_led_turn_off
  1659 ;;		_relay_turn_on
  1660 ;;		_relay_turn_off
  1661 ;;		_seven_segment_write_number
  1662 ;; This function uses a non-reentrant model
  1663 ;;
  1664                           
  1665                           	psect	text11
  1666   0012CC                     __ptext11:
  1667                           	callstack 0
  1668   0012CC                     _gpio_pin_write_logic:
  1669                           	callstack 19
  1670   0012CC                     
  1671                           ;MCAL_Layer/GPIO/mcal_gpio.c: 83: Std_ReturnType gpio_pin_write_logic(const pin_config_t
      +                           *_pin_config , logic_t logic);MCAL_Layer/GPIO/mcal_gpio.c: 84: {;MCAL_Layer/GPIO/mcal_g
      +                          pio.c: 85:     Std_ReturnType ret = (Std_ReturnType)0x01;
  1672   0012CC  0E01               	movlw	1
  1673   0012CE  6E6E               	movwf	gpio_pin_write_logic@ret^0,c
  1674                           
  1675                           ;MCAL_Layer/GPIO/mcal_gpio.c: 86:     if((_pin_config != ((void*)0)) && (_pin_config->po
      +                          rt <= 5 -1) && (_pin_config->pin <= 8 -1))
  1676   0012D0  506C               	movf	gpio_pin_write_logic@_pin_config^0,w,c
  1677   0012D2  B4D8               	btfsc	status,2,c
  1678   0012D4  EF6E  F009         	goto	u3881
  1679   0012D8  EF70  F009         	goto	u3880
  1680   0012DC                     u3881:
  1681   0012DC  EFF0  F009         	goto	l4724
  1682   0012E0                     u3880:
  1683   0012E0  506C               	movf	gpio_pin_write_logic@_pin_config^0,w,c
  1684   0012E2  6ED9               	movwf	fsr2l,c
  1685   0012E4  6ADA               	clrf	fsr2h,c
  1686   0012E6  50DF               	movf	223,w,c
  1687   0012E8  0B07               	andlw	7
  1688   0012EA  0100               	movlb	0	; () banked
  1689   0012EC  6FA2               	movwf	??_gpio_pin_write_logic& (0+255),b
  1690   0012EE  0E05               	movlw	5
  1691   0012F0  61A2               	cpfslt	??_gpio_pin_write_logic& (0+255),b
  1692   0012F2  EF7D  F009         	goto	u3891
  1693   0012F6  EF7F  F009         	goto	u3890
  1694   0012FA                     u3891:
  1695   0012FA  EFF0  F009         	goto	l4724
  1696   0012FE                     u3890:
  1697   0012FE                     
  1698                           ; BSR set to: 0
  1699   0012FE  506C               	movf	gpio_pin_write_logic@_pin_config^0,w,c
  1700   001300  6ED9               	movwf	fsr2l,c
  1701   001302  6ADA               	clrf	fsr2h,c
  1702   001304  30DF               	rrcf	223,w,c
  1703   001306  32E8               	rrcf	wreg,f,c
  1704   001308  32E8               	rrcf	wreg,f,c
  1705   00130A  0B07               	andlw	7
  1706   00130C  6FA2               	movwf	??_gpio_pin_write_logic& (0+255),b
  1707   00130E  0E08               	movlw	8
  1708   001310  61A2               	cpfslt	??_gpio_pin_write_logic& (0+255),b
  1709   001312  EF8D  F009         	goto	u3901
  1710   001316  EF8F  F009         	goto	u3900
  1711   00131A                     u3901:
  1712   00131A  EFF0  F009         	goto	l4724
  1713   00131E                     u3900:
  1714   00131E                     
  1715                           ; BSR set to: 0
  1716                           ;MCAL_Layer/GPIO/mcal_gpio.c: 87:     {;MCAL_Layer/GPIO/mcal_gpio.c: 88:         if(_pin
      +                          _config->direction == GPIO_DIRECTION_OUTPUT)
  1717   00131E  506C               	movf	gpio_pin_write_logic@_pin_config^0,w,c
  1718   001320  6ED9               	movwf	fsr2l,c
  1719   001322  6ADA               	clrf	fsr2h,c
  1720   001324  BCDF               	btfsc	indf2,6,c
  1721   001326  EF97  F009         	goto	u3911
  1722   00132A  EF99  F009         	goto	u3910
  1723   00132E                     u3911:
  1724   00132E  EFF0  F009         	goto	l4724
  1725   001332                     u3910:
  1726   001332  EFF4  F009         	goto	l4726
  1727   001336                     l4720:
  1728                           
  1729                           ; BSR set to: 0
  1730                           ;MCAL_Layer/GPIO/mcal_gpio.c: 93:                     (*lat_registers[_pin_config->port]
      +                           &=~ ((uint8)0x01 << _pin_config->pin));
  1731   001336  506C               	movf	gpio_pin_write_logic@_pin_config^0,w,c
  1732   001338  6ED9               	movwf	fsr2l,c
  1733   00133A  6ADA               	clrf	fsr2h,c
  1734   00133C  30DF               	rrcf	223,w,c
  1735   00133E  32E8               	rrcf	wreg,f,c
  1736   001340  32E8               	rrcf	wreg,f,c
  1737   001342  0B07               	andlw	7
  1738   001344  6FA2               	movwf	??_gpio_pin_write_logic& (0+255),b
  1739   001346  0E01               	movlw	1
  1740   001348  6FA3               	movwf	(??_gpio_pin_write_logic+1)& (0+255),b
  1741   00134A  2BA2               	incf	??_gpio_pin_write_logic& (0+255),f,b
  1742   00134C  EFAA  F009         	goto	u3924
  1743   001350                     u3925:
  1744   001350  90D8               	bcf	status,0,c
  1745   001352  37A3               	rlcf	(??_gpio_pin_write_logic+1)& (0+255),f,b
  1746   001354                     u3924:
  1747   001354  2FA2               	decfsz	??_gpio_pin_write_logic& (0+255),f,b
  1748   001356  EFA8  F009         	goto	u3925
  1749   00135A  0100               	movlb	0	; () banked
  1750   00135C  51A3               	movf	(??_gpio_pin_write_logic+1)& (0+255),w,b
  1751   00135E  0AFF               	xorlw	255
  1752   001360  6FA4               	movwf	(??_gpio_pin_write_logic+2)& (0+255),b
  1753   001362  506C               	movf	gpio_pin_write_logic@_pin_config^0,w,c
  1754   001364  6ED9               	movwf	fsr2l,c
  1755   001366  6ADA               	clrf	fsr2h,c
  1756   001368  50DF               	movf	223,w,c
  1757   00136A  0B07               	andlw	7
  1758   00136C  0D02               	mullw	2
  1759   00136E  50F3               	movf	243,w,c
  1760   001370  0F35               	addlw	low _lat_registers
  1761   001372  6ED9               	movwf	fsr2l,c
  1762   001374  6ADA               	clrf	fsr2h,c
  1763   001376  CFDE F0A5          	movff	postinc2,??_gpio_pin_write_logic+3
  1764   00137A  CFDD F0A6          	movff	postdec2,??_gpio_pin_write_logic+4
  1765   00137E  C0A5  FFD9         	movff	??_gpio_pin_write_logic+3,fsr2l
  1766   001382  C0A6  FFDA         	movff	??_gpio_pin_write_logic+4,fsr2h
  1767   001386  51A4               	movf	(??_gpio_pin_write_logic+2)& (0+255),w,b
  1768   001388  16DF               	andwf	indf2,f,c
  1769                           
  1770                           ;MCAL_Layer/GPIO/mcal_gpio.c: 94:                     break;
  1771   00138A  EF09  F00A         	goto	l583
  1772   00138E                     l4722:
  1773                           
  1774                           ; BSR set to: 0
  1775                           ;MCAL_Layer/GPIO/mcal_gpio.c: 96:                     (*lat_registers[_pin_config->port]
      +                           |= ((uint8)0x01 << _pin_config->pin));
  1776   00138E  506C               	movf	gpio_pin_write_logic@_pin_config^0,w,c
  1777   001390  6ED9               	movwf	fsr2l,c
  1778   001392  6ADA               	clrf	fsr2h,c
  1779   001394  30DF               	rrcf	223,w,c
  1780   001396  32E8               	rrcf	wreg,f,c
  1781   001398  32E8               	rrcf	wreg,f,c
  1782   00139A  0B07               	andlw	7
  1783   00139C  6FA2               	movwf	??_gpio_pin_write_logic& (0+255),b
  1784   00139E  0E01               	movlw	1
  1785   0013A0  6FA3               	movwf	(??_gpio_pin_write_logic+1)& (0+255),b
  1786   0013A2  2BA2               	incf	??_gpio_pin_write_logic& (0+255),f,b
  1787   0013A4  EFD6  F009         	goto	u3934
  1788   0013A8                     u3935:
  1789   0013A8  90D8               	bcf	status,0,c
  1790   0013AA  37A3               	rlcf	(??_gpio_pin_write_logic+1)& (0+255),f,b
  1791   0013AC                     u3934:
  1792   0013AC  2FA2               	decfsz	??_gpio_pin_write_logic& (0+255),f,b
  1793   0013AE  EFD4  F009         	goto	u3935
  1794   0013B2  506C               	movf	gpio_pin_write_logic@_pin_config^0,w,c
  1795   0013B4  6ED9               	movwf	fsr2l,c
  1796   0013B6  6ADA               	clrf	fsr2h,c
  1797   0013B8  50DF               	movf	223,w,c
  1798   0013BA  0B07               	andlw	7
  1799   0013BC  0D02               	mullw	2
  1800   0013BE  50F3               	movf	243,w,c
  1801   0013C0  0F35               	addlw	low _lat_registers
  1802   0013C2  6ED9               	movwf	fsr2l,c
  1803   0013C4  6ADA               	clrf	fsr2h,c
  1804   0013C6  CFDE F0A4          	movff	postinc2,??_gpio_pin_write_logic+2
  1805   0013CA  CFDD F0A5          	movff	postdec2,??_gpio_pin_write_logic+3
  1806   0013CE  C0A4  FFD9         	movff	??_gpio_pin_write_logic+2,fsr2l
  1807   0013D2  C0A5  FFDA         	movff	??_gpio_pin_write_logic+3,fsr2h
  1808   0013D6  0100               	movlb	0	; () banked
  1809   0013D8  51A3               	movf	(??_gpio_pin_write_logic+1)& (0+255),w,b
  1810   0013DA  12DF               	iorwf	indf2,f,c
  1811                           
  1812                           ;MCAL_Layer/GPIO/mcal_gpio.c: 97:                     break;
  1813   0013DC  EF09  F00A         	goto	l583
  1814   0013E0                     l4724:
  1815   0013E0  0E00               	movlw	0
  1816   0013E2  6E6E               	movwf	gpio_pin_write_logic@ret^0,c
  1817                           
  1818                           ;MCAL_Layer/GPIO/mcal_gpio.c: 99:             }
  1819   0013E4  EF09  F00A         	goto	l583
  1820   0013E8                     l4726:
  1821                           
  1822                           ; BSR set to: 0
  1823   0013E8  506D               	movf	gpio_pin_write_logic@logic^0,w,c
  1824   0013EA  6FA2               	movwf	??_gpio_pin_write_logic& (0+255),b
  1825   0013EC  6BA3               	clrf	(??_gpio_pin_write_logic+1)& (0+255),b
  1826                           
  1827                           ; Switch on 2 bytes has been partitioned into a top level switch of size 1, and 1 sub-sw
      +                          itches
  1828                           ; Switch size 1, requested type "simple"
  1829                           ; Number of cases is 1, Range of values is 0 to 0
  1830                           ; switch strategies available:
  1831                           ; Name         Instructions Cycles
  1832                           ; simple_byte            4     3 (average)
  1833                           ;	Chosen strategy is simple_byte
  1834   0013EE  51A3               	movf	(??_gpio_pin_write_logic+1)& (0+255),w,b
  1835   0013F0  0A00               	xorlw	0	; case 0
  1836   0013F2  B4D8               	btfsc	status,2,c
  1837   0013F4  EFFE  F009         	goto	l5622
  1838   0013F8  EFF0  F009         	goto	l4724
  1839   0013FC                     l5622:
  1840                           
  1841                           ; BSR set to: 0
  1842                           ; Switch size 1, requested type "simple"
  1843                           ; Number of cases is 2, Range of values is 0 to 1
  1844                           ; switch strategies available:
  1845                           ; Name         Instructions Cycles
  1846                           ; simple_byte            7     4 (average)
  1847                           ;	Chosen strategy is simple_byte
  1848   0013FC  51A2               	movf	??_gpio_pin_write_logic& (0+255),w,b
  1849   0013FE  0A00               	xorlw	0	; case 0
  1850   001400  B4D8               	btfsc	status,2,c
  1851   001402  EF9B  F009         	goto	l4720
  1852   001406  0A01               	xorlw	1	; case 1
  1853   001408  B4D8               	btfsc	status,2,c
  1854   00140A  EFC7  F009         	goto	l4722
  1855   00140E  EFF0  F009         	goto	l4724
  1856   001412                     l583:
  1857                           
  1858                           ;MCAL_Layer/GPIO/mcal_gpio.c: 104:     return ret;
  1859   001412  506E               	movf	gpio_pin_write_logic@ret^0,w,c
  1860   001414  0012               	return		;funcret
  1861   001416                     __end_of_gpio_pin_write_logic:
  1862                           	callstack 0
  1863                           
  1864 ;; *************** function _gpio_pin_direction_initialize *****************
  1865 ;; Defined at:
  1866 ;;		line 34 in file "MCAL_Layer/GPIO/mcal_gpio.c"
  1867 ;; Parameters:    Size  Location     Type
  1868 ;;  _pin_config     1   16[COMRAM] PTR const struct .
  1869 ;;		 -> relay_initialize@pin(1), led_initialize@pin(1), 
  1870 ;; Auto vars:     Size  Location     Type
  1871 ;;  ret             1   17[COMRAM] unsigned char 
  1872 ;; Return value:  Size  Location     Type
  1873 ;;                  1    wreg      unsigned char 
  1874 ;; Registers used:
  1875 ;;		wreg, fsr2l, fsr2h, status,2, status,0, prodl, prodh
  1876 ;; Tracked objects:
  1877 ;;		On entry : 0/0
  1878 ;;		On exit  : 0/0
  1879 ;;		Unchanged: 0/0
  1880 ;; Data sizes:     COMRAM   BANK0   BANK1   BANK2   BANK3   BANK4   BANK5   BANK6   BANK7   BANK8   BANK9  BANK10  BANK1
      +1  BANK12  BANK13  BANK14  BANK15
  1881 ;;      Params:         1       0       0       0       0       0       0       0       0       0       0       0       
      +0       0       0       0       0
  1882 ;;      Locals:         1       0       0       0       0       0       0       0       0       0       0       0       
      +0       0       0       0       0
  1883 ;;      Temps:          0       5       0       0       0       0       0       0       0       0       0       0       
      +0       0       0       0       0
  1884 ;;      Totals:         2       5       0       0       0       0       0       0       0       0       0       0       
      +0       0       0       0       0
  1885 ;;Total ram usage:        7 bytes
  1886 ;; Hardware stack levels used: 1
  1887 ;; Hardware stack levels required when called: 7
  1888 ;; This function calls:
  1889 ;;		Nothing
  1890 ;; This function is called by:
  1891 ;;		_gpio_pin_initialize
  1892 ;;		_button_initialize
  1893 ;;		_keypad_initialize
  1894 ;;		_ext_interrupt_INTx_Init
  1895 ;;		_ext_interrupt_RBx_Init
  1896 ;; This function uses a non-reentrant model
  1897 ;;
  1898                           
  1899                           	psect	text12
  1900   001416                     __ptext12:
  1901                           	callstack 0
  1902   001416                     _gpio_pin_direction_initialize:
  1903                           	callstack 19
  1904   001416                     
  1905                           ;MCAL_Layer/GPIO/mcal_gpio.c: 34: Std_ReturnType gpio_pin_direction_initialize(const pin
      +                          _config_t *_pin_config);MCAL_Layer/GPIO/mcal_gpio.c: 35: {;MCAL_Layer/GPIO/mcal_gpio.c: 
      +                          36:     Std_ReturnType ret = (Std_ReturnType)0x01;
  1906   001416  0E01               	movlw	1
  1907   001418  6E6D               	movwf	gpio_pin_direction_initialize@ret^0,c
  1908                           
  1909                           ;MCAL_Layer/GPIO/mcal_gpio.c: 38:     if((_pin_config != ((void*)0)) && (_pin_config->po
      +                          rt <= 5 -1) && (_pin_config->pin <= 8 -1))
  1910   00141A  506C               	movf	gpio_pin_direction_initialize@_pin_config^0,w,c
  1911   00141C  B4D8               	btfsc	status,2,c
  1912   00141E  EF13  F00A         	goto	u3821
  1913   001422  EF15  F00A         	goto	u3820
  1914   001426                     u3821:
  1915   001426  EF8B  F00A         	goto	l4702
  1916   00142A                     u3820:
  1917   00142A  506C               	movf	gpio_pin_direction_initialize@_pin_config^0,w,c
  1918   00142C  6ED9               	movwf	fsr2l,c
  1919   00142E  6ADA               	clrf	fsr2h,c
  1920   001430  50DF               	movf	223,w,c
  1921   001432  0B07               	andlw	7
  1922   001434  0100               	movlb	0	; () banked
  1923   001436  6FA2               	movwf	??_gpio_pin_direction_initialize& (0+255),b
  1924   001438  0E05               	movlw	5
  1925   00143A  61A2               	cpfslt	??_gpio_pin_direction_initialize& (0+255),b
  1926   00143C  EF22  F00A         	goto	u3831
  1927   001440  EF24  F00A         	goto	u3830
  1928   001444                     u3831:
  1929   001444  EF8B  F00A         	goto	l4702
  1930   001448                     u3830:
  1931   001448                     
  1932                           ; BSR set to: 0
  1933   001448  506C               	movf	gpio_pin_direction_initialize@_pin_config^0,w,c
  1934   00144A  6ED9               	movwf	fsr2l,c
  1935   00144C  6ADA               	clrf	fsr2h,c
  1936   00144E  30DF               	rrcf	223,w,c
  1937   001450  32E8               	rrcf	wreg,f,c
  1938   001452  32E8               	rrcf	wreg,f,c
  1939   001454  0B07               	andlw	7
  1940   001456  6FA2               	movwf	??_gpio_pin_direction_initialize& (0+255),b
  1941   001458  0E08               	movlw	8
  1942   00145A  61A2               	cpfslt	??_gpio_pin_direction_initialize& (0+255),b
  1943   00145C  EF32  F00A         	goto	u3841
  1944   001460  EF34  F00A         	goto	u3840
  1945   001464                     u3841:
  1946   001464  EF8B  F00A         	goto	l4702
  1947   001468                     u3840:
  1948   001468  EF8F  F00A         	goto	l4704
  1949   00146C                     l4698:
  1950                           
  1951                           ; BSR set to: 0
  1952                           ;MCAL_Layer/GPIO/mcal_gpio.c: 43:                 (*tris_registers[_pin_config->port] &=
      +                          ~ ((uint8)0x01 << _pin_config->pin));
  1953   00146C  506C               	movf	gpio_pin_direction_initialize@_pin_config^0,w,c
  1954   00146E  6ED9               	movwf	fsr2l,c
  1955   001470  6ADA               	clrf	fsr2h,c
  1956   001472  30DF               	rrcf	223,w,c
  1957   001474  32E8               	rrcf	wreg,f,c
  1958   001476  32E8               	rrcf	wreg,f,c
  1959   001478  0B07               	andlw	7
  1960   00147A  6FA2               	movwf	??_gpio_pin_direction_initialize& (0+255),b
  1961   00147C  0E01               	movlw	1
  1962   00147E  6FA3               	movwf	(??_gpio_pin_direction_initialize+1)& (0+255),b
  1963   001480  2BA2               	incf	??_gpio_pin_direction_initialize& (0+255),f,b
  1964   001482  EF45  F00A         	goto	u3854
  1965   001486                     u3855:
  1966   001486  90D8               	bcf	status,0,c
  1967   001488  37A3               	rlcf	(??_gpio_pin_direction_initialize+1)& (0+255),f,b
  1968   00148A                     u3854:
  1969   00148A  2FA2               	decfsz	??_gpio_pin_direction_initialize& (0+255),f,b
  1970   00148C  EF43  F00A         	goto	u3855
  1971   001490  0100               	movlb	0	; () banked
  1972   001492  51A3               	movf	(??_gpio_pin_direction_initialize+1)& (0+255),w,b
  1973   001494  0AFF               	xorlw	255
  1974   001496  6FA4               	movwf	(??_gpio_pin_direction_initialize+2)& (0+255),b
  1975   001498  506C               	movf	gpio_pin_direction_initialize@_pin_config^0,w,c
  1976   00149A  6ED9               	movwf	fsr2l,c
  1977   00149C  6ADA               	clrf	fsr2h,c
  1978   00149E  50DF               	movf	223,w,c
  1979   0014A0  0B07               	andlw	7
  1980   0014A2  0D02               	mullw	2
  1981   0014A4  50F3               	movf	243,w,c
  1982   0014A6  0F3F               	addlw	low _tris_registers
  1983   0014A8  6ED9               	movwf	fsr2l,c
  1984   0014AA  6ADA               	clrf	fsr2h,c
  1985   0014AC  CFDE F0A5          	movff	postinc2,??_gpio_pin_direction_initialize+3
  1986   0014B0  CFDD F0A6          	movff	postdec2,??_gpio_pin_direction_initialize+4
  1987   0014B4  C0A5  FFD9         	movff	??_gpio_pin_direction_initialize+3,fsr2l
  1988   0014B8  C0A6  FFDA         	movff	??_gpio_pin_direction_initialize+4,fsr2h
  1989   0014BC  51A4               	movf	(??_gpio_pin_direction_initialize+2)& (0+255),w,b
  1990   0014BE  16DF               	andwf	indf2,f,c
  1991                           
  1992                           ;MCAL_Layer/GPIO/mcal_gpio.c: 44:                 break;
  1993   0014C0  EFA5  F00A         	goto	l566
  1994   0014C4                     l4700:
  1995                           
  1996                           ; BSR set to: 0
  1997                           ;MCAL_Layer/GPIO/mcal_gpio.c: 46:                 (*tris_registers[_pin_config->port] |=
      +                           ((uint8)0x01 << _pin_config->pin));
  1998   0014C4  506C               	movf	gpio_pin_direction_initialize@_pin_config^0,w,c
  1999   0014C6  6ED9               	movwf	fsr2l,c
  2000   0014C8  6ADA               	clrf	fsr2h,c
  2001   0014CA  30DF               	rrcf	223,w,c
  2002   0014CC  32E8               	rrcf	wreg,f,c
  2003   0014CE  32E8               	rrcf	wreg,f,c
  2004   0014D0  0B07               	andlw	7
  2005   0014D2  6FA2               	movwf	??_gpio_pin_direction_initialize& (0+255),b
  2006   0014D4  0E01               	movlw	1
  2007   0014D6  6FA3               	movwf	(??_gpio_pin_direction_initialize+1)& (0+255),b
  2008   0014D8  2BA2               	incf	??_gpio_pin_direction_initialize& (0+255),f,b
  2009   0014DA  EF71  F00A         	goto	u3864
  2010   0014DE                     u3865:
  2011   0014DE  90D8               	bcf	status,0,c
  2012   0014E0  37A3               	rlcf	(??_gpio_pin_direction_initialize+1)& (0+255),f,b
  2013   0014E2                     u3864:
  2014   0014E2  2FA2               	decfsz	??_gpio_pin_direction_initialize& (0+255),f,b
  2015   0014E4  EF6F  F00A         	goto	u3865
  2016   0014E8  506C               	movf	gpio_pin_direction_initialize@_pin_config^0,w,c
  2017   0014EA  6ED9               	movwf	fsr2l,c
  2018   0014EC  6ADA               	clrf	fsr2h,c
  2019   0014EE  50DF               	movf	223,w,c
  2020   0014F0  0B07               	andlw	7
  2021   0014F2  0D02               	mullw	2
  2022   0014F4  50F3               	movf	243,w,c
  2023   0014F6  0F3F               	addlw	low _tris_registers
  2024   0014F8  6ED9               	movwf	fsr2l,c
  2025   0014FA  6ADA               	clrf	fsr2h,c
  2026   0014FC  CFDE F0A4          	movff	postinc2,??_gpio_pin_direction_initialize+2
  2027   001500  CFDD F0A5          	movff	postdec2,??_gpio_pin_direction_initialize+3
  2028   001504  C0A4  FFD9         	movff	??_gpio_pin_direction_initialize+2,fsr2l
  2029   001508  C0A5  FFDA         	movff	??_gpio_pin_direction_initialize+3,fsr2h
  2030   00150C  0100               	movlb	0	; () banked
  2031   00150E  51A3               	movf	(??_gpio_pin_direction_initialize+1)& (0+255),w,b
  2032   001510  12DF               	iorwf	indf2,f,c
  2033                           
  2034                           ;MCAL_Layer/GPIO/mcal_gpio.c: 47:                 break;
  2035   001512  EFA5  F00A         	goto	l566
  2036   001516                     l4702:
  2037   001516  0E00               	movlw	0
  2038   001518  6E6D               	movwf	gpio_pin_direction_initialize@ret^0,c
  2039                           
  2040                           ;MCAL_Layer/GPIO/mcal_gpio.c: 49:         }
  2041   00151A  EFA5  F00A         	goto	l566
  2042   00151E                     l4704:
  2043                           
  2044                           ; BSR set to: 0
  2045   00151E  506C               	movf	gpio_pin_direction_initialize@_pin_config^0,w,c
  2046   001520  6ED9               	movwf	fsr2l,c
  2047   001522  6ADA               	clrf	fsr2h,c
  2048   001524  BCDF               	btfsc	indf2,6,c
  2049   001526  EF97  F00A         	goto	u3871
  2050   00152A  EF9A  F00A         	goto	u3870
  2051   00152E                     u3871:
  2052   00152E  0E01               	movlw	1
  2053   001530  EF9B  F00A         	goto	u3876
  2054   001534                     u3870:
  2055   001534  0E00               	movlw	0
  2056   001536                     u3876:
  2057                           
  2058                           ; Switch size 1, requested type "simple"
  2059                           ; Number of cases is 2, Range of values is 0 to 1
  2060                           ; switch strategies available:
  2061                           ; Name         Instructions Cycles
  2062                           ; simple_byte            7     4 (average)
  2063                           ;	Chosen strategy is simple_byte
  2064   001536  0A00               	xorlw	0	; case 0
  2065   001538  B4D8               	btfsc	status,2,c
  2066   00153A  EF36  F00A         	goto	l4698
  2067   00153E  0A01               	xorlw	1	; case 1
  2068   001540  B4D8               	btfsc	status,2,c
  2069   001542  EF62  F00A         	goto	l4700
  2070   001546  EF8B  F00A         	goto	l4702
  2071   00154A                     l566:
  2072                           
  2073                           ;MCAL_Layer/GPIO/mcal_gpio.c: 53:     return ret;
  2074   00154A  506D               	movf	gpio_pin_direction_initialize@ret^0,w,c
  2075   00154C  0012               	return		;funcret
  2076   00154E                     __end_of_gpio_pin_direction_initialize:
  2077                           	callstack 0
  2078                           
  2079 ;; *************** function _InterruptManagerLow *****************
  2080 ;; Defined at:
  2081 ;;		line 111 in file "MCAL_Layer/Interrupt/mcal_interrupt_manager.c"
  2082 ;; Parameters:    Size  Location     Type
  2083 ;;		None
  2084 ;; Auto vars:     Size  Location     Type
  2085 ;;		None
  2086 ;; Return value:  Size  Location     Type
  2087 ;;                  1    wreg      void 
  2088 ;; Registers used:
  2089 ;;		cstack
  2090 ;; Tracked objects:
  2091 ;;		On entry : 0/0
  2092 ;;		On exit  : 0/0
  2093 ;;		Unchanged: 0/0
  2094 ;; Data sizes:     COMRAM   BANK0   BANK1   BANK2   BANK3   BANK4   BANK5   BANK6   BANK7   BANK8   BANK9  BANK10  BANK1
      +1  BANK12  BANK13  BANK14  BANK15
  2095 ;;      Params:         0       0       0       0       0       0       0       0       0       0       0       0       
      +0       0       0       0       0
  2096 ;;      Locals:         0       0       0       0       0       0       0       0       0       0       0       0       
      +0       0       0       0       0
  2097 ;;      Temps:          1       0       0       0       0       0       0       0       0       0       0       0       
      +0       0       0       0       0
  2098 ;;      Totals:         1       0       0       0       0       0       0       0       0       0       0       0       
      +0       0       0       0       0
  2099 ;;Total ram usage:        1 bytes
  2100 ;; Hardware stack levels used: 1
  2101 ;; Hardware stack levels required when called: 6
  2102 ;; This function calls:
  2103 ;;		_INT1_ISR
  2104 ;;		_INT2_ISR
  2105 ;; This function is called by:
  2106 ;;		Interrupt level 1
  2107 ;; This function uses a non-reentrant model
  2108 ;;
  2109                           
  2110                           	psect	intcodelo
  2111   000018                     __pintcodelo:
  2112                           	callstack 0
  2113   000018                     _InterruptManagerLow:
  2114                           	callstack 19
  2115                           
  2116                           ;incstack = 0
  2117   000018  806F               	bsf	int$flags,0,c	;set compiler interrupt flag (level 1)
  2118   00001A  CFE0 F06B          	movff	bsr,??_InterruptManagerLow
  2119   00001E                     
  2120                           ;MCAL_Layer/Interrupt/mcal_interrupt_manager.c: 116:     if((1 == INTCON3bits.INT1IE) &&
      +                           (1 == INTCON3bits.INT1IF))
  2121   00001E  A6F0               	btfss	240,3,c	;volatile
  2122   000020  EF14  F000         	goto	i1u203_21
  2123   000024  EF16  F000         	goto	i1u203_20
  2124   000028                     i1u203_21:
  2125   000028  EF1F  F000         	goto	i1l693
  2126   00002C                     i1u203_20:
  2127   00002C  A0F0               	btfss	240,0,c	;volatile
  2128   00002E  EF1B  F000         	goto	i1u204_21
  2129   000032  EF1D  F000         	goto	i1u204_20
  2130   000036                     i1u204_21:
  2131   000036  EF1F  F000         	goto	i1l693
  2132   00003A                     i1u204_20:
  2133   00003A                     
  2134                           ;MCAL_Layer/Interrupt/mcal_interrupt_manager.c: 117:     {;MCAL_Layer/Interrupt/mcal_int
      +                          errupt_manager.c: 118:         INT1_ISR();
  2135   00003A  EC8A  F00D         	call	_INT1_ISR	;wreg free
  2136   00003E                     i1l693:
  2137                           
  2138                           ;MCAL_Layer/Interrupt/mcal_interrupt_manager.c: 121:     if((1 == INTCON3bits.INT2IE) &&
      +                           (1 == INTCON3bits.INT2IF))
  2139   00003E  A8F0               	btfss	240,4,c	;volatile
  2140   000040  EF24  F000         	goto	i1u205_21
  2141   000044  EF26  F000         	goto	i1u205_20
  2142   000048                     i1u205_21:
  2143   000048  EF2F  F000         	goto	i1l696
  2144   00004C                     i1u205_20:
  2145   00004C  A2F0               	btfss	240,1,c	;volatile
  2146   00004E  EF2B  F000         	goto	i1u206_21
  2147   000052  EF2D  F000         	goto	i1u206_20
  2148   000056                     i1u206_21:
  2149   000056  EF2F  F000         	goto	i1l696
  2150   00005A                     i1u206_20:
  2151   00005A                     
  2152                           ;MCAL_Layer/Interrupt/mcal_interrupt_manager.c: 122:     {;MCAL_Layer/Interrupt/mcal_int
      +                          errupt_manager.c: 123:         INT2_ISR();
  2153   00005A  EC88  F00D         	call	_INT2_ISR	;wreg free
  2154   00005E                     i1l696:
  2155   00005E  C06B  FFE0         	movff	??_InterruptManagerLow,bsr
  2156   000062  906F               	bcf	int$flags,0,c	;clear compiler interrupt flag (level 1)
  2157   000064  0010               	retfie	
  2158   000066                     __end_of_InterruptManagerLow:
  2159                           	callstack 0
  2160                           
  2161 ;; *************** function _INT2_ISR *****************
  2162 ;; Defined at:
  2163 ;;		line 218 in file "MCAL_Layer/Interrupt/mcal_external_interrupt.c"
  2164 ;; Parameters:    Size  Location     Type
  2165 ;;		None
  2166 ;; Auto vars:     Size  Location     Type
  2167 ;;		None
  2168 ;; Return value:  Size  Location     Type
  2169 ;;                  1    wreg      void 
  2170 ;; Registers used:
  2171 ;;		None
  2172 ;; Tracked objects:
  2173 ;;		On entry : 0/0
  2174 ;;		On exit  : 0/0
  2175 ;;		Unchanged: 0/0
  2176 ;; Data sizes:     COMRAM   BANK0   BANK1   BANK2   BANK3   BANK4   BANK5   BANK6   BANK7   BANK8   BANK9  BANK10  BANK1
      +1  BANK12  BANK13  BANK14  BANK15
  2177 ;;      Params:         0       0       0       0       0       0       0       0       0       0       0       0       
      +0       0       0       0       0
  2178 ;;      Locals:         0       0       0       0       0       0       0       0       0       0       0       0       
      +0       0       0       0       0
  2179 ;;      Temps:          0       0       0       0       0       0       0       0       0       0       0       0       
      +0       0       0       0       0
  2180 ;;      Totals:         0       0       0       0       0       0       0       0       0       0       0       0       
      +0       0       0       0       0
  2181 ;;Total ram usage:        0 bytes
  2182 ;; Hardware stack levels used: 1
  2183 ;; Hardware stack levels required when called: 5
  2184 ;; This function calls:
  2185 ;;		Nothing
  2186 ;; This function is called by:
  2187 ;;		_InterruptManagerLow
  2188 ;; This function uses a non-reentrant model
  2189 ;;
  2190                           
  2191                           	psect	text14
  2192   001B10                     __ptext14:
  2193                           	callstack 0
  2194   001B10                     _INT2_ISR:
  2195                           	callstack 19
  2196   001B10                     
  2197                           ;MCAL_Layer/Interrupt/mcal_external_interrupt.c: 221:     (INTCON3bits.INT2IF = 0);
  2198   001B10  92F0               	bcf	240,1,c	;volatile
  2199   001B12  0012               	return		;funcret
  2200   001B14                     __end_of_INT2_ISR:
  2201                           	callstack 0
  2202                           
  2203 ;; *************** function _INT1_ISR *****************
  2204 ;; Defined at:
  2205 ;;		line 204 in file "MCAL_Layer/Interrupt/mcal_external_interrupt.c"
  2206 ;; Parameters:    Size  Location     Type
  2207 ;;		None
  2208 ;; Auto vars:     Size  Location     Type
  2209 ;;		None
  2210 ;; Return value:  Size  Location     Type
  2211 ;;                  1    wreg      void 
  2212 ;; Registers used:
  2213 ;;		None
  2214 ;; Tracked objects:
  2215 ;;		On entry : 0/0
  2216 ;;		On exit  : 0/0
  2217 ;;		Unchanged: 0/0
  2218 ;; Data sizes:     COMRAM   BANK0   BANK1   BANK2   BANK3   BANK4   BANK5   BANK6   BANK7   BANK8   BANK9  BANK10  BANK1
      +1  BANK12  BANK13  BANK14  BANK15
  2219 ;;      Params:         0       0       0       0       0       0       0       0       0       0       0       0       
      +0       0       0       0       0
  2220 ;;      Locals:         0       0       0       0       0       0       0       0       0       0       0       0       
      +0       0       0       0       0
  2221 ;;      Temps:          0       0       0       0       0       0       0       0       0       0       0       0       
      +0       0       0       0       0
  2222 ;;      Totals:         0       0       0       0       0       0       0       0       0       0       0       0       
      +0       0       0       0       0
  2223 ;;Total ram usage:        0 bytes
  2224 ;; Hardware stack levels used: 1
  2225 ;; Hardware stack levels required when called: 5
  2226 ;; This function calls:
  2227 ;;		Nothing
  2228 ;; This function is called by:
  2229 ;;		_InterruptManagerLow
  2230 ;; This function uses a non-reentrant model
  2231 ;;
  2232                           
  2233                           	psect	text15
  2234   001B14                     __ptext15:
  2235                           	callstack 0
  2236   001B14                     _INT1_ISR:
  2237                           	callstack 19
  2238   001B14                     
  2239                           ;MCAL_Layer/Interrupt/mcal_external_interrupt.c: 207:     (INTCON3bits.INT1IF = 0);
  2240   001B14  90F0               	bcf	240,0,c	;volatile
  2241   001B16  0012               	return		;funcret
  2242   001B18                     __end_of_INT1_ISR:
  2243                           	callstack 0
  2244                           
  2245 ;; *************** function _InterruptManagerHigh *****************
  2246 ;; Defined at:
  2247 ;;		line 28 in file "MCAL_Layer/Interrupt/mcal_interrupt_manager.c"
  2248 ;; Parameters:    Size  Location     Type
  2249 ;;		None
  2250 ;; Auto vars:     Size  Location     Type
  2251 ;;		None
  2252 ;; Return value:  Size  Location     Type
  2253 ;;                  1    wreg      void 
  2254 ;; Registers used:
  2255 ;;		wreg, fsr2l, fsr2h, status,2, status,0, pcl, pclath, pclatu, tosl, prodl, prodh, cstack
  2256 ;; Tracked objects:
  2257 ;;		On entry : 0/0
  2258 ;;		On exit  : 0/0
  2259 ;;		Unchanged: 0/0
  2260 ;; Data sizes:     COMRAM   BANK0   BANK1   BANK2   BANK3   BANK4   BANK5   BANK6   BANK7   BANK8   BANK9  BANK10  BANK1
      +1  BANK12  BANK13  BANK14  BANK15
  2261 ;;      Params:         0       0       0       0       0       0       0       0       0       0       0       0       
      +0       0       0       0       0
  2262 ;;      Locals:         0       0       0       0       0       0       0       0       0       0       0       0       
      +0       0       0       0       0
  2263 ;;      Temps:          6       0       0       0       0       0       0       0       0       0       0       0       
      +0       0       0       0       0
  2264 ;;      Totals:         6       0       0       0       0       0       0       0       0       0       0       0       
      +0       0       0       0       0
  2265 ;;Total ram usage:        6 bytes
  2266 ;; Hardware stack levels used: 1
  2267 ;; Hardware stack levels required when called: 4
  2268 ;; This function calls:
  2269 ;;		_ADC_ISR
  2270 ;;		_INT0_ISR
  2271 ;;		_RB4_ISR
  2272 ;;		_RB5_ISR
  2273 ;;		_RB6_ISR
  2274 ;;		_RB7_ISR
  2275 ;;		_TIMER0_ISR
  2276 ;; This function is called by:
  2277 ;;		Interrupt level 2
  2278 ;; This function uses a non-reentrant model
  2279 ;;
  2280                           
  2281                           	psect	intcode
  2282   000008                     __pintcode:
  2283                           	callstack 0
  2284   000008                     _InterruptManagerHigh:
  2285                           	callstack 19
  2286                           
  2287                           ;incstack = 0
  2288   000008  826F               	bsf	int$flags,1,c	;set compiler interrupt flag (level 2)
  2289   00000A  ED0B  F008         	call	int_func,f	;refresh shadow registers
  2290                           
  2291                           	psect	intcode_body
  2292   001016                     __pintcode_body:
  2293                           	callstack 19
  2294   001016                     int_func:
  2295                           	callstack 19
  2296   001016  0006               	pop		; remove dummy address from shadow register refresh
  2297   001018  CFFA F065          	movff	pclath,??_InterruptManagerHigh
  2298   00101C  CFFB F066          	movff	pclatu,??_InterruptManagerHigh+1
  2299   001020  CFD9 F067          	movff	fsr2l,??_InterruptManagerHigh+2
  2300   001024  CFDA F068          	movff	fsr2h,??_InterruptManagerHigh+3
  2301   001028  CFF3 F069          	movff	prodl,??_InterruptManagerHigh+4
  2302   00102C  CFF4 F06A          	movff	prodh,??_InterruptManagerHigh+5
  2303   001030                     
  2304                           ;MCAL_Layer/Interrupt/mcal_interrupt_manager.c: 33:     if((1 == INTCONbits.INT0IE) && (
      +                          1 == INTCONbits.INT0IF))
  2305   001030  A8F2               	btfss	242,4,c	;volatile
  2306   001032  EF1D  F008         	goto	i2u342_41
  2307   001036  EF1F  F008         	goto	i2u342_40
  2308   00103A                     i2u342_41:
  2309   00103A  EF28  F008         	goto	i2l666
  2310   00103E                     i2u342_40:
  2311   00103E  A2F2               	btfss	242,1,c	;volatile
  2312   001040  EF24  F008         	goto	i2u343_41
  2313   001044  EF26  F008         	goto	i2u343_40
  2314   001048                     i2u343_41:
  2315   001048  EF28  F008         	goto	i2l666
  2316   00104C                     i2u343_40:
  2317   00104C                     
  2318                           ;MCAL_Layer/Interrupt/mcal_interrupt_manager.c: 34:     {;MCAL_Layer/Interrupt/mcal_inte
      +                          rrupt_manager.c: 35:         INT0_ISR();
  2319   00104C  EC8C  F00D         	call	_INT0_ISR	;wreg free
  2320   001050                     i2l666:
  2321                           
  2322                           ;MCAL_Layer/Interrupt/mcal_interrupt_manager.c: 42:     if((1 == INTCONbits.RBIE) && (1 
      +                          == INTCONbits.RBIF) && (GPIO_LOGIC_LOW == PORTBbits.RB4) && (1 == RB4_flag))
  2323   001050  A6F2               	btfss	242,3,c	;volatile
  2324   001052  EF2D  F008         	goto	i2u344_41
  2325   001056  EF2F  F008         	goto	i2u344_40
  2326   00105A                     i2u344_41:
  2327   00105A  EF4A  F008         	goto	i2l668
  2328   00105E                     i2u344_40:
  2329   00105E  A0F2               	btfss	242,0,c	;volatile
  2330   001060  EF34  F008         	goto	i2u345_41
  2331   001064  EF36  F008         	goto	i2u345_40
  2332   001068                     i2u345_41:
  2333   001068  EF4A  F008         	goto	i2l668
  2334   00106C                     i2u345_40:
  2335   00106C  B881               	btfsc	129,4,c	;volatile
  2336   00106E  EF3B  F008         	goto	i2u346_41
  2337   001072  EF3D  F008         	goto	i2u346_40
  2338   001076                     i2u346_41:
  2339   001076  EF4A  F008         	goto	i2l668
  2340   00107A                     i2u346_40:
  2341   00107A  042A               	decf	_RB4_flag^0,w,c	;volatile
  2342   00107C  A4D8               	btfss	status,2,c
  2343   00107E  EF43  F008         	goto	i2u347_41
  2344   001082  EF45  F008         	goto	i2u347_40
  2345   001086                     i2u347_41:
  2346   001086  EF4A  F008         	goto	i2l668
  2347   00108A                     i2u347_40:
  2348   00108A                     
  2349                           ;MCAL_Layer/Interrupt/mcal_interrupt_manager.c: 43:     {;MCAL_Layer/Interrupt/mcal_inte
      +                          rrupt_manager.c: 44:         RB4_flag = 0;
  2350   00108A  0E00               	movlw	0
  2351   00108C  6E2A               	movwf	_RB4_flag^0,c	;volatile
  2352   00108E                     
  2353                           ;MCAL_Layer/Interrupt/mcal_interrupt_manager.c: 45:         RB4_ISR(0);
  2354   00108E  0E00               	movlw	0
  2355   001090  EC62  F00D         	call	_RB4_ISR
  2356   001094                     i2l668:
  2357                           
  2358                           ;MCAL_Layer/Interrupt/mcal_interrupt_manager.c: 48:     if((1 == INTCONbits.RBIE) && (1 
      +                          == INTCONbits.RBIF) && (GPIO_LOGIC_HIGH == PORTBbits.RB4) && (0 == RB4_flag))
  2359   001094  A6F2               	btfss	242,3,c	;volatile
  2360   001096  EF4F  F008         	goto	i2u348_41
  2361   00109A  EF51  F008         	goto	i2u348_40
  2362   00109E                     i2u348_41:
  2363   00109E  EF6C  F008         	goto	i2l670
  2364   0010A2                     i2u348_40:
  2365   0010A2  A0F2               	btfss	242,0,c	;volatile
  2366   0010A4  EF56  F008         	goto	i2u349_41
  2367   0010A8  EF58  F008         	goto	i2u349_40
  2368   0010AC                     i2u349_41:
  2369   0010AC  EF6C  F008         	goto	i2l670
  2370   0010B0                     i2u349_40:
  2371   0010B0  A881               	btfss	129,4,c	;volatile
  2372   0010B2  EF5D  F008         	goto	i2u350_41
  2373   0010B6  EF5F  F008         	goto	i2u350_40
  2374   0010BA                     i2u350_41:
  2375   0010BA  EF6C  F008         	goto	i2l670
  2376   0010BE                     i2u350_40:
  2377   0010BE  502A               	movf	_RB4_flag^0,w,c	;volatile
  2378   0010C0  A4D8               	btfss	status,2,c
  2379   0010C2  EF65  F008         	goto	i2u351_41
  2380   0010C6  EF67  F008         	goto	i2u351_40
  2381   0010CA                     i2u351_41:
  2382   0010CA  EF6C  F008         	goto	i2l670
  2383   0010CE                     i2u351_40:
  2384   0010CE                     
  2385                           ;MCAL_Layer/Interrupt/mcal_interrupt_manager.c: 49:     {;MCAL_Layer/Interrupt/mcal_inte
      +                          rrupt_manager.c: 50:         RB4_flag = 1;
  2386   0010CE  0E01               	movlw	1
  2387   0010D0  6E2A               	movwf	_RB4_flag^0,c	;volatile
  2388   0010D2                     
  2389                           ;MCAL_Layer/Interrupt/mcal_interrupt_manager.c: 51:         RB4_ISR(1);
  2390   0010D2  0E01               	movlw	1
  2391   0010D4  EC62  F00D         	call	_RB4_ISR
  2392   0010D8                     i2l670:
  2393                           
  2394                           ;MCAL_Layer/Interrupt/mcal_interrupt_manager.c: 54:     if((1 == INTCONbits.RBIE) && (1 
      +                          == INTCONbits.RBIF) && (GPIO_LOGIC_LOW == PORTBbits.RB5) && (1 == RB5_flag))
  2395   0010D8  A6F2               	btfss	242,3,c	;volatile
  2396   0010DA  EF71  F008         	goto	i2u352_41
  2397   0010DE  EF73  F008         	goto	i2u352_40
  2398   0010E2                     i2u352_41:
  2399   0010E2  EF8E  F008         	goto	i2l672
  2400   0010E6                     i2u352_40:
  2401   0010E6  A0F2               	btfss	242,0,c	;volatile
  2402   0010E8  EF78  F008         	goto	i2u353_41
  2403   0010EC  EF7A  F008         	goto	i2u353_40
  2404   0010F0                     i2u353_41:
  2405   0010F0  EF8E  F008         	goto	i2l672
  2406   0010F4                     i2u353_40:
  2407   0010F4  BA81               	btfsc	129,5,c	;volatile
  2408   0010F6  EF7F  F008         	goto	i2u354_41
  2409   0010FA  EF81  F008         	goto	i2u354_40
  2410   0010FE                     i2u354_41:
  2411   0010FE  EF8E  F008         	goto	i2l672
  2412   001102                     i2u354_40:
  2413   001102  0429               	decf	_RB5_flag^0,w,c	;volatile
  2414   001104  A4D8               	btfss	status,2,c
  2415   001106  EF87  F008         	goto	i2u355_41
  2416   00110A  EF89  F008         	goto	i2u355_40
  2417   00110E                     i2u355_41:
  2418   00110E  EF8E  F008         	goto	i2l672
  2419   001112                     i2u355_40:
  2420   001112                     
  2421                           ;MCAL_Layer/Interrupt/mcal_interrupt_manager.c: 55:     {;MCAL_Layer/Interrupt/mcal_inte
      +                          rrupt_manager.c: 56:         RB5_flag = 0;
  2422   001112  0E00               	movlw	0
  2423   001114  6E29               	movwf	_RB5_flag^0,c	;volatile
  2424   001116                     
  2425                           ;MCAL_Layer/Interrupt/mcal_interrupt_manager.c: 57:         RB5_ISR(0);
  2426   001116  0E00               	movlw	0
  2427   001118  EC55  F00D         	call	_RB5_ISR
  2428   00111C                     i2l672:
  2429                           
  2430                           ;MCAL_Layer/Interrupt/mcal_interrupt_manager.c: 60:     if((1 == INTCONbits.RBIE) && (1 
      +                          == INTCONbits.RBIF) && (GPIO_LOGIC_HIGH == PORTBbits.RB5) && (0 == RB5_flag))
  2431   00111C  A6F2               	btfss	242,3,c	;volatile
  2432   00111E  EF93  F008         	goto	i2u356_41
  2433   001122  EF95  F008         	goto	i2u356_40
  2434   001126                     i2u356_41:
  2435   001126  EFB0  F008         	goto	i2l674
  2436   00112A                     i2u356_40:
  2437   00112A  A0F2               	btfss	242,0,c	;volatile
  2438   00112C  EF9A  F008         	goto	i2u357_41
  2439   001130  EF9C  F008         	goto	i2u357_40
  2440   001134                     i2u357_41:
  2441   001134  EFB0  F008         	goto	i2l674
  2442   001138                     i2u357_40:
  2443   001138  AA81               	btfss	129,5,c	;volatile
  2444   00113A  EFA1  F008         	goto	i2u358_41
  2445   00113E  EFA3  F008         	goto	i2u358_40
  2446   001142                     i2u358_41:
  2447   001142  EFB0  F008         	goto	i2l674
  2448   001146                     i2u358_40:
  2449   001146  5029               	movf	_RB5_flag^0,w,c	;volatile
  2450   001148  A4D8               	btfss	status,2,c
  2451   00114A  EFA9  F008         	goto	i2u359_41
  2452   00114E  EFAB  F008         	goto	i2u359_40
  2453   001152                     i2u359_41:
  2454   001152  EFB0  F008         	goto	i2l674
  2455   001156                     i2u359_40:
  2456   001156                     
  2457                           ;MCAL_Layer/Interrupt/mcal_interrupt_manager.c: 61:     {;MCAL_Layer/Interrupt/mcal_inte
      +                          rrupt_manager.c: 62:         RB5_flag = 1;
  2458   001156  0E01               	movlw	1
  2459   001158  6E29               	movwf	_RB5_flag^0,c	;volatile
  2460   00115A                     
  2461                           ;MCAL_Layer/Interrupt/mcal_interrupt_manager.c: 63:         RB5_ISR(1);
  2462   00115A  0E01               	movlw	1
  2463   00115C  EC55  F00D         	call	_RB5_ISR
  2464   001160                     i2l674:
  2465                           
  2466                           ;MCAL_Layer/Interrupt/mcal_interrupt_manager.c: 66:     if((1 == INTCONbits.RBIE) && (1 
      +                          == INTCONbits.RBIF) && (GPIO_LOGIC_LOW == PORTBbits.RB6) && (1 == RB6_flag))
  2467   001160  A6F2               	btfss	242,3,c	;volatile
  2468   001162  EFB5  F008         	goto	i2u360_41
  2469   001166  EFB7  F008         	goto	i2u360_40
  2470   00116A                     i2u360_41:
  2471   00116A  EFD2  F008         	goto	i2l676
  2472   00116E                     i2u360_40:
  2473   00116E  A0F2               	btfss	242,0,c	;volatile
  2474   001170  EFBC  F008         	goto	i2u361_41
  2475   001174  EFBE  F008         	goto	i2u361_40
  2476   001178                     i2u361_41:
  2477   001178  EFD2  F008         	goto	i2l676
  2478   00117C                     i2u361_40:
  2479   00117C  BC81               	btfsc	129,6,c	;volatile
  2480   00117E  EFC3  F008         	goto	i2u362_41
  2481   001182  EFC5  F008         	goto	i2u362_40
  2482   001186                     i2u362_41:
  2483   001186  EFD2  F008         	goto	i2l676
  2484   00118A                     i2u362_40:
  2485   00118A  0428               	decf	_RB6_flag^0,w,c	;volatile
  2486   00118C  A4D8               	btfss	status,2,c
  2487   00118E  EFCB  F008         	goto	i2u363_41
  2488   001192  EFCD  F008         	goto	i2u363_40
  2489   001196                     i2u363_41:
  2490   001196  EFD2  F008         	goto	i2l676
  2491   00119A                     i2u363_40:
  2492   00119A                     
  2493                           ;MCAL_Layer/Interrupt/mcal_interrupt_manager.c: 67:     {;MCAL_Layer/Interrupt/mcal_inte
      +                          rrupt_manager.c: 68:         RB6_flag = 0;
  2494   00119A  0E00               	movlw	0
  2495   00119C  6E28               	movwf	_RB6_flag^0,c	;volatile
  2496   00119E                     
  2497                           ;MCAL_Layer/Interrupt/mcal_interrupt_manager.c: 69:         RB6_ISR(0);
  2498   00119E  0E00               	movlw	0
  2499   0011A0  EC48  F00D         	call	_RB6_ISR
  2500   0011A4                     i2l676:
  2501                           
  2502                           ;MCAL_Layer/Interrupt/mcal_interrupt_manager.c: 72:     if((1 == INTCONbits.RBIE) && (1 
      +                          == INTCONbits.RBIF) && (GPIO_LOGIC_HIGH == PORTBbits.RB6) && (0 == RB6_flag))
  2503   0011A4  A6F2               	btfss	242,3,c	;volatile
  2504   0011A6  EFD7  F008         	goto	i2u364_41
  2505   0011AA  EFD9  F008         	goto	i2u364_40
  2506   0011AE                     i2u364_41:
  2507   0011AE  EFF4  F008         	goto	i2l678
  2508   0011B2                     i2u364_40:
  2509   0011B2  A0F2               	btfss	242,0,c	;volatile
  2510   0011B4  EFDE  F008         	goto	i2u365_41
  2511   0011B8  EFE0  F008         	goto	i2u365_40
  2512   0011BC                     i2u365_41:
  2513   0011BC  EFF4  F008         	goto	i2l678
  2514   0011C0                     i2u365_40:
  2515   0011C0  AC81               	btfss	129,6,c	;volatile
  2516   0011C2  EFE5  F008         	goto	i2u366_41
  2517   0011C6  EFE7  F008         	goto	i2u366_40
  2518   0011CA                     i2u366_41:
  2519   0011CA  EFF4  F008         	goto	i2l678
  2520   0011CE                     i2u366_40:
  2521   0011CE  5028               	movf	_RB6_flag^0,w,c	;volatile
  2522   0011D0  A4D8               	btfss	status,2,c
  2523   0011D2  EFED  F008         	goto	i2u367_41
  2524   0011D6  EFEF  F008         	goto	i2u367_40
  2525   0011DA                     i2u367_41:
  2526   0011DA  EFF4  F008         	goto	i2l678
  2527   0011DE                     i2u367_40:
  2528   0011DE                     
  2529                           ;MCAL_Layer/Interrupt/mcal_interrupt_manager.c: 73:     {;MCAL_Layer/Interrupt/mcal_inte
      +                          rrupt_manager.c: 74:         RB6_flag = 1;
  2530   0011DE  0E01               	movlw	1
  2531   0011E0  6E28               	movwf	_RB6_flag^0,c	;volatile
  2532   0011E2                     
  2533                           ;MCAL_Layer/Interrupt/mcal_interrupt_manager.c: 75:         RB6_ISR(1);
  2534   0011E2  0E01               	movlw	1
  2535   0011E4  EC48  F00D         	call	_RB6_ISR
  2536   0011E8                     i2l678:
  2537                           
  2538                           ;MCAL_Layer/Interrupt/mcal_interrupt_manager.c: 78:     if((1 == INTCONbits.RBIE) && (1 
      +                          == INTCONbits.RBIF) && (GPIO_LOGIC_LOW == PORTBbits.RB7) && (1 == RB7_flag))
  2539   0011E8  A6F2               	btfss	242,3,c	;volatile
  2540   0011EA  EFF9  F008         	goto	i2u368_41
  2541   0011EE  EFFB  F008         	goto	i2u368_40
  2542   0011F2                     i2u368_41:
  2543   0011F2  EF16  F009         	goto	i2l680
  2544   0011F6                     i2u368_40:
  2545   0011F6  A0F2               	btfss	242,0,c	;volatile
  2546   0011F8  EF00  F009         	goto	i2u369_41
  2547   0011FC  EF02  F009         	goto	i2u369_40
  2548   001200                     i2u369_41:
  2549   001200  EF16  F009         	goto	i2l680
  2550   001204                     i2u369_40:
  2551   001204  BE81               	btfsc	129,7,c	;volatile
  2552   001206  EF07  F009         	goto	i2u370_41
  2553   00120A  EF09  F009         	goto	i2u370_40
  2554   00120E                     i2u370_41:
  2555   00120E  EF16  F009         	goto	i2l680
  2556   001212                     i2u370_40:
  2557   001212  0427               	decf	_RB7_flag^0,w,c	;volatile
  2558   001214  A4D8               	btfss	status,2,c
  2559   001216  EF0F  F009         	goto	i2u371_41
  2560   00121A  EF11  F009         	goto	i2u371_40
  2561   00121E                     i2u371_41:
  2562   00121E  EF16  F009         	goto	i2l680
  2563   001222                     i2u371_40:
  2564   001222                     
  2565                           ;MCAL_Layer/Interrupt/mcal_interrupt_manager.c: 79:     {;MCAL_Layer/Interrupt/mcal_inte
      +                          rrupt_manager.c: 80:         RB7_flag = 0;
  2566   001222  0E00               	movlw	0
  2567   001224  6E27               	movwf	_RB7_flag^0,c	;volatile
  2568   001226                     
  2569                           ;MCAL_Layer/Interrupt/mcal_interrupt_manager.c: 81:         RB7_ISR(0);
  2570   001226  0E00               	movlw	0
  2571   001228  EC3B  F00D         	call	_RB7_ISR
  2572   00122C                     i2l680:
  2573                           
  2574                           ;MCAL_Layer/Interrupt/mcal_interrupt_manager.c: 84:     if((1 == INTCONbits.RBIE) && (1 
      +                          == INTCONbits.RBIF) && (GPIO_LOGIC_HIGH == PORTBbits.RB7) && (0 == RB7_flag))
  2575   00122C  A6F2               	btfss	242,3,c	;volatile
  2576   00122E  EF1B  F009         	goto	i2u372_41
  2577   001232  EF1D  F009         	goto	i2u372_40
  2578   001236                     i2u372_41:
  2579   001236  EF38  F009         	goto	i2l682
  2580   00123A                     i2u372_40:
  2581   00123A  A0F2               	btfss	242,0,c	;volatile
  2582   00123C  EF22  F009         	goto	i2u373_41
  2583   001240  EF24  F009         	goto	i2u373_40
  2584   001244                     i2u373_41:
  2585   001244  EF38  F009         	goto	i2l682
  2586   001248                     i2u373_40:
  2587   001248  AE81               	btfss	129,7,c	;volatile
  2588   00124A  EF29  F009         	goto	i2u374_41
  2589   00124E  EF2B  F009         	goto	i2u374_40
  2590   001252                     i2u374_41:
  2591   001252  EF38  F009         	goto	i2l682
  2592   001256                     i2u374_40:
  2593   001256  5027               	movf	_RB7_flag^0,w,c	;volatile
  2594   001258  A4D8               	btfss	status,2,c
  2595   00125A  EF31  F009         	goto	i2u375_41
  2596   00125E  EF33  F009         	goto	i2u375_40
  2597   001262                     i2u375_41:
  2598   001262  EF38  F009         	goto	i2l682
  2599   001266                     i2u375_40:
  2600   001266                     
  2601                           ;MCAL_Layer/Interrupt/mcal_interrupt_manager.c: 85:     {;MCAL_Layer/Interrupt/mcal_inte
      +                          rrupt_manager.c: 86:         RB7_flag = 1;
  2602   001266  0E01               	movlw	1
  2603   001268  6E27               	movwf	_RB7_flag^0,c	;volatile
  2604   00126A                     
  2605                           ;MCAL_Layer/Interrupt/mcal_interrupt_manager.c: 87:         RB7_ISR(1);
  2606   00126A  0E01               	movlw	1
  2607   00126C  EC3B  F00D         	call	_RB7_ISR
  2608   001270                     i2l682:
  2609                           
  2610                           ;MCAL_Layer/Interrupt/mcal_interrupt_manager.c: 94:     if((1 == PIE1bits.ADIE) && (1 ==
      +                           PIR1bits.ADIF))
  2611   001270  AC9D               	btfss	157,6,c	;volatile
  2612   001272  EF3D  F009         	goto	i2u376_41
  2613   001276  EF3F  F009         	goto	i2u376_40
  2614   00127A                     i2u376_41:
  2615   00127A  EF48  F009         	goto	i2l684
  2616   00127E                     i2u376_40:
  2617   00127E  AC9E               	btfss	158,6,c	;volatile
  2618   001280  EF44  F009         	goto	i2u377_41
  2619   001284  EF46  F009         	goto	i2u377_40
  2620   001288                     i2u377_41:
  2621   001288  EF48  F009         	goto	i2l684
  2622   00128C                     i2u377_40:
  2623   00128C                     
  2624                           ;MCAL_Layer/Interrupt/mcal_interrupt_manager.c: 95:     {;MCAL_Layer/Interrupt/mcal_inte
      +                          rrupt_manager.c: 96:         ADC_ISR();
  2625   00128C  EC8E  F00D         	call	_ADC_ISR	;wreg free
  2626   001290                     i2l684:
  2627                           
  2628                           ;MCAL_Layer/Interrupt/mcal_interrupt_manager.c: 103:     if((1 == INTCONbits.TMR0IE) && 
      +                          (1 == INTCONbits.TMR0IF))
  2629   001290  AAF2               	btfss	242,5,c	;volatile
  2630   001292  EF4D  F009         	goto	i2u378_41
  2631   001296  EF4F  F009         	goto	i2u378_40
  2632   00129A                     i2u378_41:
  2633   00129A  EF58  F009         	goto	i2l687
  2634   00129E                     i2u378_40:
  2635   00129E  A4F2               	btfss	242,2,c	;volatile
  2636   0012A0  EF54  F009         	goto	i2u379_41
  2637   0012A4  EF56  F009         	goto	i2u379_40
  2638   0012A8                     i2u379_41:
  2639   0012A8  EF58  F009         	goto	i2l687
  2640   0012AC                     i2u379_40:
  2641   0012AC                     
  2642                           ;MCAL_Layer/Interrupt/mcal_interrupt_manager.c: 104:     {;MCAL_Layer/Interrupt/mcal_int
      +                          errupt_manager.c: 105:         TIMER0_ISR();
  2643   0012AC  ECEE  F00C         	call	_TIMER0_ISR	;wreg free
  2644   0012B0                     i2l687:
  2645   0012B0  C06A  FFF4         	movff	??_InterruptManagerHigh+5,prodh
  2646   0012B4  C069  FFF3         	movff	??_InterruptManagerHigh+4,prodl
  2647   0012B8  C068  FFDA         	movff	??_InterruptManagerHigh+3,fsr2h
  2648   0012BC  C067  FFD9         	movff	??_InterruptManagerHigh+2,fsr2l
  2649   0012C0  C066  FFFB         	movff	??_InterruptManagerHigh+1,pclatu
  2650   0012C4  C065  FFFA         	movff	??_InterruptManagerHigh,pclath
  2651   0012C8  926F               	bcf	int$flags,1,c	;clear compiler interrupt flag (level 2)
  2652   0012CA  0011               	retfie		f
  2653   0012CC                     __end_of_InterruptManagerHigh:
  2654                           	callstack 0
  2655                           
  2656 ;; *************** function _TIMER0_ISR *****************
  2657 ;; Defined at:
  2658 ;;		line 179 in file "MCAL_Layer/Timer0/mcal_timer0.c"
  2659 ;; Parameters:    Size  Location     Type
  2660 ;;		None
  2661 ;; Auto vars:     Size  Location     Type
  2662 ;;		None
  2663 ;; Return value:  Size  Location     Type
  2664 ;;                  1    wreg      void 
  2665 ;; Registers used:
  2666 ;;		wreg, fsr2l, fsr2h, status,2, status,0, pcl, pclath, pclatu, tosl, prodl, prodh, cstack
  2667 ;; Tracked objects:
  2668 ;;		On entry : 0/0
  2669 ;;		On exit  : 0/0
  2670 ;;		Unchanged: 0/0
  2671 ;; Data sizes:     COMRAM   BANK0   BANK1   BANK2   BANK3   BANK4   BANK5   BANK6   BANK7   BANK8   BANK9  BANK10  BANK1
      +1  BANK12  BANK13  BANK14  BANK15
  2672 ;;      Params:         0       0       0       0       0       0       0       0       0       0       0       0       
      +0       0       0       0       0
  2673 ;;      Locals:         0       0       0       0       0       0       0       0       0       0       0       0       
      +0       0       0       0       0
  2674 ;;      Temps:          0       0       0       0       0       0       0       0       0       0       0       0       
      +0       0       0       0       0
  2675 ;;      Totals:         0       0       0       0       0       0       0       0       0       0       0       0       
      +0       0       0       0       0
  2676 ;;Total ram usage:        0 bytes
  2677 ;; Hardware stack levels used: 1
  2678 ;; Hardware stack levels required when called: 3
  2679 ;; This function calls:
  2680 ;;		NULL
  2681 ;;		_TIMER0_APP_ISR
  2682 ;; This function is called by:
  2683 ;;		_InterruptManagerHigh
  2684 ;; This function uses a non-reentrant model
  2685 ;;
  2686                           
  2687                           	psect	text17
  2688   0019DC                     __ptext17:
  2689                           	callstack 0
  2690   0019DC                     _TIMER0_ISR:
  2691                           	callstack 19
  2692   0019DC                     
  2693                           ;MCAL_Layer/Timer0/mcal_timer0.c: 182:     (INTCONbits.TMR0IF = 0);
  2694   0019DC  94F2               	bcf	242,2,c	;volatile
  2695   0019DE                     
  2696                           ;MCAL_Layer/Timer0/mcal_timer0.c: 184:     TMR0H = (timer0_preload) >> 8;
  2697   0019DE  500C               	movf	(_timer0_preload+1)^0,w,c
  2698   0019E0  6ED7               	movwf	215,c	;volatile
  2699   0019E2                     
  2700                           ;MCAL_Layer/Timer0/mcal_timer0.c: 185:     TMR0L = (uint8) (timer0_preload);
  2701   0019E2  C00B  FFD6         	movff	_timer0_preload,4054	;volatile
  2702   0019E6                     
  2703                           ;MCAL_Layer/Timer0/mcal_timer0.c: 187:     if (TIMER0_InterruptHandler)
  2704   0019E6  500D               	movf	_TIMER0_InterruptHandler^0,w,c
  2705   0019E8  100E               	iorwf	(_TIMER0_InterruptHandler+1)^0,w,c
  2706   0019EA  B4D8               	btfsc	status,2,c
  2707   0019EC  EFFA  F00C         	goto	i2u276_41
  2708   0019F0  EFFC  F00C         	goto	i2u276_40
  2709   0019F4                     i2u276_41:
  2710   0019F4  EF08  F00D         	goto	i2l1055
  2711   0019F8                     i2u276_40:
  2712   0019F8                     
  2713                           ;MCAL_Layer/Timer0/mcal_timer0.c: 188:     {;MCAL_Layer/Timer0/mcal_timer0.c: 189:      
      +                             TIMER0_InterruptHandler();
  2714   0019F8  D802               	call	i2u277_48
  2715   0019FA  EF08  F00D         	goto	i2u277_49
  2716   0019FE                     i2u277_48:
  2717   0019FE  0005               	push	
  2718   001A00  6EFA               	movwf	pclath,c
  2719   001A02  500D               	movf	_TIMER0_InterruptHandler^0,w,c
  2720   001A04  6EFD               	movwf	tosl,c
  2721   001A06  500E               	movf	(_TIMER0_InterruptHandler+1)^0,w,c
  2722   001A08  6EFE               	movwf	tosh,c
  2723   001A0A  6AFF               	clrf	tosu,c
  2724   001A0C  50FA               	movf	pclath,w,c
  2725   001A0E  0012               	return		;indir
  2726   001A10                     i2u277_49:
  2727   001A10                     i2l1055:
  2728   001A10  0012               	return		;funcret
  2729   001A12                     __end_of_TIMER0_ISR:
  2730                           	callstack 0
  2731                           
  2732 ;; *************** function _TIMER0_APP_ISR *****************
  2733 ;; Defined at:
  2734 ;;		line 59 in file "Application1.c"
  2735 ;; Parameters:    Size  Location     Type
  2736 ;;		None
  2737 ;; Auto vars:     Size  Location     Type
  2738 ;;		None
  2739 ;; Return value:  Size  Location     Type
  2740 ;;                  1    wreg      void 
  2741 ;; Registers used:
  2742 ;;		wreg, fsr2l, fsr2h, status,2, status,0, prodl, prodh, cstack
  2743 ;; Tracked objects:
  2744 ;;		On entry : 0/0
  2745 ;;		On exit  : 0/0
  2746 ;;		Unchanged: 0/0
  2747 ;; Data sizes:     COMRAM   BANK0   BANK1   BANK2   BANK3   BANK4   BANK5   BANK6   BANK7   BANK8   BANK9  BANK10  BANK1
      +1  BANK12  BANK13  BANK14  BANK15
  2748 ;;      Params:         0       0       0       0       0       0       0       0       0       0       0       0       
      +0       0       0       0       0
  2749 ;;      Locals:         0       0       0       0       0       0       0       0       0       0       0       0       
      +0       0       0       0       0
  2750 ;;      Temps:          0       0       0       0       0       0       0       0       0       0       0       0       
      +0       0       0       0       0
  2751 ;;      Totals:         0       0       0       0       0       0       0       0       0       0       0       0       
      +0       0       0       0       0
  2752 ;;Total ram usage:        0 bytes
  2753 ;; Hardware stack levels used: 1
  2754 ;; Hardware stack levels required when called: 2
  2755 ;; This function calls:
  2756 ;;		_led_turn_toggle
  2757 ;; This function is called by:
  2758 ;;		_TIMER0_ISR
  2759 ;; This function uses a non-reentrant model
  2760 ;;
  2761                           
  2762                           	psect	text18
  2763   001AFE                     __ptext18:
  2764                           	callstack 0
  2765   001AFE                     _TIMER0_APP_ISR:
  2766                           	callstack 19
  2767   001AFE                     
  2768                           ;Application1.c: 61:     led_turn_toggle(&led1);
  2769   001AFE  0E5B               	movlw	low _led1
  2770   001B00  6E62               	movwf	led_turn_toggle@led^0,c
  2771   001B02  EC1A  F00C         	call	_led_turn_toggle	;wreg free
  2772   001B06  0012               	return		;funcret
  2773   001B08                     __end_of_TIMER0_APP_ISR:
  2774                           	callstack 0
  2775                           
  2776 ;; *************** function _led_turn_toggle *****************
  2777 ;; Defined at:
  2778 ;;		line 90 in file "ECU_Layer/LED/ecu_led.c"
  2779 ;; Parameters:    Size  Location     Type
  2780 ;;  led             1    6[COMRAM] PTR const struct .
  2781 ;;		 -> led1(1), 
  2782 ;; Auto vars:     Size  Location     Type
  2783 ;;  pin             1    8[COMRAM] struct .
  2784 ;;  ret             1    0        unsigned char 
  2785 ;; Return value:  Size  Location     Type
  2786 ;;                  1    wreg      unsigned char 
  2787 ;; Registers used:
  2788 ;;		wreg, fsr2l, fsr2h, status,2, status,0, prodl, prodh, cstack
  2789 ;; Tracked objects:
  2790 ;;		On entry : 0/0
  2791 ;;		On exit  : 0/0
  2792 ;;		Unchanged: 0/0
  2793 ;; Data sizes:     COMRAM   BANK0   BANK1   BANK2   BANK3   BANK4   BANK5   BANK6   BANK7   BANK8   BANK9  BANK10  BANK1
      +1  BANK12  BANK13  BANK14  BANK15
  2794 ;;      Params:         1       0       0       0       0       0       0       0       0       0       0       0       
      +0       0       0       0       0
  2795 ;;      Locals:         1       0       0       0       0       0       0       0       0       0       0       0       
      +0       0       0       0       0
  2796 ;;      Temps:          1       0       0       0       0       0       0       0       0       0       0       0       
      +0       0       0       0       0
  2797 ;;      Totals:         3       0       0       0       0       0       0       0       0       0       0       0       
      +0       0       0       0       0
  2798 ;;Total ram usage:        3 bytes
  2799 ;; Hardware stack levels used: 1
  2800 ;; Hardware stack levels required when called: 1
  2801 ;; This function calls:
  2802 ;;		_gpio_pin_toggle_logic
  2803 ;; This function is called by:
  2804 ;;		_TIMER0_APP_ISR
  2805 ;; This function uses a non-reentrant model
  2806 ;;
  2807                           
  2808                           	psect	text19
  2809   001834                     __ptext19:
  2810                           	callstack 0
  2811   001834                     _led_turn_toggle:
  2812                           	callstack 19
  2813   001834                     
  2814                           ;ECU_Layer/LED/ecu_led.c: 93:     if(led != ((void*)0))
  2815   001834  5062               	movf	led_turn_toggle@led^0,w,c
  2816   001836  B4D8               	btfsc	status,2,c
  2817   001838  EF20  F00C         	goto	i2u242_41
  2818   00183C  EF22  F00C         	goto	i2u242_40
  2819   001840                     i2u242_41:
  2820   001840  EF4E  F00C         	goto	i2l3636
  2821   001844                     i2u242_40:
  2822   001844                     
  2823                           ;ECU_Layer/LED/ecu_led.c: 94:     {;ECU_Layer/LED/ecu_led.c: 95:         pin_config_t pi
      +                          n = {.port = led->led_port ,.pin = led->led_pin ,
  2824   001844  C02F  F064         	movff	led_turn_toggle@F3077,led_turn_toggle@pin
  2825   001848  5062               	movf	led_turn_toggle@led^0,w,c
  2826   00184A  6ED9               	movwf	fsr2l,c
  2827   00184C  6ADA               	clrf	fsr2h,c
  2828   00184E  50DF               	movf	223,w,c
  2829   001850  0B07               	andlw	7
  2830   001852  6E63               	movwf	??_led_turn_toggle^0,c
  2831   001854  5064               	movf	led_turn_toggle@pin^0,w,c
  2832   001856  1863               	xorwf	??_led_turn_toggle^0,w,c
  2833   001858  0BF8               	andlw	-8
  2834   00185A  1863               	xorwf	??_led_turn_toggle^0,w,c
  2835   00185C  6E64               	movwf	led_turn_toggle@pin^0,c
  2836   00185E  5062               	movf	led_turn_toggle@led^0,w,c
  2837   001860  6ED9               	movwf	fsr2l,c
  2838   001862  6ADA               	clrf	fsr2h,c
  2839   001864  30DF               	rrcf	223,w,c
  2840   001866  32E8               	rrcf	wreg,f,c
  2841   001868  32E8               	rrcf	wreg,f,c
  2842   00186A  0B07               	andlw	7
  2843   00186C  6E63               	movwf	??_led_turn_toggle^0,c
  2844   00186E  4663               	rlncf	??_led_turn_toggle^0,f,c
  2845   001870  4663               	rlncf	??_led_turn_toggle^0,f,c
  2846   001872  4663               	rlncf	??_led_turn_toggle^0,f,c
  2847   001874  5064               	movf	led_turn_toggle@pin^0,w,c
  2848   001876  1863               	xorwf	??_led_turn_toggle^0,w,c
  2849   001878  0BC7               	andlw	-57
  2850   00187A  1863               	xorwf	??_led_turn_toggle^0,w,c
  2851   00187C  6E64               	movwf	led_turn_toggle@pin^0,c
  2852   00187E  9C64               	bcf	led_turn_toggle@pin^0,6,c
  2853   001880  5062               	movf	led_turn_toggle@led^0,w,c
  2854   001882  6ED9               	movwf	fsr2l,c
  2855   001884  6ADA               	clrf	fsr2h,c
  2856   001886  ACDF               	btfss	indf2,6,c
  2857   001888  D002               	bra	i2u243_45
  2858   00188A  8E64               	bsf	led_turn_toggle@pin^0,7,c
  2859   00188C  D001               	bra	i2u243_47
  2860   00188E                     i2u243_45:
  2861   00188E  9E64               	bcf	led_turn_toggle@pin^0,7,c
  2862   001890                     i2u243_47:
  2863   001890  0E64               	movlw	low led_turn_toggle@pin
  2864   001892  6E5C               	movwf	gpio_pin_toggle_logic@_pin_config^0,c
  2865   001894  EC0F  F00B         	call	_gpio_pin_toggle_logic	;wreg free
  2866                           
  2867                           ;ECU_Layer/LED/ecu_led.c: 98:     }
  2868   001898  EF4E  F00C         	goto	i2l309
  2869   00189C                     i2l3636:
  2870   00189C                     i2l309:
  2871   00189C  0012               	return		;funcret
  2872   00189E                     __end_of_led_turn_toggle:
  2873                           	callstack 0
  2874                           
  2875 ;; *************** function _gpio_pin_toggle_logic *****************
  2876 ;; Defined at:
  2877 ;;		line 133 in file "MCAL_Layer/GPIO/mcal_gpio.c"
  2878 ;; Parameters:    Size  Location     Type
  2879 ;;  _pin_config     1    0[COMRAM] PTR const struct .
  2880 ;;		 -> led_turn_toggle@pin(1), 
  2881 ;; Auto vars:     Size  Location     Type
  2882 ;;  ret             1    5[COMRAM] unsigned char 
  2883 ;; Return value:  Size  Location     Type
  2884 ;;                  1    wreg      unsigned char 
  2885 ;; Registers used:
  2886 ;;		wreg, fsr2l, fsr2h, status,2, status,0, prodl, prodh
  2887 ;; Tracked objects:
  2888 ;;		On entry : 0/0
  2889 ;;		On exit  : 0/0
  2890 ;;		Unchanged: 0/0
  2891 ;; Data sizes:     COMRAM   BANK0   BANK1   BANK2   BANK3   BANK4   BANK5   BANK6   BANK7   BANK8   BANK9  BANK10  BANK1
      +1  BANK12  BANK13  BANK14  BANK15
  2892 ;;      Params:         1       0       0       0       0       0       0       0       0       0       0       0       
      +0       0       0       0       0
  2893 ;;      Locals:         1       0       0       0       0       0       0       0       0       0       0       0       
      +0       0       0       0       0
  2894 ;;      Temps:          4       0       0       0       0       0       0       0       0       0       0       0       
      +0       0       0       0       0
  2895 ;;      Totals:         6       0       0       0       0       0       0       0       0       0       0       0       
      +0       0       0       0       0
  2896 ;;Total ram usage:        6 bytes
  2897 ;; Hardware stack levels used: 1
  2898 ;; This function calls:
  2899 ;;		Nothing
  2900 ;; This function is called by:
  2901 ;;		_led_turn_toggle
  2902 ;; This function uses a non-reentrant model
  2903 ;;
  2904                           
  2905                           	psect	text20
  2906   00161E                     __ptext20:
  2907                           	callstack 0
  2908   00161E                     _gpio_pin_toggle_logic:
  2909                           	callstack 19
  2910   00161E                     
  2911                           ;MCAL_Layer/GPIO/mcal_gpio.c: 133: Std_ReturnType gpio_pin_toggle_logic(const pin_config
      +                          _t *_pin_config);MCAL_Layer/GPIO/mcal_gpio.c: 134: {;MCAL_Layer/GPIO/mcal_gpio.c: 135:  
      +                             Std_ReturnType ret = (Std_ReturnType)0x01;
  2912   00161E  0E01               	movlw	1
  2913   001620  6E61               	movwf	gpio_pin_toggle_logic@ret^0,c
  2914                           
  2915                           ;MCAL_Layer/GPIO/mcal_gpio.c: 136:     if((_pin_config != ((void*)0)) && (_pin_config->p
      +                          ort <= 5 -1) && (_pin_config->pin <= 8 -1))
  2916   001622  505C               	movf	gpio_pin_toggle_logic@_pin_config^0,w,c
  2917   001624  B4D8               	btfsc	status,2,c
  2918   001626  EF17  F00B         	goto	i2u236_41
  2919   00162A  EF19  F00B         	goto	i2u236_40
  2920   00162E                     i2u236_41:
  2921   00162E  EF5F  F00B         	goto	i2l3604
  2922   001632                     i2u236_40:
  2923   001632  505C               	movf	gpio_pin_toggle_logic@_pin_config^0,w,c
  2924   001634  6ED9               	movwf	fsr2l,c
  2925   001636  6ADA               	clrf	fsr2h,c
  2926   001638  50DF               	movf	223,w,c
  2927   00163A  0B07               	andlw	7
  2928   00163C  6E5D               	movwf	??_gpio_pin_toggle_logic^0,c
  2929   00163E  0E05               	movlw	5
  2930   001640  605D               	cpfslt	??_gpio_pin_toggle_logic^0,c
  2931   001642  EF25  F00B         	goto	i2u237_41
  2932   001646  EF27  F00B         	goto	i2u237_40
  2933   00164A                     i2u237_41:
  2934   00164A  EF5F  F00B         	goto	i2l3604
  2935   00164E                     i2u237_40:
  2936   00164E  505C               	movf	gpio_pin_toggle_logic@_pin_config^0,w,c
  2937   001650  6ED9               	movwf	fsr2l,c
  2938   001652  6ADA               	clrf	fsr2h,c
  2939   001654  30DF               	rrcf	223,w,c
  2940   001656  32E8               	rrcf	wreg,f,c
  2941   001658  32E8               	rrcf	wreg,f,c
  2942   00165A  0B07               	andlw	7
  2943   00165C  6E5D               	movwf	??_gpio_pin_toggle_logic^0,c
  2944   00165E  0E08               	movlw	8
  2945   001660  605D               	cpfslt	??_gpio_pin_toggle_logic^0,c
  2946   001662  EF35  F00B         	goto	i2u238_41
  2947   001666  EF37  F00B         	goto	i2u238_40
  2948   00166A                     i2u238_41:
  2949   00166A  EF5F  F00B         	goto	i2l3604
  2950   00166E                     i2u238_40:
  2951   00166E                     
  2952                           ;MCAL_Layer/GPIO/mcal_gpio.c: 137:     {;MCAL_Layer/GPIO/mcal_gpio.c: 138:         (*lat
      +                          _registers[_pin_config->port] ^= ((uint8)0x01 << _pin_config->pin));
  2953   00166E  505C               	movf	gpio_pin_toggle_logic@_pin_config^0,w,c
  2954   001670  6ED9               	movwf	fsr2l,c
  2955   001672  6ADA               	clrf	fsr2h,c
  2956   001674  30DF               	rrcf	223,w,c
  2957   001676  32E8               	rrcf	wreg,f,c
  2958   001678  32E8               	rrcf	wreg,f,c
  2959   00167A  0B07               	andlw	7
  2960   00167C  6E5D               	movwf	??_gpio_pin_toggle_logic^0,c
  2961   00167E  0E01               	movlw	1
  2962   001680  6E5E               	movwf	(??_gpio_pin_toggle_logic+1)^0,c
  2963   001682  2A5D               	incf	??_gpio_pin_toggle_logic^0,f,c
  2964   001684  EF46  F00B         	goto	i2u239_44
  2965   001688                     i2u239_45:
  2966   001688  90D8               	bcf	status,0,c
  2967   00168A  365E               	rlcf	(??_gpio_pin_toggle_logic+1)^0,f,c
  2968   00168C                     i2u239_44:
  2969   00168C  2E5D               	decfsz	??_gpio_pin_toggle_logic^0,f,c
  2970   00168E  EF44  F00B         	goto	i2u239_45
  2971   001692  505C               	movf	gpio_pin_toggle_logic@_pin_config^0,w,c
  2972   001694  6ED9               	movwf	fsr2l,c
  2973   001696  6ADA               	clrf	fsr2h,c
  2974   001698  50DF               	movf	223,w,c
  2975   00169A  0B07               	andlw	7
  2976   00169C  0D02               	mullw	2
  2977   00169E  50F3               	movf	243,w,c
  2978   0016A0  0F35               	addlw	low _lat_registers
  2979   0016A2  6ED9               	movwf	fsr2l,c
  2980   0016A4  6ADA               	clrf	fsr2h,c
  2981   0016A6  CFDE F05F          	movff	postinc2,??_gpio_pin_toggle_logic+2
  2982   0016AA  CFDD F060          	movff	postdec2,??_gpio_pin_toggle_logic+3
  2983   0016AE  C05F  FFD9         	movff	??_gpio_pin_toggle_logic+2,fsr2l
  2984   0016B2  C060  FFDA         	movff	??_gpio_pin_toggle_logic+3,fsr2h
  2985   0016B6  505E               	movf	(??_gpio_pin_toggle_logic+1)^0,w,c
  2986   0016B8  1ADF               	xorwf	indf2,f,c
  2987                           
  2988                           ;MCAL_Layer/GPIO/mcal_gpio.c: 139:     }
  2989   0016BA  EF61  F00B         	goto	i2l593
  2990   0016BE                     i2l3604:
  2991   0016BE  0E00               	movlw	0
  2992   0016C0  6E61               	movwf	gpio_pin_toggle_logic@ret^0,c
  2993   0016C2                     i2l593:
  2994                           
  2995                           ;MCAL_Layer/GPIO/mcal_gpio.c: 141:     return ret;
  2996   0016C2  5061               	movf	gpio_pin_toggle_logic@ret^0,w,c
  2997   0016C4  0012               	return		;funcret
  2998   0016C6                     __end_of_gpio_pin_toggle_logic:
  2999                           	callstack 0
  3000                           
  3001 ;; *************** function _RB7_ISR *****************
  3002 ;; Defined at:
  3003 ;;		line 306 in file "MCAL_Layer/Interrupt/mcal_external_interrupt.c"
  3004 ;; Parameters:    Size  Location     Type
  3005 ;;  source          1    wreg     unsigned char 
  3006 ;; Auto vars:     Size  Location     Type
  3007 ;;  source          1    0[COMRAM] unsigned char 
  3008 ;; Return value:  Size  Location     Type
  3009 ;;                  1    wreg      void 
  3010 ;; Registers used:
  3011 ;;		wreg, status,2, status,0
  3012 ;; Tracked objects:
  3013 ;;		On entry : 0/0
  3014 ;;		On exit  : 0/0
  3015 ;;		Unchanged: 0/0
  3016 ;; Data sizes:     COMRAM   BANK0   BANK1   BANK2   BANK3   BANK4   BANK5   BANK6   BANK7   BANK8   BANK9  BANK10  BANK1
      +1  BANK12  BANK13  BANK14  BANK15
  3017 ;;      Params:         0       0       0       0       0       0       0       0       0       0       0       0       
      +0       0       0       0       0
  3018 ;;      Locals:         1       0       0       0       0       0       0       0       0       0       0       0       
      +0       0       0       0       0
  3019 ;;      Temps:          0       0       0       0       0       0       0       0       0       0       0       0       
      +0       0       0       0       0
  3020 ;;      Totals:         1       0       0       0       0       0       0       0       0       0       0       0       
      +0       0       0       0       0
  3021 ;;Total ram usage:        1 bytes
  3022 ;; Hardware stack levels used: 1
  3023 ;; This function calls:
  3024 ;;		Nothing
  3025 ;; This function is called by:
  3026 ;;		_InterruptManagerHigh
  3027 ;; This function uses a non-reentrant model
  3028 ;;
  3029                           
  3030                           	psect	text21
  3031   001A76                     __ptext21:
  3032                           	callstack 0
  3033   001A76                     _RB7_ISR:
  3034                           	callstack 22
  3035                           
  3036                           ;incstack = 0
  3037                           ;RB7_ISR@source stored from wreg
  3038   001A76  6E5C               	movwf	RB7_ISR@source^0,c
  3039   001A78                     
  3040                           ;MCAL_Layer/Interrupt/mcal_external_interrupt.c: 306: void RB7_ISR(uint8 source);MCAL_La
      +                          yer/Interrupt/mcal_external_interrupt.c: 307: {;MCAL_Layer/Interrupt/mcal_external_inter
      +                          rupt.c: 309:     (INTCONbits.RBIF = 0);
  3041   001A78  90F2               	bcf	242,0,c	;volatile
  3042   001A7A                     
  3043                           ;MCAL_Layer/Interrupt/mcal_external_interrupt.c: 313:     if(0 == source)
  3044   001A7A  505C               	movf	RB7_ISR@source^0,w,c
  3045   001A7C  A4D8               	btfss	status,2,c
  3046   001A7E  EF43  F00D         	goto	i2u66_41
  3047   001A82  EF45  F00D         	goto	i2u66_40
  3048   001A86                     i2u66_41:
  3049   001A86  EF47  F00D         	goto	i2l2204
  3050   001A8A                     i2u66_40:
  3051   001A8A  EF47  F00D         	goto	i2l823
  3052   001A8E                     i2l2204:
  3053   001A8E                     i2l823:
  3054   001A8E  0012               	return		;funcret
  3055   001A90                     __end_of_RB7_ISR:
  3056                           	callstack 0
  3057                           
  3058 ;; *************** function _RB6_ISR *****************
  3059 ;; Defined at:
  3060 ;;		line 283 in file "MCAL_Layer/Interrupt/mcal_external_interrupt.c"
  3061 ;; Parameters:    Size  Location     Type
  3062 ;;  source          1    wreg     unsigned char 
  3063 ;; Auto vars:     Size  Location     Type
  3064 ;;  source          1    0[COMRAM] unsigned char 
  3065 ;; Return value:  Size  Location     Type
  3066 ;;                  1    wreg      void 
  3067 ;; Registers used:
  3068 ;;		wreg, status,2, status,0
  3069 ;; Tracked objects:
  3070 ;;		On entry : 0/0
  3071 ;;		On exit  : 0/0
  3072 ;;		Unchanged: 0/0
  3073 ;; Data sizes:     COMRAM   BANK0   BANK1   BANK2   BANK3   BANK4   BANK5   BANK6   BANK7   BANK8   BANK9  BANK10  BANK1
      +1  BANK12  BANK13  BANK14  BANK15
  3074 ;;      Params:         0       0       0       0       0       0       0       0       0       0       0       0       
      +0       0       0       0       0
  3075 ;;      Locals:         1       0       0       0       0       0       0       0       0       0       0       0       
      +0       0       0       0       0
  3076 ;;      Temps:          0       0       0       0       0       0       0       0       0       0       0       0       
      +0       0       0       0       0
  3077 ;;      Totals:         1       0       0       0       0       0       0       0       0       0       0       0       
      +0       0       0       0       0
  3078 ;;Total ram usage:        1 bytes
  3079 ;; Hardware stack levels used: 1
  3080 ;; This function calls:
  3081 ;;		Nothing
  3082 ;; This function is called by:
  3083 ;;		_InterruptManagerHigh
  3084 ;; This function uses a non-reentrant model
  3085 ;;
  3086                           
  3087                           	psect	text22
  3088   001A90                     __ptext22:
  3089                           	callstack 0
  3090   001A90                     _RB6_ISR:
  3091                           	callstack 22
  3092                           
  3093                           ;incstack = 0
  3094                           ;RB6_ISR@source stored from wreg
  3095   001A90  6E5C               	movwf	RB6_ISR@source^0,c
  3096   001A92                     
  3097                           ;MCAL_Layer/Interrupt/mcal_external_interrupt.c: 283: void RB6_ISR(uint8 source);MCAL_La
      +                          yer/Interrupt/mcal_external_interrupt.c: 284: {;MCAL_Layer/Interrupt/mcal_external_inter
      +                          rupt.c: 286:     (INTCONbits.RBIF = 0);
  3098   001A92  90F2               	bcf	242,0,c	;volatile
  3099   001A94                     
  3100                           ;MCAL_Layer/Interrupt/mcal_external_interrupt.c: 290:     if(0 == source)
  3101   001A94  505C               	movf	RB6_ISR@source^0,w,c
  3102   001A96  A4D8               	btfss	status,2,c
  3103   001A98  EF50  F00D         	goto	i2u65_41
  3104   001A9C  EF52  F00D         	goto	i2u65_40
  3105   001AA0                     i2u65_41:
  3106   001AA0  EF54  F00D         	goto	i2l2190
  3107   001AA4                     i2u65_40:
  3108   001AA4  EF54  F00D         	goto	i2l812
  3109   001AA8                     i2l2190:
  3110   001AA8                     i2l812:
  3111   001AA8  0012               	return		;funcret
  3112   001AAA                     __end_of_RB6_ISR:
  3113                           	callstack 0
  3114                           
  3115 ;; *************** function _RB5_ISR *****************
  3116 ;; Defined at:
  3117 ;;		line 260 in file "MCAL_Layer/Interrupt/mcal_external_interrupt.c"
  3118 ;; Parameters:    Size  Location     Type
  3119 ;;  source          1    wreg     unsigned char 
  3120 ;; Auto vars:     Size  Location     Type
  3121 ;;  source          1    0[COMRAM] unsigned char 
  3122 ;; Return value:  Size  Location     Type
  3123 ;;                  1    wreg      void 
  3124 ;; Registers used:
  3125 ;;		wreg, status,2, status,0
  3126 ;; Tracked objects:
  3127 ;;		On entry : 0/0
  3128 ;;		On exit  : 0/0
  3129 ;;		Unchanged: 0/0
  3130 ;; Data sizes:     COMRAM   BANK0   BANK1   BANK2   BANK3   BANK4   BANK5   BANK6   BANK7   BANK8   BANK9  BANK10  BANK1
      +1  BANK12  BANK13  BANK14  BANK15
  3131 ;;      Params:         0       0       0       0       0       0       0       0       0       0       0       0       
      +0       0       0       0       0
  3132 ;;      Locals:         1       0       0       0       0       0       0       0       0       0       0       0       
      +0       0       0       0       0
  3133 ;;      Temps:          0       0       0       0       0       0       0       0       0       0       0       0       
      +0       0       0       0       0
  3134 ;;      Totals:         1       0       0       0       0       0       0       0       0       0       0       0       
      +0       0       0       0       0
  3135 ;;Total ram usage:        1 bytes
  3136 ;; Hardware stack levels used: 1
  3137 ;; This function calls:
  3138 ;;		Nothing
  3139 ;; This function is called by:
  3140 ;;		_InterruptManagerHigh
  3141 ;; This function uses a non-reentrant model
  3142 ;;
  3143                           
  3144                           	psect	text23
  3145   001AAA                     __ptext23:
  3146                           	callstack 0
  3147   001AAA                     _RB5_ISR:
  3148                           	callstack 22
  3149                           
  3150                           ;incstack = 0
  3151                           ;RB5_ISR@source stored from wreg
  3152   001AAA  6E5C               	movwf	RB5_ISR@source^0,c
  3153   001AAC                     
  3154                           ;MCAL_Layer/Interrupt/mcal_external_interrupt.c: 260: void RB5_ISR(uint8 source);MCAL_La
      +                          yer/Interrupt/mcal_external_interrupt.c: 261: {;MCAL_Layer/Interrupt/mcal_external_inter
      +                          rupt.c: 263:     (INTCONbits.RBIF = 0);
  3155   001AAC  90F2               	bcf	242,0,c	;volatile
  3156   001AAE                     
  3157                           ;MCAL_Layer/Interrupt/mcal_external_interrupt.c: 267:     if(0 == source)
  3158   001AAE  505C               	movf	RB5_ISR@source^0,w,c
  3159   001AB0  A4D8               	btfss	status,2,c
  3160   001AB2  EF5D  F00D         	goto	i2u64_41
  3161   001AB6  EF5F  F00D         	goto	i2u64_40
  3162   001ABA                     i2u64_41:
  3163   001ABA  EF61  F00D         	goto	i2l2176
  3164   001ABE                     i2u64_40:
  3165   001ABE  EF61  F00D         	goto	i2l801
  3166   001AC2                     i2l2176:
  3167   001AC2                     i2l801:
  3168   001AC2  0012               	return		;funcret
  3169   001AC4                     __end_of_RB5_ISR:
  3170                           	callstack 0
  3171                           
  3172 ;; *************** function _RB4_ISR *****************
  3173 ;; Defined at:
  3174 ;;		line 237 in file "MCAL_Layer/Interrupt/mcal_external_interrupt.c"
  3175 ;; Parameters:    Size  Location     Type
  3176 ;;  source          1    wreg     unsigned char 
  3177 ;; Auto vars:     Size  Location     Type
  3178 ;;  source          1    0[COMRAM] unsigned char 
  3179 ;; Return value:  Size  Location     Type
  3180 ;;                  1    wreg      void 
  3181 ;; Registers used:
  3182 ;;		wreg, status,2, status,0
  3183 ;; Tracked objects:
  3184 ;;		On entry : 0/0
  3185 ;;		On exit  : 0/0
  3186 ;;		Unchanged: 0/0
  3187 ;; Data sizes:     COMRAM   BANK0   BANK1   BANK2   BANK3   BANK4   BANK5   BANK6   BANK7   BANK8   BANK9  BANK10  BANK1
      +1  BANK12  BANK13  BANK14  BANK15
  3188 ;;      Params:         0       0       0       0       0       0       0       0       0       0       0       0       
      +0       0       0       0       0
  3189 ;;      Locals:         1       0       0       0       0       0       0       0       0       0       0       0       
      +0       0       0       0       0
  3190 ;;      Temps:          0       0       0       0       0       0       0       0       0       0       0       0       
      +0       0       0       0       0
  3191 ;;      Totals:         1       0       0       0       0       0       0       0       0       0       0       0       
      +0       0       0       0       0
  3192 ;;Total ram usage:        1 bytes
  3193 ;; Hardware stack levels used: 1
  3194 ;; This function calls:
  3195 ;;		Nothing
  3196 ;; This function is called by:
  3197 ;;		_InterruptManagerHigh
  3198 ;; This function uses a non-reentrant model
  3199 ;;
  3200                           
  3201                           	psect	text24
  3202   001AC4                     __ptext24:
  3203                           	callstack 0
  3204   001AC4                     _RB4_ISR:
  3205                           	callstack 22
  3206                           
  3207                           ;incstack = 0
  3208                           ;RB4_ISR@source stored from wreg
  3209   001AC4  6E5C               	movwf	RB4_ISR@source^0,c
  3210   001AC6                     
  3211                           ;MCAL_Layer/Interrupt/mcal_external_interrupt.c: 237: void RB4_ISR(uint8 source);MCAL_La
      +                          yer/Interrupt/mcal_external_interrupt.c: 238: {;MCAL_Layer/Interrupt/mcal_external_inter
      +                          rupt.c: 240:     (INTCONbits.RBIF = 0);
  3212   001AC6  90F2               	bcf	242,0,c	;volatile
  3213   001AC8                     
  3214                           ;MCAL_Layer/Interrupt/mcal_external_interrupt.c: 244:     if(0 == source)
  3215   001AC8  505C               	movf	RB4_ISR@source^0,w,c
  3216   001ACA  A4D8               	btfss	status,2,c
  3217   001ACC  EF6A  F00D         	goto	i2u63_41
  3218   001AD0  EF6C  F00D         	goto	i2u63_40
  3219   001AD4                     i2u63_41:
  3220   001AD4  EF6E  F00D         	goto	i2l2162
  3221   001AD8                     i2u63_40:
  3222   001AD8  EF6E  F00D         	goto	i2l790
  3223   001ADC                     i2l2162:
  3224   001ADC                     i2l790:
  3225   001ADC  0012               	return		;funcret
  3226   001ADE                     __end_of_RB4_ISR:
  3227                           	callstack 0
  3228                           
  3229 ;; *************** function _INT0_ISR *****************
  3230 ;; Defined at:
  3231 ;;		line 190 in file "MCAL_Layer/Interrupt/mcal_external_interrupt.c"
  3232 ;; Parameters:    Size  Location     Type
  3233 ;;		None
  3234 ;; Auto vars:     Size  Location     Type
  3235 ;;		None
  3236 ;; Return value:  Size  Location     Type
  3237 ;;                  1    wreg      void 
  3238 ;; Registers used:
  3239 ;;		None
  3240 ;; Tracked objects:
  3241 ;;		On entry : 0/0
  3242 ;;		On exit  : 0/0
  3243 ;;		Unchanged: 0/0
  3244 ;; Data sizes:     COMRAM   BANK0   BANK1   BANK2   BANK3   BANK4   BANK5   BANK6   BANK7   BANK8   BANK9  BANK10  BANK1
      +1  BANK12  BANK13  BANK14  BANK15
  3245 ;;      Params:         0       0       0       0       0       0       0       0       0       0       0       0       
      +0       0       0       0       0
  3246 ;;      Locals:         0       0       0       0       0       0       0       0       0       0       0       0       
      +0       0       0       0       0
  3247 ;;      Temps:          0       0       0       0       0       0       0       0       0       0       0       0       
      +0       0       0       0       0
  3248 ;;      Totals:         0       0       0       0       0       0       0       0       0       0       0       0       
      +0       0       0       0       0
  3249 ;;Total ram usage:        0 bytes
  3250 ;; Hardware stack levels used: 1
  3251 ;; This function calls:
  3252 ;;		Nothing
  3253 ;; This function is called by:
  3254 ;;		_InterruptManagerHigh
  3255 ;; This function uses a non-reentrant model
  3256 ;;
  3257                           
  3258                           	psect	text25
  3259   001B18                     __ptext25:
  3260                           	callstack 0
  3261   001B18                     _INT0_ISR:
  3262                           	callstack 22
  3263   001B18                     
  3264                           ;MCAL_Layer/Interrupt/mcal_external_interrupt.c: 193:     (INTCONbits.INT0IF = 0);
  3265   001B18  92F2               	bcf	242,1,c	;volatile
  3266   001B1A  0012               	return		;funcret
  3267   001B1C                     __end_of_INT0_ISR:
  3268                           	callstack 0
  3269                           
  3270 ;; *************** function _ADC_ISR *****************
  3271 ;; Defined at:
  3272 ;;		line 368 in file "MCAL_Layer/ADC/mcal_adc.c"
  3273 ;; Parameters:    Size  Location     Type
  3274 ;;		None
  3275 ;; Auto vars:     Size  Location     Type
  3276 ;;		None
  3277 ;; Return value:  Size  Location     Type
  3278 ;;                  1    wreg      void 
  3279 ;; Registers used:
  3280 ;;		None
  3281 ;; Tracked objects:
  3282 ;;		On entry : 0/0
  3283 ;;		On exit  : 0/0
  3284 ;;		Unchanged: 0/0
  3285 ;; Data sizes:     COMRAM   BANK0   BANK1   BANK2   BANK3   BANK4   BANK5   BANK6   BANK7   BANK8   BANK9  BANK10  BANK1
      +1  BANK12  BANK13  BANK14  BANK15
  3286 ;;      Params:         0       0       0       0       0       0       0       0       0       0       0       0       
      +0       0       0       0       0
  3287 ;;      Locals:         0       0       0       0       0       0       0       0       0       0       0       0       
      +0       0       0       0       0
  3288 ;;      Temps:          0       0       0       0       0       0       0       0       0       0       0       0       
      +0       0       0       0       0
  3289 ;;      Totals:         0       0       0       0       0       0       0       0       0       0       0       0       
      +0       0       0       0       0
  3290 ;;Total ram usage:        0 bytes
  3291 ;; Hardware stack levels used: 1
  3292 ;; This function calls:
  3293 ;;		Nothing
  3294 ;; This function is called by:
  3295 ;;		_InterruptManagerHigh
  3296 ;; This function uses a non-reentrant model
  3297 ;;
  3298                           
  3299                           	psect	text26
  3300   001B1C                     __ptext26:
  3301                           	callstack 0
  3302   001B1C                     _ADC_ISR:
  3303                           	callstack 22
  3304   001B1C                     
  3305                           ;MCAL_Layer/ADC/mcal_adc.c: 371:     (PIR1bits.ADIF = 0);
  3306   001B1C  9C9E               	bcf	158,6,c	;volatile
  3307   001B1E  0012               	return		;funcret
  3308   001B20                     __end_of_ADC_ISR:
  3309                           	callstack 0
  3310                           
  3311                           	psect	rparam
  3312   000000                     
  3313                           	psect	temp
  3314   00006F                     btemp:
  3315                           	callstack 0
  3316   00006F                     	ds	1
  3317   000000                     int$flags	set	btemp
  3318   000000                     wtemp8	set	btemp+1
  3319   000000                     ttemp5	set	btemp+1
  3320   000000                     ttemp6	set	btemp+4
  3321   000000                     ttemp7	set	btemp+8
  3322                           
  3323                           	psect	config
  3324                           
  3325                           ; Padding undefined space
  3326   300000                     	org	3145728
  3327   300000  FF                 	db	255
  3328                           
  3329                           ;Config register CONFIG1H @ 0x300001
  3330                           ;	Oscillator Selection bits
  3331                           ;	OSC = HS, HS oscillator
  3332                           ;	Fail-Safe Clock Monitor Enable bit
  3333                           ;	FCMEN = OFF, Fail-Safe Clock Monitor disabled
  3334                           ;	Internal/External Oscillator Switchover bit
  3335                           ;	IESO = OFF, Oscillator Switchover mode disabled
  3336   300001                     	org	3145729
  3337   300001  02                 	db	2
  3338                           
  3339                           ;Config register CONFIG2L @ 0x300002
  3340                           ;	Power-up Timer Enable bit
  3341                           ;	PWRT = OFF, PWRT disabled
  3342                           ;	Brown-out Reset Enable bits
  3343                           ;	BOREN = OFF, Brown-out Reset disabled in hardware and software
  3344                           ;	Brown Out Reset Voltage bits
  3345                           ;	BORV = 1, 
  3346   300002                     	org	3145730
  3347   300002  09                 	db	9
  3348                           
  3349                           ;Config register CONFIG2H @ 0x300003
  3350                           ;	Watchdog Timer Enable bit
  3351                           ;	WDT = OFF, WDT disabled (control is placed on the SWDTEN bit)
  3352                           ;	Watchdog Timer Postscale Select bits
  3353                           ;	WDTPS = 32768, 1:32768
  3354   300003                     	org	3145731
  3355   300003  1E                 	db	30
  3356                           
  3357                           ; Padding undefined space
  3358   300004                     	org	3145732
  3359   300004  FF                 	db	255
  3360                           
  3361                           ;Config register CONFIG3H @ 0x300005
  3362                           ;	CCP2 MUX bit
  3363                           ;	CCP2MX = PORTC, CCP2 input/output is multiplexed with RC1
  3364                           ;	PORTB A/D Enable bit
  3365                           ;	PBADEN = OFF, PORTB<4:0> pins are configured as digital I/O on Reset
  3366                           ;	Low-Power Timer1 Oscillator Enable bit
  3367                           ;	LPT1OSC = OFF, Timer1 configured for higher power operation
  3368                           ;	MCLR Pin Enable bit
  3369                           ;	MCLRE = ON, MCLR pin enabled; RE3 input pin disabled
  3370   300005                     	org	3145733
  3371   300005  81                 	db	129
  3372                           
  3373                           ;Config register CONFIG4L @ 0x300006
  3374                           ;	Stack Full/Underflow Reset Enable bit
  3375                           ;	STVREN = ON, Stack full/underflow will cause Reset
  3376                           ;	Single-Supply ICSP Enable bit
  3377                           ;	LVP = OFF, Single-Supply ICSP disabled
  3378                           ;	Extended Instruction Set Enable bit
  3379                           ;	XINST = OFF, Instruction set extension and Indexed Addressing mode disabled (Legacy mo
      +                          de)
  3380                           ;	Background Debugger Enable bit
  3381                           ;	DEBUG = 0x1, unprogrammed default
  3382   300006                     	org	3145734
  3383   300006  81                 	db	129
  3384                           
  3385                           ; Padding undefined space
  3386   300007                     	org	3145735
  3387   300007  FF                 	db	255
  3388                           
  3389                           ;Config register CONFIG5L @ 0x300008
  3390                           ;	Code Protection bit
  3391                           ;	CP0 = OFF, Block 0 (000800-003FFFh) not code-protected
  3392                           ;	Code Protection bit
  3393                           ;	CP1 = OFF, Block 1 (004000-007FFFh) not code-protected
  3394                           ;	Code Protection bit
  3395                           ;	CP2 = OFF, Block 2 (008000-00BFFFh) not code-protected
  3396                           ;	Code Protection bit
  3397                           ;	CP3 = OFF, Block 3 (00C000-00FFFFh) not code-protected
  3398   300008                     	org	3145736
  3399   300008  0F                 	db	15
  3400                           
  3401                           ;Config register CONFIG5H @ 0x300009
  3402                           ;	Boot Block Code Protection bit
  3403                           ;	CPB = OFF, Boot block (000000-0007FFh) not code-protected
  3404                           ;	Data EEPROM Code Protection bit
  3405                           ;	CPD = OFF, Data EEPROM not code-protected
  3406   300009                     	org	3145737
  3407   300009  C0                 	db	192
  3408                           
  3409                           ;Config register CONFIG6L @ 0x30000A
  3410                           ;	Write Protection bit
  3411                           ;	WRT0 = OFF, Block 0 (000800-003FFFh) not write-protected
  3412                           ;	Write Protection bit
  3413                           ;	WRT1 = OFF, Block 1 (004000-007FFFh) not write-protected
  3414                           ;	Write Protection bit
  3415                           ;	WRT2 = OFF, Block 2 (008000-00BFFFh) not write-protected
  3416                           ;	Write Protection bit
  3417                           ;	WRT3 = OFF, Block 3 (00C000-00FFFFh) not write-protected
  3418   30000A                     	org	3145738
  3419   30000A  0F                 	db	15
  3420                           
  3421                           ;Config register CONFIG6H @ 0x30000B
  3422                           ;	Configuration Register Write Protection bit
  3423                           ;	WRTC = OFF, Configuration registers (300000-3000FFh) not write-protected
  3424                           ;	Boot Block Write Protection bit
  3425                           ;	WRTB = OFF, Boot Block (000000-0007FFh) not write-protected
  3426                           ;	Data EEPROM Write Protection bit
  3427                           ;	WRTD = OFF, Data EEPROM not write-protected
  3428   30000B                     	org	3145739
  3429   30000B  E0                 	db	224
  3430                           
  3431                           ;Config register CONFIG7L @ 0x30000C
  3432                           ;	Table Read Protection bit
  3433                           ;	EBTR0 = OFF, Block 0 (000800-003FFFh) not protected from table reads executed in other
      +                           blocks
  3434                           ;	Table Read Protection bit
  3435                           ;	EBTR1 = OFF, Block 1 (004000-007FFFh) not protected from table reads executed in other
      +                           blocks
  3436                           ;	Table Read Protection bit
  3437                           ;	EBTR2 = OFF, Block 2 (008000-00BFFFh) not protected from table reads executed in other
      +                           blocks
  3438                           ;	Table Read Protection bit
  3439                           ;	EBTR3 = OFF, Block 3 (00C000-00FFFFh) not protected from table reads executed in other
      +                           blocks
  3440   30000C                     	org	3145740
  3441   30000C  0F                 	db	15
  3442                           
  3443                           ;Config register CONFIG7H @ 0x30000D
  3444                           ;	Boot Block Table Read Protection bit
  3445                           ;	EBTRB = OFF, Boot Block (000000-0007FFh) not protected from table reads executed in ot
      +                          her blocks
  3446   30000D                     	org	3145741
  3447   30000D  40                 	db	64
  3448                           tosu	equ	0xFFF
  3449                           tosh	equ	0xFFE
  3450                           tosl	equ	0xFFD
  3451                           stkptr	equ	0xFFC
  3452                           pclatu	equ	0xFFB
  3453                           pclath	equ	0xFFA
  3454                           pcl	equ	0xFF9
  3455                           tblptru	equ	0xFF8
  3456                           tblptrh	equ	0xFF7
  3457                           tblptrl	equ	0xFF6
  3458                           tablat	equ	0xFF5
  3459                           prodh	equ	0xFF4
  3460                           prodl	equ	0xFF3
  3461                           indf0	equ	0xFEF
  3462                           postinc0	equ	0xFEE
  3463                           postdec0	equ	0xFED
  3464                           preinc0	equ	0xFEC
  3465                           plusw0	equ	0xFEB
  3466                           fsr0h	equ	0xFEA
  3467                           fsr0l	equ	0xFE9
  3468                           wreg	equ	0xFE8
  3469                           indf1	equ	0xFE7
  3470                           postinc1	equ	0xFE6
  3471                           postdec1	equ	0xFE5
  3472                           preinc1	equ	0xFE4
  3473                           plusw1	equ	0xFE3
  3474                           fsr1h	equ	0xFE2
  3475                           fsr1l	equ	0xFE1
  3476                           bsr	equ	0xFE0
  3477                           indf2	equ	0xFDF
  3478                           postinc2	equ	0xFDE
  3479                           postdec2	equ	0xFDD
  3480                           preinc2	equ	0xFDC
  3481                           plusw2	equ	0xFDB
  3482                           fsr2h	equ	0xFDA
  3483                           fsr2l	equ	0xFD9
  3484                           status	equ	0xFD8

Data Sizes:
    Strings     3
    Constant    16
    Data        73
    BSS         63
    Persistent  0
    Stack       0

Auto Spaces:
    Space          Size  Autos    Used
    COMRAM          126     19     110
    BANK0           128     13      58
    BANK1           256      0       0
    BANK2           256      0       0
    BANK3           256      0       0
    BANK4           256      0       0
    BANK5           256      0       0
    BANK6           256      0       0
    BANK7           256      0       0
    BANK8           256      0       0
    BANK9           256      0       0
    BANK10          256      0       0
    BANK11          256      0       0
    BANK12          256      0       0
    BANK13          256      0       0
    BANK14          256      0       0
    BANK15          128      0       0

Pointer List with Targets:

    adc_GetConversionResult@_adc$ADC_InterruptHandler	PTR FTN()void  size(2) Largest target is 0

    adc_Init@_adc$ADC_InterruptHandler	PTR FTN()void  size(2) Largest target is 0

    ADC_InterruptHandler	PTR FTN()void  size(2) Largest target is 1
		 -> NULL(), 

    configure_voltage_reference@_adc$ADC_InterruptHandler	PTR FTN()void  size(2) Largest target is 0

    counter$TIMER0_InterruptHandler	PTR FTN()void  size(2) Largest target is 1
		 -> TIMER0_APP_ISR(), 

    ext_interrupt_INTx_Clear_Flag@int_obj$ext_interrupt_INTx_handler	PTR FTN()void  size(2) Largest target is 0

    ext_interrupt_INTx_Disable@int_obj$ext_interrupt_INTx_handler	PTR FTN()void  size(2) Largest target is 0

    ext_interrupt_INTx_Edge_Init@int_obj$ext_interrupt_INTx_handler	PTR FTN()void  size(2) Largest target is 0

    ext_interrupt_INTx_Enable@int_obj$ext_interrupt_INTx_handler	PTR FTN()void  size(2) Largest target is 0

    ext_interrupt_INTx_Init@int_obj$ext_interrupt_INTx_handler	PTR FTN()void  size(2) Largest target is 0

    ext_interrupt_INTx_Priority_Init@int_obj$ext_interrupt_INTx_handler	PTR FTN()void  size(2) Largest target is 0

    ext_interrupt_INTx_SetInterruptHandler@int_obj$ext_interrupt_INTx_handler	PTR FTN()void  size(2) Largest target is 0

    ext_interrupt_RBx_Init@int_obj$ext_interrupt_RBx_high_handler	PTR FTN()void  size(2) Largest target is 0

    ext_interrupt_RBx_Init@int_obj$ext_interrupt_RBx_low_handler	PTR FTN()void  size(2) Largest target is 0

    ext_interrupt_RBx_Priority_Init@int_obj$ext_interrupt_RBx_high_handler	PTR FTN()void  size(2) Largest target is 0

    ext_interrupt_RBx_Priority_Init@int_obj$ext_interrupt_RBx_low_handler	PTR FTN()void  size(2) Largest target is 0

    ext_interrupt_RBx_SetInterruptHandler@int_obj$ext_interrupt_RBx_high_handler	PTR FTN()void  size(2) Largest target is 0

    ext_interrupt_RBx_SetInterruptHandler@int_obj$ext_interrupt_RBx_low_handler	PTR FTN()void  size(2) Largest target is 0

    f$.$buffer	PTR unsigned char  size(2) Largest target is 0

    f$.$source	PTR const unsigned char  size(2) Largest target is 0

    gpio_pin_direction_initialize@_pin_config	PTR const struct . size(1) Largest target is 1
		 -> led_initialize@pin(BANK0[1]), relay_initialize@pin(COMRAM[1]), 

    gpio_pin_initialize@_pin_config	PTR const struct . size(1) Largest target is 1
		 -> led_initialize@pin(BANK0[1]), relay_initialize@pin(COMRAM[1]), 

    gpio_pin_toggle_logic@_pin_config	PTR const struct . size(1) Largest target is 1
		 -> led_turn_toggle@pin(COMRAM[1]), 

    gpio_pin_write_logic@_pin_config	PTR const struct . size(1) Largest target is 1
		 -> led_initialize@pin(BANK0[1]), led_turn_off@pin(COMRAM[1]), led_turn_on@pin(COMRAM[1]), relay_initialize@pin(COMRAM[1]), 
		 -> relay_turn_off@pin(COMRAM[1]), relay_turn_on@pin(COMRAM[1]), 

    INT0_InterruptHandler	PTR FTN()void  size(2) Largest target is 1
		 -> NULL(), 

    INT1_InterruptHandler	PTR FTN()void  size(2) Largest target is 1
		 -> NULL(), 

    INT2_InterruptHandler	PTR FTN()void  size(2) Largest target is 1
		 -> NULL(), 

    lat_registers	PTR volatile unsigned char [5] size(2) Largest target is 1
		 -> LATA(BITBIGSFRllll[1]), LATB(BITBIGSFRlllh[1]), LATC(BITBIGSFRlllh[1]), LATD(BITBIGSFRlllh[1]), 
		 -> LATE(BITBIGSFRlllh[1]), 

    led_initialize@led	PTR const struct . size(1) Largest target is 1
		 -> led1(COMRAM[1]), 

    led_turn_toggle@led	PTR const struct . size(1) Largest target is 1
		 -> led1(COMRAM[1]), 

    port_registers	PTR volatile unsigned char [5] size(2) Largest target is 1
		 -> PORTA(BITBIGSFRllll[1]), PORTB(BITBIGSFRllll[1]), PORTC(BITBIGSFRllll[1]), PORTD(BITBIGSFRllll[1]), 
		 -> PORTE(BITBIGSFRllll[1]), 

    RB4_High_InterruptHandler	PTR FTN()void  size(2) Largest target is 1
		 -> NULL(), 

    RB4_Low_InterruptHandler	PTR FTN()void  size(2) Largest target is 1
		 -> NULL(), 

    RB5_High_InterruptHandler	PTR FTN()void  size(2) Largest target is 1
		 -> NULL(), 

    RB5_Low_InterruptHandler	PTR FTN()void  size(2) Largest target is 1
		 -> NULL(), 

    RB6_High_InterruptHandler	PTR FTN()void  size(2) Largest target is 1
		 -> NULL(), 

    RB6_Low_InterruptHandler	PTR FTN()void  size(2) Largest target is 1
		 -> NULL(), 

    RB7_High_InterruptHandler	PTR FTN()void  size(2) Largest target is 1
		 -> NULL(), 

    RB7_Low_InterruptHandler	PTR FTN()void  size(2) Largest target is 1
		 -> NULL(), 

    S1693$ext_interrupt_INTx_handler	PTR FTN()void  size(2) Largest target is 0

    S1732$ext_interrupt_RBx_high_handler	PTR FTN()void  size(2) Largest target is 0

    S1732$ext_interrupt_RBx_low_handler	PTR FTN()void  size(2) Largest target is 0

    S2125$TIMER0_InterruptHandler	PTR FTN()void  size(2) Largest target is 1
		 -> TIMER0_APP_ISR(), 

    S2821$buffer	PTR unsigned char  size(2) Largest target is 0

    S2821$source	PTR const unsigned char  size(2) Largest target is 0

    S813$ADC_InterruptHandler	PTR FTN()void  size(2) Largest target is 0

    select_result_format@_adc$ADC_InterruptHandler	PTR FTN()void  size(2) Largest target is 0

    sp__memset	PTR void  size(2) Largest target is 0

    timer0_Init@_timer	PTR const struct . size(1) Largest target is 7
		 -> counter(COMRAM[7]), 

    timer0_Init@_timer$TIMER0_InterruptHandler	PTR FTN()void  size(2) Largest target is 1
		 -> TIMER0_APP_ISR(), 

    TIMER0_InterruptHandler	PTR FTN()void  size(2) Largest target is 1
		 -> TIMER0_APP_ISR(), NULL(), 

    timer0_Mode_Select@_timer	PTR const struct . size(1) Largest target is 7
		 -> counter(COMRAM[7]), 

    timer0_Mode_Select@_timer$TIMER0_InterruptHandler	PTR FTN()void  size(2) Largest target is 1
		 -> TIMER0_APP_ISR(), 

    timer0_Prescaler_Config@_timer	PTR const struct . size(1) Largest target is 7
		 -> counter(COMRAM[7]), 

    timer0_Prescaler_Config@_timer$TIMER0_InterruptHandler	PTR FTN()void  size(2) Largest target is 1
		 -> TIMER0_APP_ISR(), 

    timer0_Read_Value@_timer	PTR const struct . size(1) Largest target is 7
		 -> counter(COMRAM[7]), 

    timer0_Read_Value@_value	PTR unsigned short  size(1) Largest target is 2
		 -> value(COMRAM[2]), 

    timer0_Register_Size_Config@_timer	PTR const struct . size(1) Largest target is 7
		 -> counter(COMRAM[7]), 

    timer0_Register_Size_Config@_timer$TIMER0_InterruptHandler	PTR FTN()void  size(2) Largest target is 1
		 -> TIMER0_APP_ISR(), 

    tris_registers	PTR volatile unsigned char [5] size(2) Largest target is 1
		 -> TRISA(BITBIGSFRllll[1]), TRISB(ABS[1]), TRISC(ABS[1]), TRISD(ABS[1]), 
		 -> TRISE(ABS[1]), 

    vfprintf$0	PTR struct _IO_FILE size(1) Largest target is 12
		 -> sprintf@f(COMRAM[12]), 

    vfprintf$1	PTR const unsigned char  size(1) Largest target is 3
		 -> STR_1(CODE[3]), STR_2(CODE[3]), STR_3(CODE[3]), 

    vfprintf$2	PTR PTR void  size(1) Largest target is 1
		 -> sprintf@ap(COMRAM[1]), 


Critical Paths under _main in COMRAM

    _application_initialize->_timer0_Init
    _timer0_Init->_timer0_Prescaler_Config
    _gpio_pin_initialize->_gpio_pin_write_logic

Critical Paths under _InterruptManagerLow in COMRAM

    None.

Critical Paths under _InterruptManagerHigh in COMRAM

    _TIMER0_APP_ISR->_led_turn_toggle
    _led_turn_toggle->_gpio_pin_toggle_logic

Critical Paths under _main in BANK0

    _application_initialize->_ecu_layer_initialize
    _ecu_layer_initialize->_led_initialize
    _led_initialize->_gpio_pin_initialize
    _gpio_pin_initialize->_gpio_pin_direction_initialize
    _gpio_pin_initialize->_gpio_pin_write_logic

Critical Paths under _InterruptManagerLow in BANK0

    None.

Critical Paths under _InterruptManagerHigh in BANK0

    None.

Critical Paths under _main in BANK1

    None.

Critical Paths under _InterruptManagerLow in BANK1

    None.

Critical Paths under _InterruptManagerHigh in BANK1

    None.

Critical Paths under _main in BANK2

    None.

Critical Paths under _InterruptManagerLow in BANK2

    None.

Critical Paths under _InterruptManagerHigh in BANK2

    None.

Critical Paths under _main in BANK3

    None.

Critical Paths under _InterruptManagerLow in BANK3

    None.

Critical Paths under _InterruptManagerHigh in BANK3

    None.

Critical Paths under _main in BANK4

    None.

Critical Paths under _InterruptManagerLow in BANK4

    None.

Critical Paths under _InterruptManagerHigh in BANK4

    None.

Critical Paths under _main in BANK5

    None.

Critical Paths under _InterruptManagerLow in BANK5

    None.

Critical Paths under _InterruptManagerHigh in BANK5

    None.

Critical Paths under _main in BANK6

    None.

Critical Paths under _InterruptManagerLow in BANK6

    None.

Critical Paths under _InterruptManagerHigh in BANK6

    None.

Critical Paths under _main in BANK7

    None.

Critical Paths under _InterruptManagerLow in BANK7

    None.

Critical Paths under _InterruptManagerHigh in BANK7

    None.

Critical Paths under _main in BANK8

    None.

Critical Paths under _InterruptManagerLow in BANK8

    None.

Critical Paths under _InterruptManagerHigh in BANK8

    None.

Critical Paths under _main in BANK9

    None.

Critical Paths under _InterruptManagerLow in BANK9

    None.

Critical Paths under _InterruptManagerHigh in BANK9

    None.

Critical Paths under _main in BANK10

    None.

Critical Paths under _InterruptManagerLow in BANK10

    None.

Critical Paths under _InterruptManagerHigh in BANK10

    None.

Critical Paths under _main in BANK11

    None.

Critical Paths under _InterruptManagerLow in BANK11

    None.

Critical Paths under _InterruptManagerHigh in BANK11

    None.

Critical Paths under _main in BANK12

    None.

Critical Paths under _InterruptManagerLow in BANK12

    None.

Critical Paths under _InterruptManagerHigh in BANK12

    None.

Critical Paths under _main in BANK13

    None.

Critical Paths under _InterruptManagerLow in BANK13

    None.

Critical Paths under _InterruptManagerHigh in BANK13

    None.

Critical Paths under _main in BANK14

    None.

Critical Paths under _InterruptManagerLow in BANK14

    None.

Critical Paths under _InterruptManagerHigh in BANK14

    None.

Critical Paths under _main in BANK15

    None.

Critical Paths under _InterruptManagerLow in BANK15

    None.

Critical Paths under _InterruptManagerHigh in BANK15

    None.

Call Graph Tables:

 ---------------------------------------------------------------------------------
 (Depth) Function   	        Calls       Base Space   Used Autos Params    Refs
 ---------------------------------------------------------------------------------
 (0) _main                                                 0     0      0    9415
             _application_initialize
                  _timer0_Read_Value
 ---------------------------------------------------------------------------------
 (1) _timer0_Read_Value                                    7     5      2     353
                                             16 COMRAM     2     0      2
                                              0 BANK0      5     5      0
 ---------------------------------------------------------------------------------
 (1) _application_initialize                               1     1      0    9062
               _ecu_layer_initialize
                        _timer0_Init
 ---------------------------------------------------------------------------------
 (2) _timer0_Init                                          4     3      1     986
                                             18 COMRAM     1     0      1
                                              0 BANK0      3     3      0
            _global_interrupt_Enable
                 _timer0_Mode_Select
            _timer0_Prescaler_Config
        _timer0_Register_Size_Config
 ---------------------------------------------------------------------------------
 (3) _timer0_Register_Size_Config                          1     0      1     152
                                             16 COMRAM     1     0      1
 ---------------------------------------------------------------------------------
 (3) _timer0_Prescaler_Config                              2     1      1     183
                                             16 COMRAM     2     1      1
 ---------------------------------------------------------------------------------
 (3) _timer0_Mode_Select                                   1     0      1     214
                                             16 COMRAM     1     0      1
 ---------------------------------------------------------------------------------
 (3) _global_interrupt_Enable                              0     0      0       0
 ---------------------------------------------------------------------------------
 (2) _ecu_layer_initialize                                 1     1      0    8067
                                             12 BANK0      1     1      0
                     _led_initialize
 ---------------------------------------------------------------------------------
 (3) _led_initialize                                       4     3      1    8030
                                              8 BANK0      4     3      1
                _gpio_pin_initialize
 ---------------------------------------------------------------------------------
 (4) _gpio_pin_initialize                                  3     2      1    7679
                                              5 BANK0      3     2      1
      _gpio_pin_direction_initialize
               _gpio_pin_write_logic
 ---------------------------------------------------------------------------------
 (5) _gpio_pin_write_logic                                 8     6      2    5362
                                             16 COMRAM     3     1      2
                                              0 BANK0      5     5      0
 ---------------------------------------------------------------------------------
 (5) _gpio_pin_direction_initialize                        7     6      1     738
                                             16 COMRAM     2     1      1
                                              0 BANK0      5     5      0
 ---------------------------------------------------------------------------------
 Estimated maximum stack depth 5
 ---------------------------------------------------------------------------------
 (Depth) Function   	        Calls       Base Space   Used Autos Params    Refs
 ---------------------------------------------------------------------------------
 (6) _InterruptManagerLow                                  1     1      0       0
                                             15 COMRAM     1     1      0
                           _INT1_ISR
                           _INT2_ISR
 ---------------------------------------------------------------------------------
 (7) _INT2_ISR                                             0     0      0       0
 ---------------------------------------------------------------------------------
 (7) _INT1_ISR                                             0     0      0       0
 ---------------------------------------------------------------------------------
 Estimated maximum stack depth 7
 ---------------------------------------------------------------------------------
 (Depth) Function   	        Calls       Base Space   Used Autos Params    Refs
 ---------------------------------------------------------------------------------
 (8) _InterruptManagerHigh                                 6     6      0     534
                                              9 COMRAM     6     6      0
                            _ADC_ISR
                           _INT0_ISR
                            _RB4_ISR
                            _RB5_ISR
                            _RB6_ISR
                            _RB7_ISR
                         _TIMER0_ISR
 ---------------------------------------------------------------------------------
 (9) _TIMER0_ISR                                           0     0      0     414
                                NULL *
                     _TIMER0_APP_ISR *
 ---------------------------------------------------------------------------------
 (10) _TIMER0_APP_ISR                                      0     0      0     414
                    _led_turn_toggle
 ---------------------------------------------------------------------------------
 (11) _led_turn_toggle                                     4     3      1     414
                                              6 COMRAM     3     2      1
              _gpio_pin_toggle_logic
 ---------------------------------------------------------------------------------
 (12) _gpio_pin_toggle_logic                               6     5      1     210
                                              0 COMRAM     6     5      1
 ---------------------------------------------------------------------------------
 (10) NULL(Fake)                                           0     0      0       0
 ---------------------------------------------------------------------------------
 (9) _RB7_ISR                                              1     1      0      30
                                              0 COMRAM     1     1      0
 ---------------------------------------------------------------------------------
 (9) _RB6_ISR                                              1     1      0      30
                                              0 COMRAM     1     1      0
 ---------------------------------------------------------------------------------
 (9) _RB5_ISR                                              1     1      0      30
                                              0 COMRAM     1     1      0
 ---------------------------------------------------------------------------------
 (9) _RB4_ISR                                              1     1      0      30
                                              0 COMRAM     1     1      0
 ---------------------------------------------------------------------------------
 (9) _INT0_ISR                                             0     0      0       0
 ---------------------------------------------------------------------------------
 (9) _ADC_ISR                                              0     0      0       0
 ---------------------------------------------------------------------------------
 Estimated maximum stack depth 12
 ---------------------------------------------------------------------------------

 Call Graph Graphs:

 _main (ROOT)
   _application_initialize
     _ecu_layer_initialize
       _led_initialize
         _gpio_pin_initialize
           _gpio_pin_direction_initialize
           _gpio_pin_write_logic
     _timer0_Init
       _global_interrupt_Enable
       _timer0_Mode_Select
       _timer0_Prescaler_Config
       _timer0_Register_Size_Config
   _timer0_Read_Value

 _InterruptManagerLow (ROOT)
   _INT1_ISR
   _INT2_ISR

 _InterruptManagerHigh (ROOT)
   _ADC_ISR
   _INT0_ISR
   _RB4_ISR
   _RB5_ISR
   _RB6_ISR
   _RB7_ISR
   _TIMER0_ISR
     NULL(Fake) *
     _TIMER0_APP_ISR *
       _led_turn_toggle
         _gpio_pin_toggle_logic

 Address spaces:
Name               Size   Autos  Total    Cost      Usage
BIGRAM             F7F      0       0      46        0.0%
EEDATA             400      0       0       0        0.0%
BITBANK14          100      0       0      33        0.0%
BANK14             100      0       0      34        0.0%
BITBANK13          100      0       0      31        0.0%
BANK13             100      0       0      32        0.0%
BITBANK12          100      0       0      29        0.0%
BANK12             100      0       0      30        0.0%
BITBANK11          100      0       0      27        0.0%
BANK11             100      0       0      28        0.0%
BITBANK10          100      0       0      25        0.0%
BANK10             100      0       0      26        0.0%
BITBANK9           100      0       0      23        0.0%
BANK9              100      0       0      24        0.0%
BITBANK8           100      0       0      21        0.0%
BANK8              100      0       0      22        0.0%
BITBANK7           100      0       0      18        0.0%
BANK7              100      0       0      19        0.0%
BITBANK6           100      0       0      16        0.0%
BANK6              100      0       0      17        0.0%
BITBANK5           100      0       0      14        0.0%
BANK5              100      0       0      15        0.0%
BITBANK4           100      0       0      12        0.0%
BANK4              100      0       0      13        0.0%
BITBANK3           100      0       0      10        0.0%
BANK3              100      0       0      11        0.0%
BITBANK2           100      0       0       8        0.0%
BANK2              100      0       0       9        0.0%
BITBANK1           100      0       0       6        0.0%
BANK1              100      0       0       7        0.0%
BITBANK15           80      0       0      35        0.0%
BANK15              80      0       0      36        0.0%
BITBANK0            80      0       0       4        0.0%
BANK0               80      D      3A       5       45.3%
BITCOMRAM           7E      0       0       0        0.0%
COMRAM              7E     13      6E       1       87.3%
BITBIGSFRhhllhh     18      0       0      38        0.0%
BITBIGSFRlhh        15      0       0      41        0.0%
BITBIGSFRhhh         D      0       0      37        0.0%
BITBIGSFRhhlll       B      0       0      40        0.0%
BITBIGSFRllhh        6      0       0      43        0.0%
BITBIGSFRlhll        6      0       0      42        0.0%
BITBIGSFRhhllhl      4      0       0      39        0.0%
BITBIGSFRlllh        4      0       0      44        0.0%
BITBIGSFRllll        4      0       0      45        0.0%
BIGSFR               0      0       0     200        0.0%
BITSFR               0      0       0     200        0.0%
SFR                  0      0       0     200        0.0%
STACK                0      0       0       2        0.0%
NULL                 0      0       0       0        0.0%
ABS                  0      0      A8      20        0.0%
DATA                 0      0      A8       3        0.0%
CODE                 0      0       0       0        0.0%


Microchip Technology PIC18 Macro Assembler V2.46 build 20240104201356 
Symbol Table                                                                                   Sun Sep 15 12:09:53 2024

                                      bsr 0FE0                     ??_InterruptManagerLow 006B  
                       ??_led_turn_toggle 0063                                       l287 17BA  
                                     l288 17BC                                       l369 1AEE  
                                     l566 154A                                       l567 154C  
                                     l583 1412                                       l584 1414  
                                     l598 1742                                       l942 1B0E  
                                     l599 1744                                       l976 1AFC  
                  ??_InterruptManagerHigh 0065                           __end_of_ADC_ISR 1B20  
                                     _ret 0053                       led_initialize@F3062 0032  
                                     tosl 0FFD                     relay_initialize@F3060 002E  
                                     wreg 0FE8                  _RB4_Low_InterruptHandler 001D  
                _RB7_Low_InterruptHandler 0011                           __end_of_RB4_ISR 1ADE  
                         __end_of_RB5_ISR 1AC4                           __end_of_RB6_ISR 1AAA  
                         __end_of_RB7_ISR 1A90                                      l1010 161C  
                                    l1006 1606                                      l1032 1950  
                                    l1024 199E                                      l1009 1618  
                                    l1025 19A0                                      l1042 1832  
                                    l1050 19DA                                      l1043 1832  
                                    l5012 1AF0                                      l5020 196C  
                                    l5014 1AF0                                      l5022 1974  
                                    l5016 1AF4                                      l5024 199A  
                                    l5018 1952                                      l4700 14C4  
                                    l4702 1516                                      l4710 12CC  
                                    l4704 151E                                      l4720 1336  
                                    l4712 12E0                                      l4800 19D8  
                                    l5600 1A60                                      l4722 138E  
                                    l4714 12FE                                      l4716 131E  
                                    l4724 13E0                                      l4740 16D8  
                                    l4900 159C                                      l5622 13FC  
                                    l4726 13E8                                      l4742 16F4  
                                    l4750 1746                                      l4910 15EA  
                                    l4902 15AA                                      l4744 1714  
                                    l4760 17A6                                      l4752 1758  
                                    l4912 1604                                      l4904 15BC  
                                    l4690 1416                                      l4746 173E  
                                    l4738 16C6                                      l4754 175C  
                                    l4762 17B6                                      l4770 1918  
                                    l4914 160A                                      l4906 15CA  
                                    l4692 142A                                      l4756 1792  
                                    l4780 17D6                                      l4772 191A  
                                    l4916 160E                                      l4908 15E4  
                                    l4694 1448                                      l4758 1794  
                                    l4766 1B08                                      l4790 1814  
                                    l4782 17DC                                      l4774 1936  
                                    l4918 1614                                      l4792 182C  
                                    l4784 17F4                                      l4776 194E  
                                    l4768 1900                                      l4698 146C  
                                    l4786 17F6                                      l4778 17BE  
                                    l4794 19A2                                      l4884 1ADE  
                                    l4788 180E                                      l4796 19BA  
                                    l4892 154E                                      l4886 1ADE  
                                    l4798 19C0                                      l4894 1564  
                                    l5598 1A5C                                      l4888 1AEC  
                                    l4896 1566                                      l4898 157E  
                                    STR_1 1011                                      _LATA 0F89  
                                    _LATB 0F8A                                      _LATC 0F8B  
                                    u4000 194E                                      _LATD 0F8C  
                                    u4001 194A                                      _LATE 0F8D  
                                    u4010 17D6                                      u4011 17D2  
                                    u4020 17F4                                      u4021 17F0  
                                    u4030 180E                                      u4031 180A  
                                    u4040 182C                                      u4041 1828  
                                    u4050 19BA                                      u4051 19B6  
                                    u4060 19D8                                      u4061 19D4  
                                    u4310 196C                                      u4311 1968  
                                    u4160 1564                                      u4161 1560  
                                    u4170 15E4                                      u4171 15E0  
                                    u4180 1604                                      u4181 1600  
                                    u3820 142A                                      u3900 131E  
                                    u3821 1426                                      u3901 131A  
                                    u3830 1448                                      u3910 1332  
                                    u3831 1444                                      u3911 132E  
                                    u3840 1468                                      u3841 1464  
                                    u3924 1354                                      u3940 16D8  
                                    u3925 1350                                      u3941 16D4  
                                    u3870 1534                                      u3854 148A  
                                    u3934 13AC                                      u3950 16F4  
                                    u3871 152E                                      u3855 1486  
                                    u3935 13A8                                      u3951 16F0  
                                    u3864 14E2                                      u3880 12E0  
                                    u3960 1714                                      u3865 14DE  
                                    u3881 12DC                                      u3961 1710  
                                    u3890 12FE                                      u3970 1758  
                                    u3891 12FA                                      u3971 1754  
                                    u3876 1536                                      u3990 1918  
                                    u3991 1914                                      u3985 17A2  
                                    u3987 17A6                                      _lcd1 009C  
                                    _lcd2 008A                                      _btn1 004E  
                                    _led1 005B                                      _main 1A5C  
                                    fsr2h 0FDA                                      indf2 0FDF  
                                    fsr1l 0FE1                                      fsr2l 0FD9  
                                    btemp 006F                    __end_of_led_initialize 17BE  
                                    prodh 0FF4                                      prodl 0FF3  
                                    start 0066                  timer0_Read_Value@l_tmr0h 00A6  
                timer0_Read_Value@l_tmr0l 00A5                              ___param_bank 0000  
                  ?_gpio_pin_toggle_logic 005C                         _timer0_Read_Value 1952  
                    _gpio_pin_write_logic 12CC                               ?_TIMER0_ISR 005C  
                          _TIMER0_APP_ISR 1AFE           __end_of_timer0_Prescaler_Config 1952  
                      ?_timer0_Read_Value 006C                          __end_of_INT0_ISR 1B1C  
                        __end_of_INT1_ISR 1B18                          __end_of_INT2_ISR 1B14  
                                   ?_main 005C                  ??_application_initialize 006F  
                                   _EEADR 0FA9                 ??_global_interrupt_Enable 006C  
                                   i2l309 189C                                     i1l693 003E  
                                   i1l774 1B16                                     i1l696 005E  
                                   i2l801 1AC2                                     i1l779 1B12  
                                   i2l812 1AA8                                     i2l670 10D8  
                                   i2l823 1A8E                                     i2l496 1B1E  
                                   i2l680 122C                                     i2l672 111C  
                                   i2l593 16C2                                     i2l594 16C4  
                                   i2l682 1270                                     i2l674 1160  
                                   i2l666 1050                                     i2l684 1290  
                                   i2l676 11A4                                     i2l668 1094  
                                   i2l790 1ADC                                     i2l678 11E8  
                                   i2l687 12B0                                     i2l769 1B1A  
                                   i2l979 1B06                       relay_turn_off@F3070 002C  
                                   _TMR0H 0FD7                                     _TMR0L 0FD6  
                                   _PORTA 0F80                                     _PORTB 0F81  
                                   _PORTC 0F82                                     _PORTD 0F83  
                                   _PORTE 0F84                                     _TRISA 0F92  
                                   _TRISB 0F93                                     _TRISC 0F94  
                                   _TRISD 0F95                                     _TRISE 0F96  
                     ??_timer0_Read_Value 00A2                                     _value 0033  
                                   pclath 0FFA                                     pclatu 0FFB  
                                   tablat 0FF5                                     ttemp5 0070  
                                   ttemp6 0073                                     ttemp7 0077  
                                   status 0FD8                                     wtemp8 0070  
                         ?_led_initialize 00AA                 __end_of_timer0_Read_Value 19A2  
          ?_gpio_pin_direction_initialize 006C                           __initialization 189E  
                  __end_of_TIMER0_APP_ISR 1B08                              __end_of_main 1A76  
                   ?_gpio_pin_write_logic 006C                                 ??_ADC_ISR 005C  
                           _lat_registers 0035                                    ??_main 006F  
                      _timer0_Mode_Select 17BE                             __activetblptr 0003  
                        led_turn_on@F3067 0031                                 ??_RB4_ISR 005C  
                               ??_RB5_ISR 005C                                 ??_RB6_ISR 005C  
                               ??_RB7_ISR 005C                 _RB5_High_InterruptHandler 0017  
                     ?_timer0_Mode_Select 006C                                    _ADRESH 0FC4  
                                  _EEADRH 0FAA                                    _ADRESL 0FC3  
                                  _EEDATA 0FA8                                    _EECON2 0FA7  
                                  i1l2220 1B14                                    i1l2226 1B10  
                                  i1l3240 004C                                    i1l3242 005A  
                                  i1l3234 001E                                    i1l3236 002C  
                                  i1l3238 003A                                    i2l1055 1A10  
                                  i2l2204 1A8E                                    i2l2142 1B1C  
                                  i2l2162 1ADC                                    i2l2154 1AC6  
                                  i2l2170 1AAE                                    i2l2148 1B18  
                                  i2l2156 1AC8                                    i2l2190 1AA8  
                                  i2l2182 1A92                                    i2l2176 1AC2  
                                  i2l2168 1AAC                                    i2l2184 1A94  
                                  i2l2196 1A78                                    i2l2198 1A7A  
                                  i2l3600 164E                                    i2l3602 166E  
                                  i2l3604 16BE                                    i2l3630 187E  
                                  i2l3632 1880                                    i2l3624 1834  
                                  i2l4600 118A                                    i2l3634 1890  
                                  i2l3626 1844                                    i2l4610 11CE  
                                  i2l4602 119A                                    i2l3628 1848  
                                  i2l3636 189C                                    i2l4620 1212  
                                  i2l4612 11DE                                    i2l4604 119E  
                                  i2l4630 1256                                    i2l4622 1222  
                                  i2l4614 11E2                                    i2l4606 11B2  
                                  i2l4550 1030                                    i2l4640 129E  
                                  i2l4632 1266                                    i2l4624 1226  
                                  i2l4616 11F6                                    i2l4608 11C0  
                                  i2l4560 107A                                    i2l4552 103E  
                                  i2l4642 12AC                                    i2l4634 126A  
                                  i2l4626 123A                                    i2l4618 1204  
                                  i2l4570 10BE                                    i2l4562 108A  
                                  i2l4554 104C                                    i2l3596 161E  
                                  i2l4636 127E                                    i2l4628 1248  
                                  i2l4580 1102                                    i2l4572 10CE  
                                  i2l4564 108E                                    i2l4556 105E  
                                  i2l3598 1632                                    i2l4638 128C  
                                  i2l4590 1146                                    i2l4582 1112  
                                  i2l4574 10D2                                    i2l4566 10A2  
                                  i2l4558 106C                                    i2l4592 1156  
                                  i2l4584 1116                                    i2l4576 10E6  
                                  i2l4568 10B0                                    i2l3794 1AFE  
                                  i2l3890 19E2                                    i2l4594 115A  
                                  i2l4586 112A                                    i2l4578 10F4  
                                  i2l3892 19E6                                    i2l4596 116E  
                                  i2l4588 1138                                    i2l3894 19F8  
                                  i2l3886 19DC                                    i2l4598 117C  
                                  i2l3888 19DE               convert_uin8_to_string@F3227 0007  
                 _TIMER0_InterruptHandler 000D           __end_of_global_interrupt_Enable 1B10  
        gpio_pin_toggle_logic@_pin_config 005C                  gpio_pin_toggle_logic@ret 0061  
                    ??_timer0_Mode_Select 006D                           ?_TIMER0_APP_ISR 005C  
                            ?_timer0_Init 006E         timer0_Register_Size_Config@_timer 006C  
                                  clear_0 18E4                                    clear_1 18F0  
                                  _relay1 002B                                    _motor1 0051  
                                  isa$std 0001                              __pdataCOMRAM 0035  
                            __mediumconst 0000                                    tblptrh 0FF7  
                                  tblptrl 0FF6                                    tblptru 0FF8  
                              __accesstop 0080                   __end_of__initialization 18F6  
                               ?_INT0_ISR 005C                                 ?_INT1_ISR 005C  
                               ?_INT2_ISR 005C                             ___rparam_used 0001  
                       led_initialize@led 00AA                           _led_turn_toggle 1834  
                       led_initialize@pin 00AD                         led_initialize@ret 00AC  
                  ??_gpio_pin_write_logic 00A2                            __pcstackCOMRAM 005C  
                            __pidataBANK0 1A39                             RB4_ISR@source 005C  
gpio_pin_direction_initialize@_pin_config 006C                             RB5_ISR@source 005C  
                              __pbssBANK0 00AF                     _INT0_InterruptHandler 0023  
                              ??_INT0_ISR 005C                                ??_INT1_ISR 006B  
                              ??_INT2_ISR 006B                    _application_initialize 1AF0  
                 ??_gpio_pin_toggle_logic 005D               __end_of_InterruptManagerLow 0066  
                           RB6_ISR@source 005C                         led_turn_off@F3072 0030  
                            ??_TIMER0_ISR 0065                                   _ADC_ISR 1B1C  
            ecu_layer_initialize@ret_init 00AE                                   _RB4_ISR 1AC4  
                                 _RB5_ISR 1AAA                                   _RB6_ISR 1A90  
                                 _RB7_ISR 1A76                             _keypad_values 1001  
                _RB6_Low_InterruptHandler 0015                      led_turn_toggle@F3077 002F  
                ?_timer0_Prescaler_Config 006C                                   i2u63_40 1AD8  
                                 i2u63_41 1AD4                                   i2u64_40 1ABE  
                                 i2u64_41 1ABA                                   i2u65_40 1AA4  
                                 i2u65_41 1AA0                                   i2u66_40 1A8A  
                                 i2u66_41 1A86                             RB7_ISR@source 005C  
                        ??_led_initialize 00AB                   __end_of_led_turn_toggle 189E  
                          _tris_registers 003F                        __end_of_TIMER0_ISR 1A12  
                    _ADC_InterruptHandler 0025                                   __Hparam 0000  
                                 __Lparam 0000                       _gpio_pin_initialize 16C6  
                            __psmallconst 1000                                   __pcinit 189E  
                                 __ramtop 1000                                   __ptext0 1A5C  
                                 __ptext1 1952                                   __ptext2 1AF0  
                                 __ptext3 154E                                   __ptext4 19A2  
                                 __ptext5 1900                                   __ptext6 17BE  
                                 __ptext7 1B08                                   __ptext8 1ADE  
                                 __ptext9 1746                                 _T0CONbits 0FD5  
         ??_gpio_pin_direction_initialize 00A2                                   _counter 0054  
                                 _keypad1 0094                         timer0_Init@_timer 006E  
                    ?_gpio_pin_initialize 00A7                            __pintcode_body 1016  
                    end_of_initialization 18F6                                   int_func 1016  
                        ??_TIMER0_APP_ISR 0065                                   postdec1 0FE5  
                                 postdec2 0FDD                                   postinc0 0FEE  
                                 postinc2 0FDE                  ?_global_interrupt_Enable 005C  
                   _INT1_InterruptHandler 0021                                 _PORTBbits 0F81  
            ?_timer0_Register_Size_Config 006C                     ??_gpio_pin_initialize 00A8  
           timer0_Prescaler_Config@_timer 006C                 _RB6_High_InterruptHandler 0013  
                        ?_led_turn_toggle 0062                   timer0_Read_Value@_value 006D  
                 timer0_Read_Value@_timer 006C                        relay_turn_on@F3065 002D  
           convert_uint32_to_string@F3241 00AF             convert_uint16_to_string@F3234 0001  
                           __pidataCOMRAM 1A12                            _timer0_preload 000B  
                          timer0_Init@ret 00A4                       start_initialization 189E  
   __end_of_gpio_pin_direction_initialize 154E             _gpio_pin_direction_initialize 1416  
           ??_timer0_Register_Size_Config 006D                   ?_application_initialize 005C  
           __end_of_gpio_pin_toggle_logic 16C6                               __pdataBANK0 0080  
                                ?_ADC_ISR 005C              __end_of_ecu_layer_initialize 1AF0  
                                ?_RB4_ISR 005C                                  ?_RB5_ISR 005C  
                                ?_RB6_ISR 005C                                  ?_RB7_ISR 005C  
                             __pbssCOMRAM 0001                             __pcstackBANK0 00A2  
          __end_of_application_initialize 1AFE                     _INT2_InterruptHandler 001F  
            __end_of_InterruptManagerHigh 12CC                                 __pintcode 0008  
         gpio_pin_write_logic@_pin_config 006C                               __pintcodelo 0018  
               gpio_pin_write_logic@logic 006D                               __smallconst 1000  
                    timer0_Read_Value@ret 00A4                  _RB5_Low_InterruptHandler 0019  
                                _INT0_ISR 1B18                                  _INT1_ISR 1B14  
                                _INT2_ISR 1B10                                  _IPR1bits 0F9F  
                                _RB4_flag 002A                                  _PIE1bits 0F9D  
                                _RB5_flag 0029                                  _RB6_flag 0028  
                                _RB7_flag 0027                                  i1u203_20 002C  
                                i1u203_21 0028                                  i1u204_20 003A  
                                i1u204_21 0036                                  i1u205_20 004C  
                                i1u205_21 0048                                  i1u206_20 005A  
                                i1u206_21 0056                                  i2u242_40 1844  
                                i2u242_41 1840                                  i2u243_45 188E  
                                i2u243_47 1890                                  i2u236_40 1632  
                                i2u236_41 162E                                  i2u237_40 164E  
                                i2u237_41 164A                                  i2u238_40 166E  
                                i2u350_40 10BE                                  i2u342_40 103E  
                                i2u238_41 166A                                  i2u350_41 10BA  
                                i2u342_41 103A                                  i2u351_40 10CE  
                                i2u343_40 104C                                  i2u351_41 10CA  
                                i2u343_41 1048                                  i2u239_44 168C  
                                i2u239_45 1688                                  i2u360_40 116E  
                                i2u352_40 10E6                                  i2u344_40 105E  
                                i2u360_41 116A                                  i2u352_41 10E2  
                                i2u344_41 105A                                  i2u361_40 117C  
                                i2u353_40 10F4                                  i2u345_40 106C  
                                i2u361_41 1178                                  i2u353_41 10F0  
                                i2u345_41 1068                                  _PIR1bits 0F9E  
                                i2u370_40 1212                                  i2u362_40 118A  
                                i2u354_40 1102                                  i2u346_40 107A  
                                i2u370_41 120E                                  i2u362_41 1186  
                                i2u354_41 10FE                                  i2u346_41 1076  
                                i2u371_40 1222                                  i2u363_40 119A  
                                i2u355_40 1112                                  i2u347_40 108A  
                                i2u371_41 121E                                  i2u363_41 1196  
                                i2u355_41 110E                                  i2u347_41 1086  
                                i2u276_40 19F8                                  i2u372_40 123A  
                                i2u364_40 11B2                                  i2u356_40 112A  
                                i2u348_40 10A2                                  i2u276_41 19F4  
                                i2u372_41 1236                                  i2u364_41 11AE  
                                i2u356_41 1126                                  i2u348_41 109E  
                                i2u373_40 1248                                  i2u365_40 11C0  
                                i2u357_40 1138                                  i2u349_40 10B0  
                                i2u373_41 1244                                  i2u365_41 11BC  
                                i2u357_41 1134                                  i2u349_41 10AC  
                                i2u277_48 19FE                                  i2u374_40 1256  
                                i2u366_40 11CE                                  i2u358_40 1146  
                                i2u277_49 1A10                                  i2u374_41 1252  
                                i2u366_41 11CA                                  i2u358_41 1142  
                                i2u375_40 1266                                  i2u367_40 11DE  
                                i2u359_40 1156                                  i2u375_41 1262  
                                i2u367_41 11DA                                  i2u359_41 1152  
                                i2u376_40 127E                                  i2u368_40 11F6  
                                i2u376_41 127A                                  i2u368_41 11F2  
                                i2u377_40 128C                                  i2u369_40 1204  
                                i2u377_41 1288                                  i2u369_41 1200  
                                i2u378_40 129E                                  i2u378_41 129A  
                                i2u379_40 12AC                                  i2u379_41 12A8  
                           ??_timer0_Init 00A2                                  _RCONbits 0FD0  
        gpio_pin_direction_initialize@ret 006D                                _ADCON0bits 0FC2  
                              _ADCON1bits 0FC1                                _ADCON2bits 0FC0  
                  gpio_pin_initialize@ret 00A9                   gpio_pin_write_logic@ret 006E  
                             _INTCON2bits 0FF1                               _INTCON3bits 0FF0  
                               copy_data0 18B2                                 copy_data1 18D2  
                    _ecu_layer_initialize 1ADE                                _EECON1bits 0FA6  
                                __Hrparam 0000                                  __Lrparam 0000  
                timer0_Mode_Select@_timer 006C               __end_of_gpio_pin_initialize 1746  
                     __end_of_timer0_Init 161E            gpio_pin_initialize@_pin_config 00A7  
               _RB4_High_InterruptHandler 001B                      _InterruptManagerHigh 0008  
                                __ptext10 16C6                                  __ptext11 12CC  
                                __ptext20 161E                                  __ptext12 1416  
                                __ptext21 1A76                                  __ptext22 1A90  
                                __ptext14 1B10                                  __ptext23 1AAA  
                                __ptext15 1B14                                  __ptext24 1AC4  
                                __ptext25 1B18                                  __ptext17 19DC  
                                __ptext26 1B1C                                  __ptext18 1AFE  
                                __ptext19 1834                 _RB7_High_InterruptHandler 000F  
                      led_turn_toggle@led 0062                        led_turn_toggle@pin 0064  
                   ?_ecu_layer_initialize 005C                   _timer0_Prescaler_Config 1900  
              __end_of_timer0_Mode_Select 1834                                  _segment1 0049  
                                isa$xinst 0000                                  int$flags 006F  
                   __end_of_keypad_values 1011                                _INTCONbits 0FF2  
                   ?_InterruptManagerHigh 005C              __end_of_gpio_pin_write_logic 1416  
                                intlevel1 0000                                  intlevel2 0000  
                     _InterruptManagerLow 0018                               _timer0_Init 154E  
                   _gpio_pin_toggle_logic 161E                                _TIMER0_ISR 19DC  
                    ?_InterruptManagerLow 005C                            _port_registers 0080  
     __end_of_timer0_Register_Size_Config 19DC               _timer0_Register_Size_Config 19A2  
                 _global_interrupt_Enable 1B08                 ??_timer0_Prescaler_Config 006D  
                  ??_ecu_layer_initialize 006F                            _led_initialize 1746  
