

Microchip MPLAB XC8 Assembler V2.46 build 20240104201356 
                                                                                               Sun Sep 22 09:26:56 2024

Microchip MPLAB XC8 C Compiler v2.46 (Free license) build 20240104201356 Og1 
     1                           	processor	18F4620
     2                           	fnconf	rparam,??,?,0
     3                           	pagewidth 120
     4                           	opt	flic
     5                           	psect	idataCOMRAM,global,class=CODE,delta=1,noexec
     6                           	psect	smallconst,global,reloc=2,class=SMALLCONST,delta=1,noexec
     7                           	psect	cinit,global,reloc=2,class=CODE,delta=1
     8                           	psect	bssCOMRAM,global,class=COMRAM,space=1,delta=1,lowdata,noexec
     9                           	psect	dataCOMRAM,global,class=COMRAM,space=1,delta=1,lowdata,noexec
    10                           	psect	bssBANK0,global,class=BANK0,space=1,delta=1,lowdata,noexec
    11                           	psect	cstackBANK0,global,class=BANK0,space=1,delta=1,lowdata,noexec
    12                           	psect	cstackCOMRAM,global,class=COMRAM,space=1,delta=1,lowdata,noexec
    13                           	psect	text0,global,reloc=2,class=CODE,delta=1
    14                           	psect	text1,global,reloc=2,class=CODE,delta=1
    15                           	psect	text2,global,reloc=2,class=CODE,delta=1
    16                           	psect	text3,global,reloc=2,class=CODE,delta=1
    17                           	psect	text4,global,reloc=2,class=CODE,delta=1
    18                           	psect	text5,global,reloc=2,class=CODE,delta=1
    19                           	psect	text6,global,reloc=2,class=CODE,delta=1
    20                           	psect	intcode,global,reloc=2,class=CODE,delta=1
    21                           	psect	intcode_body,global,reloc=2,class=CODE,delta=1
    22                           	psect	intsave_regs,global,class=BIGRAM,space=1,delta=1,noexec
    23                           	psect	rparam,global,class=COMRAM,space=1,delta=1,noexec
    24                           	psect	temp,global,ovrld,common,class=COMRAM,space=1,delta=1,lowdata
    25                           	psect	config,global,abs,ovrld,class=CONFIG,space=4,delta=1,noexec
    26   000000                     
    27                           ; Generated 17/10/2023 GMT
    28                           ; 
    29                           ; Copyright © 2023, Microchip Technology Inc. and its subsidiaries ("Microchip")
    30                           ; All rights reserved.
    31                           ; 
    32                           ; This software is developed by Microchip Technology Inc. and its subsidiaries ("Microch
      +                          ip").
    33                           ; 
    34                           ; Redistribution and use in source and binary forms, with or without modification, are
    35                           ; permitted provided that the following conditions are met:
    36                           ; 
    37                           ;     1. Redistributions of source code must retain the above copyright notice, this lis
      +                          t of
    38                           ;        conditions and the following disclaimer.
    39                           ; 
    40                           ;     2. Redistributions in binary form must reproduce the above copyright notice, this 
      +                          list
    41                           ;        of conditions and the following disclaimer in the documentation and/or other
    42                           ;        materials provided with the distribution. Publication is not required when
    43                           ;        this file is used in an embedded application.
    44                           ; 
    45                           ;     3. Microchip's name may not be used to endorse or promote products derived from th
      +                          is
    46                           ;        software without specific prior written permission.
    47                           ; 
    48                           ; THIS SOFTWARE IS PROVIDED BY MICROCHIP "AS IS" AND ANY EXPRESS OR IMPLIED WARRANTIES,
    49                           ; INCLUDING, BUT NOT LIMITED TO, THE IMPLIED WARRANTIES OF MERCHANTABILITY AND FITNESS F
      +                          OR
    50                           ; PURPOSE ARE DISCLAIMED.  IN NO EVENT SHALL MICROCHIP BE LIABLE FOR ANY DIRECT, INDIREC
      +                          T,
    51                           ; INCIDENTAL, SPECIAL, EXEMPLARY, OR CONSEQUENTIAL DAMAGES (INCLUDING BUT NOT LIMITED TO
    52                           ; PROCUREMENT OF SUBSTITUTE GOODS OR SERVICES; LOSS OF USE, DATA OR PROFITS; OR BUSINESS
    53                           ; INTERRUPTION) HOWSOEVER CAUSED AND ON ANY THEORY OF LIABILITY, WHETHER IN CONTRACT, ST
      +                          RICT
    54                           ; LIABILITY, OR TORT (INCLUDING NEGLIGENCE OR OTHERWISE) ARISING IN ANY WAY OUT OF THE U
      +                          SE OF
    55                           ; THIS SOFTWARE, EVEN IF ADVISED OF THE POSSIBILITY OF SUCH DAMAGE.
    56                           ; 
    57                           ; 
    58                           ; Code-generator required, PIC18F4620 Definitions
    59                           ; 
    60                           ; SFR Addresses
    61   000000                     
    62                           	psect	idataCOMRAM
    63   0014CC                     __pidataCOMRAM:
    64                           	callstack 0
    65                           
    66                           ;initializer for _port_registers
    67   0014CC  80                 	db	128
    68   0014CD  0F                 	db	15
    69   0014CE  81                 	db	129
    70   0014CF  0F                 	db	15
    71   0014D0  82                 	db	130
    72   0014D1  0F                 	db	15
    73   0014D2  83                 	db	131
    74   0014D3  0F                 	db	15
    75   0014D4  84                 	db	132
    76   0014D5  0F                 	db	15
    77                           
    78                           ;initializer for _lat_registers
    79   0014D6  89                 	db	137
    80   0014D7  0F                 	db	15
    81   0014D8  8A                 	db	138
    82   0014D9  0F                 	db	15
    83   0014DA  8B                 	db	139
    84   0014DB  0F                 	db	15
    85   0014DC  8C                 	db	140
    86   0014DD  0F                 	db	15
    87   0014DE  8D                 	db	141
    88   0014DF  0F                 	db	15
    89                           
    90                           ;initializer for _tris_registers
    91   0014E0  92                 	db	146
    92   0014E1  0F                 	db	15
    93   0014E2  93                 	db	147
    94   0014E3  0F                 	db	15
    95   0014E4  94                 	db	148
    96   0014E5  0F                 	db	15
    97   0014E6  95                 	db	149
    98   0014E7  0F                 	db	15
    99   0014E8  96                 	db	150
   100   0014E9  0F                 	db	15
   101                           
   102                           ;initializer for _lcd2
   103   0014EA  32                 	db	50
   104   0014EB  3A                 	db	58
   105   0014EC  03                 	db	3
   106   0014ED  0B                 	db	11
   107   0014EE  13                 	db	19
   108   0014EF  1B                 	db	27
   109   0014F0  23                 	db	35
   110   0014F1  2B                 	db	43
   111   0014F2  33                 	db	51
   112   0014F3  3B                 	db	59
   113                           
   114                           ;initializer for _keypad1
   115   0014F4  02                 	db	2
   116   0014F5  0A                 	db	10
   117   0014F6  12                 	db	18
   118   0014F7  1A                 	db	26
   119   0014F8  62                 	db	98
   120   0014F9  6A                 	db	106
   121   0014FA  72                 	db	114
   122   0014FB  7A                 	db	122
   123                           
   124                           ;initializer for _lcd1
   125   0014FC  02                 	db	2
   126   0014FD  0A                 	db	10
   127   0014FE  12                 	db	18
   128   0014FF  1A                 	db	26
   129   001500  22                 	db	34
   130   001501  2A                 	db	42
   131                           
   132                           ;initializer for _segment1
   133   001502  02                 	db	2
   134   001503  0A                 	db	10
   135   001504  12                 	db	18
   136   001505  1A                 	db	26
   137   001506  00                 	db	0
   138                           
   139                           ;initializer for _btn1
   140   001507  4B                 	db	75
   141   001508  00                 	db	0
   142   001509  01                 	db	1
   143                           
   144                           ;initializer for _motor1
   145   00150A  02                 	db	2
   146   00150B  0A                 	db	10
   147                           
   148                           ;initializer for _ret
   149   00150C  01                 	db	1
   150                           
   151                           ;initializer for _led1
   152   00150D  03                 	db	3
   153                           
   154                           	psect	smallconst
   155   001000                     __psmallconst:
   156                           	callstack 0
   157   001000  00                 	db	0
   158   001001                     _keypad_values:
   159                           	callstack 0
   160   001001  37                 	db	55
   161   001002  38                 	db	56
   162   001003  39                 	db	57
   163   001004  2F                 	db	47
   164   001005  34                 	db	52
   165   001006  35                 	db	53
   166   001007  36                 	db	54
   167   001008  2A                 	db	42
   168   001009  31                 	db	49
   169   00100A  32                 	db	50
   170   00100B  33                 	db	51
   171   00100C  2D                 	db	45
   172   00100D  63                 	db	99
   173   00100E  30                 	db	48
   174   00100F  3D                 	db	61
   175   001010  2B                 	db	43
   176   001011                     __end_of_keypad_values:
   177                           	callstack 0
   178   000000                     _TMR3L	set	4018
   179   000000                     _TMR3H	set	4019
   180   000000                     _TMR1L	set	4046
   181   000000                     _TMR1H	set	4047
   182   000000                     _TMR0L	set	4054
   183   000000                     _TMR0H	set	4055
   184   000000                     _EECON2	set	4007
   185   000000                     _CCPR1H	set	4031
   186   000000                     _CCPR1L	set	4030
   187   000000                     _ADRESL	set	4035
   188   000000                     _ADRESH	set	4036
   189   000000                     _TRISD	set	3989
   190   000000                     _TRISC	set	3988
   191   000000                     _TRISB	set	3987
   192   000000                     _TRISE	set	3990
   193   000000                     _ADCON2bits	set	4032
   194   000000                     _ADCON1bits	set	4033
   195   000000                     _ADCON0bits	set	4034
   196   000000                     _PORTE	set	3972
   197   000000                     _PORTD	set	3971
   198   000000                     _PORTC	set	3970
   199   000000                     _PORTB	set	3969
   200   000000                     _PORTA	set	3968
   201   000000                     _LATA	set	3977
   202   000000                     _TRISA	set	3986
   203   000000                     _T2CONbits	set	4042
   204   000000                     _T1CONbits	set	4045
   205   000000                     _T0CONbits	set	4053
   206   000000                     _INTCONbits	set	4082
   207   000000                     _PIE1bits	set	3997
   208   000000                     _PIR1bits	set	3998
   209   000000                     _CCP1CONbits	set	4029
   210   000000                     _PIE2bits	set	4000
   211   000000                     _EECON1bits	set	4006
   212   000000                     _EEDATA	set	4008
   213   000000                     _EEADR	set	4009
   214   000000                     _EEADRH	set	4010
   215   000000                     _T3CONbits	set	4017
   216   000000                     _LATE	set	3981
   217   000000                     _LATD	set	3980
   218   000000                     _LATC	set	3979
   219   000000                     _LATB	set	3978
   220   000000                     _PIR2bits	set	4001
   221   000000                     _TMR2	set	4044
   222   001011                     STR_1:
   223   001011  25                 	db	37
   224   001012  69                 	db	105	;'i'
   225   001013  00                 	db	0
   226   001014  00                 	db	0	; dummy byte at the end
   227   000000                     
   228                           ; #config settings
   229                           
   230                           	psect	cinit
   231   001486                     __pcinit:
   232                           	callstack 0
   233   001486                     start_initialization:
   234                           	callstack 0
   235   001486                     __initialization:
   236                           	callstack 0
   237                           
   238                           ; Initialize objects allocated to COMRAM (66 bytes)
   239                           ; load TBLPTR registers with __pidataCOMRAM
   240   001486  0ECC               	movlw	low __pidataCOMRAM
   241   001488  6EF6               	movwf	tblptrl,c
   242   00148A  0E14               	movlw	high __pidataCOMRAM
   243   00148C  6EF7               	movwf	tblptrh,c
   244   00148E  0E00               	movlw	low (__pidataCOMRAM shr (0+16))
   245   001490  6EF8               	movwf	tblptru,c
   246   001492  EE00  F001         	lfsr	0,__pdataCOMRAM
   247   001496  EE10 F042          	lfsr	1,66
   248   00149A                     copy_data0:
   249   00149A  0009               	tblrd		*+
   250   00149C  CFF5 FFEE          	movff	tablat,postinc0
   251   0014A0  50E5               	movf	postdec1,w,c
   252   0014A2  50E1               	movf	fsr1l,w,c
   253   0014A4  E1FA               	bnz	copy_data0
   254                           
   255                           ; Clear objects allocated to BANK0 (11 bytes)
   256   0014A6  EE00  F080         	lfsr	0,__pbssBANK0
   257   0014AA  0E0B               	movlw	11
   258   0014AC                     clear_0:
   259   0014AC  6AEE               	clrf	postinc0,c
   260   0014AE  06E8               	decf	wreg,f,c
   261   0014B0  E1FD               	bnz	clear_0
   262                           
   263                           ; Clear objects allocated to COMRAM (27 bytes)
   264   0014B2  EE00  F043         	lfsr	0,__pbssCOMRAM
   265   0014B6  0E1B               	movlw	27
   266   0014B8                     clear_1:
   267   0014B8  6AEE               	clrf	postinc0,c
   268   0014BA  06E8               	decf	wreg,f,c
   269   0014BC  E1FD               	bnz	clear_1
   270   0014BE                     end_of_initialization:
   271                           	callstack 0
   272   0014BE                     __end_of__initialization:
   273                           	callstack 0
   274   0014BE  9071               	bcf	int$flags,0,c	;clear compiler interrupt flag (level 1)
   275   0014C0  9271               	bcf	int$flags,1,c	;clear compiler interrupt flag (level 2)
   276   0014C2  0E00               	movlw	low (__Lmediumconst shr (0+16))
   277   0014C4  6EF8               	movwf	tblptru,c
   278   0014C6  0100               	movlb	0
   279   0014C8  EF90  F00A         	goto	_main	;jump to C main() function
   280                           
   281                           	psect	bssCOMRAM
   282   000043                     __pbssCOMRAM:
   283                           	callstack 0
   284   000043                     	ds	6
   285   000049                     	ds	4
   286   00004D                     _timer3_preload:
   287                           	callstack 0
   288   00004D                     	ds	2
   289   00004F                     _timer1_preload:
   290                           	callstack 0
   291   00004F                     	ds	2
   292   000051                     _timer0_preload:
   293                           	callstack 0
   294   000051                     	ds	2
   295   000053                     ccp1_Compare_Mode_Set_Value@F3093:
   296                           	callstack 0
   297   000053                     	ds	2
   298   000055                     _timer2_preload:
   299                           	callstack 0
   300   000055                     	ds	1
   301   000056                     _relay1:
   302                           	callstack 0
   303   000056                     	ds	1
   304   000057                     relay_turn_off@F3070:
   305                           	callstack 0
   306   000057                     	ds	1
   307   000058                     relay_turn_on@F3065:
   308                           	callstack 0
   309   000058                     	ds	1
   310   000059                     relay_initialize@F3060:
   311                           	callstack 0
   312   000059                     	ds	1
   313   00005A                     led_turn_toggle@F3077:
   314                           	callstack 0
   315   00005A                     	ds	1
   316   00005B                     led_turn_off@F3072:
   317                           	callstack 0
   318   00005B                     	ds	1
   319   00005C                     led_turn_on@F3067:
   320                           	callstack 0
   321   00005C                     	ds	1
   322   00005D                     led_initialize@F3062:
   323                           	callstack 0
   324   00005D                     	ds	1
   325                           
   326                           	psect	dataCOMRAM
   327   000001                     __pdataCOMRAM:
   328                           	callstack 0
   329   000001                     _port_registers:
   330                           	callstack 0
   331   000001                     	ds	10
   332   00000B                     _lat_registers:
   333                           	callstack 0
   334   00000B                     	ds	10
   335   000015                     _tris_registers:
   336                           	callstack 0
   337   000015                     	ds	10
   338   00001F                     _lcd2:
   339                           	callstack 0
   340   00001F                     	ds	10
   341   000029                     _keypad1:
   342                           	callstack 0
   343   000029                     	ds	8
   344   000031                     _lcd1:
   345                           	callstack 0
   346   000031                     	ds	6
   347   000037                     _segment1:
   348                           	callstack 0
   349   000037                     	ds	5
   350   00003C                     _btn1:
   351                           	callstack 0
   352   00003C                     	ds	3
   353   00003F                     _motor1:
   354                           	callstack 0
   355   00003F                     	ds	2
   356   000041                     _ret:
   357                           	callstack 0
   358   000041                     	ds	1
   359   000042                     _led1:
   360                           	callstack 0
   361   000042                     	ds	1
   362                           
   363                           	psect	bssBANK0
   364   000080                     __pbssBANK0:
   365                           	callstack 0
   366   000080                     	ds	11
   367                           
   368                           	psect	cstackBANK0
   369   00008B                     __pcstackBANK0:
   370                           	callstack 0
   371   00008B                     ??_gpio_pin_direction_initialize:
   372   00008B                     ??_gpio_pin_write_logic:
   373                           
   374                           ; 1 bytes @ 0x0
   375   00008B                     	ds	5
   376   000090                     gpio_pin_initialize@ret:
   377                           	callstack 0
   378                           
   379                           ; 1 bytes @ 0x5
   380   000090                     	ds	1
   381   000091                     led_initialize@led:
   382                           	callstack 0
   383                           
   384                           ; 1 bytes @ 0x6
   385   000091                     	ds	1
   386   000092                     ??_led_initialize:
   387                           
   388                           ; 1 bytes @ 0x7
   389   000092                     	ds	1
   390   000093                     led_initialize@ret:
   391                           	callstack 0
   392                           
   393                           ; 1 bytes @ 0x8
   394   000093                     	ds	1
   395   000094                     led_initialize@pin:
   396                           	callstack 0
   397                           
   398                           ; 1 bytes @ 0x9
   399   000094                     	ds	1
   400   000095                     ecu_layer_initialize@ret_init:
   401                           	callstack 0
   402                           
   403                           ; 1 bytes @ 0xA
   404   000095                     	ds	1
   405                           
   406                           	psect	cstackCOMRAM
   407   00005E                     __pcstackCOMRAM:
   408                           	callstack 0
   409   00005E                     ??_InterruptManager:
   410   00005E                     
   411                           ; 2 bytes @ 0x0
   412   00005E                     	ds	14
   413   00006C                     gpio_pin_direction_initialize@_pin_config:
   414                           	callstack 0
   415   00006C                     gpio_pin_write_logic@_pin_config:
   416                           	callstack 0
   417                           
   418                           ; 1 bytes @ 0xE
   419   00006C                     	ds	1
   420   00006D                     gpio_pin_direction_initialize@ret:
   421                           	callstack 0
   422   00006D                     gpio_pin_write_logic@logic:
   423                           	callstack 0
   424                           
   425                           ; 1 bytes @ 0xF
   426   00006D                     	ds	1
   427   00006E                     gpio_pin_write_logic@ret:
   428                           	callstack 0
   429                           
   430                           ; 1 bytes @ 0x10
   431   00006E                     	ds	1
   432   00006F                     gpio_pin_initialize@_pin_config:
   433                           	callstack 0
   434                           
   435                           ; 1 bytes @ 0x11
   436   00006F                     	ds	1
   437   000070                     ??_gpio_pin_initialize:
   438                           
   439                           ; 1 bytes @ 0x12
   440   000070                     	ds	1
   441   000071                     
   442                           ; 1 bytes @ 0x13
   443 ;;
   444 ;;Main: autosize = 0, tempsize = 0, incstack = 0, save=0
   445 ;;
   446 ;; *************** function _main *****************
   447 ;; Defined at:
   448 ;;		line 19 in file "Application1.c"
   449 ;; Parameters:    Size  Location     Type
   450 ;;		None
   451 ;; Auto vars:     Size  Location     Type
   452 ;;		None
   453 ;; Return value:  Size  Location     Type
   454 ;;                  2  911[None  ] int 
   455 ;; Registers used:
   456 ;;		wreg, fsr2l, fsr2h, status,2, status,0, prodl, prodh, cstack
   457 ;; Tracked objects:
   458 ;;		On entry : 0/0
   459 ;;		On exit  : 0/0
   460 ;;		Unchanged: 0/0
   461 ;; Data sizes:     COMRAM   BANK0   BANK1   BANK2   BANK3   BANK4   BANK5   BANK6   BANK7   BANK8   BANK9  BANK10  BANK1
      +1  BANK12  BANK13  BANK14  BANK15
   462 ;;      Params:         0       0       0       0       0       0       0       0       0       0       0       0       
      +0       0       0       0       0
   463 ;;      Locals:         0       0       0       0       0       0       0       0       0       0       0       0       
      +0       0       0       0       0
   464 ;;      Temps:          0       0       0       0       0       0       0       0       0       0       0       0       
      +0       0       0       0       0
   465 ;;      Totals:         0       0       0       0       0       0       0       0       0       0       0       0       
      +0       0       0       0       0
   466 ;;Total ram usage:        0 bytes
   467 ;; Hardware stack levels required when called: 7
   468 ;; This function calls:
   469 ;;		_application_initialize
   470 ;; This function is called by:
   471 ;;		Startup code after reset
   472 ;; This function uses a non-reentrant model
   473 ;;
   474                           
   475                           	psect	text0
   476   001520                     __ptext0:
   477                           	callstack 0
   478   001520                     _main:
   479                           	callstack 24
   480   001520                     
   481                           ;Application1.c: 21:     application_initialize();
   482   001520  EC96  F00A         	call	_application_initialize	;wreg free
   483   001524                     l912:
   484   001524  EF92  F00A         	goto	l912
   485   001528  EF03  F000         	goto	start
   486   00152C                     __end_of_main:
   487                           	callstack 0
   488                           
   489 ;; *************** function _application_initialize *****************
   490 ;; Defined at:
   491 ;;		line 30 in file "Application1.c"
   492 ;; Parameters:    Size  Location     Type
   493 ;;		None
   494 ;; Auto vars:     Size  Location     Type
   495 ;;  ret_init        1    0        unsigned char 
   496 ;; Return value:  Size  Location     Type
   497 ;;                  1    wreg      void 
   498 ;; Registers used:
   499 ;;		wreg, fsr2l, fsr2h, status,2, status,0, prodl, prodh, cstack
   500 ;; Tracked objects:
   501 ;;		On entry : 0/0
   502 ;;		On exit  : 0/0
   503 ;;		Unchanged: 0/0
   504 ;; Data sizes:     COMRAM   BANK0   BANK1   BANK2   BANK3   BANK4   BANK5   BANK6   BANK7   BANK8   BANK9  BANK10  BANK1
      +1  BANK12  BANK13  BANK14  BANK15
   505 ;;      Params:         0       0       0       0       0       0       0       0       0       0       0       0       
      +0       0       0       0       0
   506 ;;      Locals:         0       0       0       0       0       0       0       0       0       0       0       0       
      +0       0       0       0       0
   507 ;;      Temps:          0       0       0       0       0       0       0       0       0       0       0       0       
      +0       0       0       0       0
   508 ;;      Totals:         0       0       0       0       0       0       0       0       0       0       0       0       
      +0       0       0       0       0
   509 ;;Total ram usage:        0 bytes
   510 ;; Hardware stack levels used: 1
   511 ;; Hardware stack levels required when called: 6
   512 ;; This function calls:
   513 ;;		_ecu_layer_initialize
   514 ;; This function is called by:
   515 ;;		_main
   516 ;; This function uses a non-reentrant model
   517 ;;
   518                           
   519                           	psect	text1
   520   00152C                     __ptext1:
   521                           	callstack 0
   522   00152C                     _application_initialize:
   523                           	callstack 24
   524   00152C  EC87  F00A         	call	_ecu_layer_initialize	;wreg free
   525   001530  0012               	return		;funcret
   526   001532                     __end_of_application_initialize:
   527                           	callstack 0
   528                           
   529 ;; *************** function _ecu_layer_initialize *****************
   530 ;; Defined at:
   531 ;;		line 213 in file "ECU_Layer/ecu_layer_init.c"
   532 ;; Parameters:    Size  Location     Type
   533 ;;		None
   534 ;; Auto vars:     Size  Location     Type
   535 ;;  ret_init        1   10[BANK0 ] unsigned char 
   536 ;; Return value:  Size  Location     Type
   537 ;;                  1    wreg      unsigned char 
   538 ;; Registers used:
   539 ;;		wreg, fsr2l, fsr2h, status,2, status,0, prodl, prodh, cstack
   540 ;; Tracked objects:
   541 ;;		On entry : 0/0
   542 ;;		On exit  : 0/0
   543 ;;		Unchanged: 0/0
   544 ;; Data sizes:     COMRAM   BANK0   BANK1   BANK2   BANK3   BANK4   BANK5   BANK6   BANK7   BANK8   BANK9  BANK10  BANK1
      +1  BANK12  BANK13  BANK14  BANK15
   545 ;;      Params:         0       0       0       0       0       0       0       0       0       0       0       0       
      +0       0       0       0       0
   546 ;;      Locals:         0       1       0       0       0       0       0       0       0       0       0       0       
      +0       0       0       0       0
   547 ;;      Temps:          0       0       0       0       0       0       0       0       0       0       0       0       
      +0       0       0       0       0
   548 ;;      Totals:         0       1       0       0       0       0       0       0       0       0       0       0       
      +0       0       0       0       0
   549 ;;Total ram usage:        1 bytes
   550 ;; Hardware stack levels used: 1
   551 ;; Hardware stack levels required when called: 5
   552 ;; This function calls:
   553 ;;		_led_initialize
   554 ;; This function is called by:
   555 ;;		_application_initialize
   556 ;; This function uses a non-reentrant model
   557 ;;
   558                           
   559                           	psect	text2
   560   00150E                     __ptext2:
   561                           	callstack 0
   562   00150E                     _ecu_layer_initialize:
   563                           	callstack 24
   564   00150E                     
   565                           ;ECU_Layer/ecu_layer_init.c: 217:     ret_init = led_initialize(&led1);
   566   00150E  0E42               	movlw	low _led1
   567   001510  0100               	movlb	0	; () banked
   568   001512  6F91               	movwf	led_initialize@led& (0+255),b
   569   001514  EC07  F00A         	call	_led_initialize	;wreg free
   570   001518  0100               	movlb	0	; () banked
   571   00151A  6F95               	movwf	ecu_layer_initialize@ret_init& (0+255),b
   572   00151C                     
   573                           ; BSR set to: 0
   574                           ;ECU_Layer/ecu_layer_init.c: 219:     return ret_init;
   575   00151C  5195               	movf	ecu_layer_initialize@ret_init& (0+255),w,b
   576   00151E                     
   577                           ; BSR set to: 0
   578   00151E  0012               	return		;funcret
   579   001520                     __end_of_ecu_layer_initialize:
   580                           	callstack 0
   581                           
   582 ;; *************** function _led_initialize *****************
   583 ;; Defined at:
   584 ;;		line 27 in file "ECU_Layer/LED/ecu_led.c"
   585 ;; Parameters:    Size  Location     Type
   586 ;;  led             1    6[BANK0 ] PTR const struct .
   587 ;;		 -> led1(1), 
   588 ;; Auto vars:     Size  Location     Type
   589 ;;  pin             1    9[BANK0 ] struct .
   590 ;;  ret             1    8[BANK0 ] unsigned char 
   591 ;; Return value:  Size  Location     Type
   592 ;;                  1    wreg      unsigned char 
   593 ;; Registers used:
   594 ;;		wreg, fsr2l, fsr2h, status,2, status,0, prodl, prodh, cstack
   595 ;; Tracked objects:
   596 ;;		On entry : 0/0
   597 ;;		On exit  : 0/0
   598 ;;		Unchanged: 0/0
   599 ;; Data sizes:     COMRAM   BANK0   BANK1   BANK2   BANK3   BANK4   BANK5   BANK6   BANK7   BANK8   BANK9  BANK10  BANK1
      +1  BANK12  BANK13  BANK14  BANK15
   600 ;;      Params:         0       1       0       0       0       0       0       0       0       0       0       0       
      +0       0       0       0       0
   601 ;;      Locals:         0       2       0       0       0       0       0       0       0       0       0       0       
      +0       0       0       0       0
   602 ;;      Temps:          0       1       0       0       0       0       0       0       0       0       0       0       
      +0       0       0       0       0
   603 ;;      Totals:         0       4       0       0       0       0       0       0       0       0       0       0       
      +0       0       0       0       0
   604 ;;Total ram usage:        4 bytes
   605 ;; Hardware stack levels used: 1
   606 ;; Hardware stack levels required when called: 4
   607 ;; This function calls:
   608 ;;		_gpio_pin_initialize
   609 ;; This function is called by:
   610 ;;		_ecu_layer_initialize
   611 ;; This function uses a non-reentrant model
   612 ;;
   613                           
   614                           	psect	text3
   615   00140E                     __ptext3:
   616                           	callstack 0
   617   00140E                     _led_initialize:
   618                           	callstack 24
   619   00140E                     
   620                           ;ECU_Layer/LED/ecu_led.c: 30:     if(led != ((void*)0))
   621   00140E  0100               	movlb	0	; () banked
   622   001410  5191               	movf	led_initialize@led& (0+255),w,b
   623   001412  B4D8               	btfsc	status,2,c
   624   001414  EF0E  F00A         	goto	u3101
   625   001418  EF10  F00A         	goto	u3100
   626   00141C                     u3101:
   627   00141C  EF3F  F00A         	goto	l4165
   628   001420                     u3100:
   629   001420                     
   630                           ; BSR set to: 0
   631                           ;ECU_Layer/LED/ecu_led.c: 31:     {;ECU_Layer/LED/ecu_led.c: 32:         pin_config_t pi
      +                          n = {.port = led->led_port ,.pin = led->led_pin ,
   632   001420  C05D  F094         	movff	led_initialize@F3062,led_initialize@pin
   633   001424                     
   634                           ; BSR set to: 0
   635   001424  5191               	movf	led_initialize@led& (0+255),w,b
   636   001426  6ED9               	movwf	fsr2l,c
   637   001428  6ADA               	clrf	fsr2h,c
   638   00142A  50DF               	movf	223,w,c
   639   00142C  0B07               	andlw	7
   640   00142E  6F92               	movwf	??_led_initialize& (0+255),b
   641   001430  5194               	movf	led_initialize@pin& (0+255),w,b
   642   001432  1992               	xorwf	??_led_initialize& (0+255),w,b
   643   001434  0BF8               	andlw	-8
   644   001436  1992               	xorwf	??_led_initialize& (0+255),w,b
   645   001438  6F94               	movwf	led_initialize@pin& (0+255),b
   646   00143A  5191               	movf	led_initialize@led& (0+255),w,b
   647   00143C  6ED9               	movwf	fsr2l,c
   648   00143E  6ADA               	clrf	fsr2h,c
   649   001440  30DF               	rrcf	223,w,c
   650   001442  32E8               	rrcf	wreg,f,c
   651   001444  32E8               	rrcf	wreg,f,c
   652   001446  0B07               	andlw	7
   653   001448  6F92               	movwf	??_led_initialize& (0+255),b
   654   00144A  4792               	rlncf	??_led_initialize& (0+255),f,b
   655   00144C  4792               	rlncf	??_led_initialize& (0+255),f,b
   656   00144E  4792               	rlncf	??_led_initialize& (0+255),f,b
   657   001450  5194               	movf	led_initialize@pin& (0+255),w,b
   658   001452  1992               	xorwf	??_led_initialize& (0+255),w,b
   659   001454  0BC7               	andlw	-57
   660   001456  1992               	xorwf	??_led_initialize& (0+255),w,b
   661   001458  6F94               	movwf	led_initialize@pin& (0+255),b
   662   00145A                     
   663                           ; BSR set to: 0
   664   00145A  9D94               	bcf	led_initialize@pin& (0+255),6,b
   665   00145C                     
   666                           ; BSR set to: 0
   667   00145C  5191               	movf	led_initialize@led& (0+255),w,b
   668   00145E  6ED9               	movwf	fsr2l,c
   669   001460  6ADA               	clrf	fsr2h,c
   670   001462  ACDF               	btfss	indf2,6,c
   671   001464  D002               	bra	u3115
   672   001466  8F94               	bsf	led_initialize@pin& (0+255),7,b
   673   001468  D002               	bra	u3117
   674   00146A                     u3115:
   675   00146A  0100               	movlb	0	; () banked
   676   00146C  9F94               	bcf	led_initialize@pin& (0+255),7,b
   677   00146E                     u3117:
   678   00146E                     
   679                           ; BSR set to: 0
   680                           ;ECU_Layer/LED/ecu_led.c: 34:         ret = gpio_pin_initialize(&pin);
   681   00146E  0E94               	movlw	low led_initialize@pin
   682   001470  6E6F               	movwf	gpio_pin_initialize@_pin_config^0,c
   683   001472  ECC7  F009         	call	_gpio_pin_initialize	;wreg free
   684   001476  0100               	movlb	0	; () banked
   685   001478  6F93               	movwf	led_initialize@ret& (0+255),b
   686                           
   687                           ;ECU_Layer/LED/ecu_led.c: 35:     }
   688   00147A  EF41  F00A         	goto	l287
   689   00147E                     l4165:
   690                           
   691                           ; BSR set to: 0
   692   00147E  0E00               	movlw	0
   693   001480  6F93               	movwf	led_initialize@ret& (0+255),b
   694   001482                     l287:
   695                           
   696                           ; BSR set to: 0
   697                           ;ECU_Layer/LED/ecu_led.c: 38:     return ret;
   698   001482  5193               	movf	led_initialize@ret& (0+255),w,b
   699   001484                     
   700                           ; BSR set to: 0
   701   001484  0012               	return		;funcret
   702   001486                     __end_of_led_initialize:
   703                           	callstack 0
   704                           
   705 ;; *************** function _gpio_pin_initialize *****************
   706 ;; Defined at:
   707 ;;		line 151 in file "MCAL_Layer/GPIO/mcal_gpio.c"
   708 ;; Parameters:    Size  Location     Type
   709 ;;  _pin_config     1   17[COMRAM] PTR const struct .
   710 ;;		 -> relay_initialize@pin(1), led_initialize@pin(1), 
   711 ;; Auto vars:     Size  Location     Type
   712 ;;  ret             1    5[BANK0 ] unsigned char 
   713 ;; Return value:  Size  Location     Type
   714 ;;                  1    wreg      unsigned char 
   715 ;; Registers used:
   716 ;;		wreg, fsr2l, fsr2h, status,2, status,0, prodl, prodh, cstack
   717 ;; Tracked objects:
   718 ;;		On entry : 0/0
   719 ;;		On exit  : 0/0
   720 ;;		Unchanged: 0/0
   721 ;; Data sizes:     COMRAM   BANK0   BANK1   BANK2   BANK3   BANK4   BANK5   BANK6   BANK7   BANK8   BANK9  BANK10  BANK1
      +1  BANK12  BANK13  BANK14  BANK15
   722 ;;      Params:         1       0       0       0       0       0       0       0       0       0       0       0       
      +0       0       0       0       0
   723 ;;      Locals:         0       1       0       0       0       0       0       0       0       0       0       0       
      +0       0       0       0       0
   724 ;;      Temps:          1       0       0       0       0       0       0       0       0       0       0       0       
      +0       0       0       0       0
   725 ;;      Totals:         2       1       0       0       0       0       0       0       0       0       0       0       
      +0       0       0       0       0
   726 ;;Total ram usage:        3 bytes
   727 ;; Hardware stack levels used: 1
   728 ;; Hardware stack levels required when called: 3
   729 ;; This function calls:
   730 ;;		_gpio_pin_direction_initialize
   731 ;;		_gpio_pin_write_logic
   732 ;; This function is called by:
   733 ;;		_led_initialize
   734 ;;		_dc_motor_initialize
   735 ;;		_keypad_initialize
   736 ;;		_lcd_4bit_initialize
   737 ;;		_lcd_8bit_initialize
   738 ;;		_relay_initialize
   739 ;;		_seven_segment_initialize
   740 ;;		_ccp1_Init
   741 ;; This function uses a non-reentrant model
   742 ;;
   743                           
   744                           	psect	text4
   745   00138E                     __ptext4:
   746                           	callstack 0
   747   00138E                     _gpio_pin_initialize:
   748                           	callstack 24
   749   00138E                     
   750                           ;MCAL_Layer/GPIO/mcal_gpio.c: 154:     if((_pin_config != ((void*)0)) && (_pin_config->p
      +                          ort <= 5 -1) && (_pin_config->pin <= 8 -1))
   751   00138E  506F               	movf	gpio_pin_initialize@_pin_config^0,w,c
   752   001390  B4D8               	btfsc	status,2,c
   753   001392  EFCD  F009         	goto	u3071
   754   001396  EFCF  F009         	goto	u3070
   755   00139A                     u3071:
   756   00139A  EF02  F00A         	goto	l4149
   757   00139E                     u3070:
   758   00139E  506F               	movf	gpio_pin_initialize@_pin_config^0,w,c
   759   0013A0  6ED9               	movwf	fsr2l,c
   760   0013A2  6ADA               	clrf	fsr2h,c
   761   0013A4  50DF               	movf	223,w,c
   762   0013A6  0B07               	andlw	7
   763   0013A8  6E70               	movwf	??_gpio_pin_initialize^0,c
   764   0013AA  0E05               	movlw	5
   765   0013AC  6070               	cpfslt	??_gpio_pin_initialize^0,c
   766   0013AE  EFDB  F009         	goto	u3081
   767   0013B2  EFDD  F009         	goto	u3080
   768   0013B6                     u3081:
   769   0013B6  EF02  F00A         	goto	l4149
   770   0013BA                     u3080:
   771   0013BA  506F               	movf	gpio_pin_initialize@_pin_config^0,w,c
   772   0013BC  6ED9               	movwf	fsr2l,c
   773   0013BE  6ADA               	clrf	fsr2h,c
   774   0013C0  30DF               	rrcf	223,w,c
   775   0013C2  32E8               	rrcf	wreg,f,c
   776   0013C4  32E8               	rrcf	wreg,f,c
   777   0013C6  0B07               	andlw	7
   778   0013C8  6E70               	movwf	??_gpio_pin_initialize^0,c
   779   0013CA  0E08               	movlw	8
   780   0013CC  6070               	cpfslt	??_gpio_pin_initialize^0,c
   781   0013CE  EFEB  F009         	goto	u3091
   782   0013D2  EFED  F009         	goto	u3090
   783   0013D6                     u3091:
   784   0013D6  EF02  F00A         	goto	l4149
   785   0013DA                     u3090:
   786   0013DA                     
   787                           ;MCAL_Layer/GPIO/mcal_gpio.c: 155:     {;MCAL_Layer/GPIO/mcal_gpio.c: 156:         ret =
      +                           gpio_pin_direction_initialize(_pin_config);
   788   0013DA  C06F  F06C         	movff	gpio_pin_initialize@_pin_config,gpio_pin_direction_initialize@_pin_config
   789   0013DE  ECB0  F008         	call	_gpio_pin_direction_initialize	;wreg free
   790   0013E2  0100               	movlb	0	; () banked
   791   0013E4  6F90               	movwf	gpio_pin_initialize@ret& (0+255),b
   792                           
   793                           ;MCAL_Layer/GPIO/mcal_gpio.c: 157:         ret = gpio_pin_write_logic(_pin_config,_pin_c
      +                          onfig->logic);
   794   0013E6  C06F  F06C         	movff	gpio_pin_initialize@_pin_config,gpio_pin_write_logic@_pin_config
   795   0013EA  506F               	movf	gpio_pin_initialize@_pin_config^0,w,c
   796   0013EC  6ED9               	movwf	fsr2l,c
   797   0013EE  6ADA               	clrf	fsr2h,c
   798   0013F0  0E00               	movlw	0
   799   0013F2  BEDF               	btfsc	indf2,7,c
   800   0013F4  0E01               	movlw	1
   801   0013F6  6E6D               	movwf	gpio_pin_write_logic@logic^0,c
   802   0013F8  EC0B  F008         	call	_gpio_pin_write_logic	;wreg free
   803   0013FC  0100               	movlb	0	; () banked
   804   0013FE  6F90               	movwf	gpio_pin_initialize@ret& (0+255),b
   805                           
   806                           ;MCAL_Layer/GPIO/mcal_gpio.c: 158:     }
   807   001400  EF05  F00A         	goto	l634
   808   001404                     l4149:
   809   001404  0E00               	movlw	0
   810   001406  0100               	movlb	0	; () banked
   811   001408  6F90               	movwf	gpio_pin_initialize@ret& (0+255),b
   812   00140A                     l634:
   813                           
   814                           ; BSR set to: 0
   815                           ;MCAL_Layer/GPIO/mcal_gpio.c: 160:     return ret;
   816   00140A  5190               	movf	gpio_pin_initialize@ret& (0+255),w,b
   817   00140C                     
   818                           ; BSR set to: 0
   819   00140C  0012               	return		;funcret
   820   00140E                     __end_of_gpio_pin_initialize:
   821                           	callstack 0
   822                           
   823 ;; *************** function _gpio_pin_write_logic *****************
   824 ;; Defined at:
   825 ;;		line 83 in file "MCAL_Layer/GPIO/mcal_gpio.c"
   826 ;; Parameters:    Size  Location     Type
   827 ;;  _pin_config     1   14[COMRAM] PTR const struct .
   828 ;;		 -> relay_turn_off@pin(1), relay_turn_on@pin(1), relay_initialize@pin(1), led_turn_off@pin(1), 
   829 ;;		 -> led_turn_on@pin(1), led_initialize@pin(1), 
   830 ;;  logic           1   15[COMRAM] enum E3002
   831 ;; Auto vars:     Size  Location     Type
   832 ;;  ret             1   16[COMRAM] unsigned char 
   833 ;; Return value:  Size  Location     Type
   834 ;;                  1    wreg      unsigned char 
   835 ;; Registers used:
   836 ;;		wreg, fsr2l, fsr2h, status,2, status,0, prodl, prodh
   837 ;; Tracked objects:
   838 ;;		On entry : 0/0
   839 ;;		On exit  : 0/0
   840 ;;		Unchanged: 0/0
   841 ;; Data sizes:     COMRAM   BANK0   BANK1   BANK2   BANK3   BANK4   BANK5   BANK6   BANK7   BANK8   BANK9  BANK10  BANK1
      +1  BANK12  BANK13  BANK14  BANK15
   842 ;;      Params:         2       0       0       0       0       0       0       0       0       0       0       0       
      +0       0       0       0       0
   843 ;;      Locals:         1       0       0       0       0       0       0       0       0       0       0       0       
      +0       0       0       0       0
   844 ;;      Temps:          0       5       0       0       0       0       0       0       0       0       0       0       
      +0       0       0       0       0
   845 ;;      Totals:         3       5       0       0       0       0       0       0       0       0       0       0       
      +0       0       0       0       0
   846 ;;Total ram usage:        8 bytes
   847 ;; Hardware stack levels used: 1
   848 ;; Hardware stack levels required when called: 2
   849 ;; This function calls:
   850 ;;		Nothing
   851 ;; This function is called by:
   852 ;;		_gpio_pin_initialize
   853 ;;		_dc_motor_move_right
   854 ;;		_dc_motor_move_left
   855 ;;		_dc_motor_stop
   856 ;;		_keypad_get_value
   857 ;;		_lcd_4bit_send_command
   858 ;;		_lcd_4bit_send_char_data
   859 ;;		_lcd_8bit_send_command
   860 ;;		_lcd_8bit_send_char_data
   861 ;;		_lcd_send_4bits
   862 ;;		_lcd_4bit_send_enable_signal
   863 ;;		_lcd_8bit_send_enable_signal
   864 ;;		_led_turn_on
   865 ;;		_led_turn_off
   866 ;;		_relay_turn_on
   867 ;;		_relay_turn_off
   868 ;;		_seven_segment_write_number
   869 ;; This function uses a non-reentrant model
   870 ;;
   871                           
   872                           	psect	text5
   873   001016                     __ptext5:
   874                           	callstack 0
   875   001016                     _gpio_pin_write_logic:
   876                           	callstack 24
   877   001016                     
   878                           ;MCAL_Layer/GPIO/mcal_gpio.c: 83: Std_ReturnType gpio_pin_write_logic(const pin_config_t
      +                           *_pin_config , logic_t logic);MCAL_Layer/GPIO/mcal_gpio.c: 84: {;MCAL_Layer/GPIO/mcal_g
      +                          pio.c: 85:     Std_ReturnType ret = (Std_ReturnType)0x01;
   879   001016  0E01               	movlw	1
   880   001018  6E6E               	movwf	gpio_pin_write_logic@ret^0,c
   881                           
   882                           ;MCAL_Layer/GPIO/mcal_gpio.c: 86:     if((_pin_config != ((void*)0)) && (_pin_config->po
      +                          rt <= 5 -1) && (_pin_config->pin <= 8 -1))
   883   00101A  506C               	movf	gpio_pin_write_logic@_pin_config^0,w,c
   884   00101C  B4D8               	btfsc	status,2,c
   885   00101E  EF13  F008         	goto	u3011
   886   001022  EF15  F008         	goto	u3010
   887   001026                     u3011:
   888   001026  EF95  F008         	goto	l4127
   889   00102A                     u3010:
   890   00102A  506C               	movf	gpio_pin_write_logic@_pin_config^0,w,c
   891   00102C  6ED9               	movwf	fsr2l,c
   892   00102E  6ADA               	clrf	fsr2h,c
   893   001030  50DF               	movf	223,w,c
   894   001032  0B07               	andlw	7
   895   001034  0100               	movlb	0	; () banked
   896   001036  6F8B               	movwf	??_gpio_pin_write_logic& (0+255),b
   897   001038  0E05               	movlw	5
   898   00103A  618B               	cpfslt	??_gpio_pin_write_logic& (0+255),b
   899   00103C  EF22  F008         	goto	u3021
   900   001040  EF24  F008         	goto	u3020
   901   001044                     u3021:
   902   001044  EF95  F008         	goto	l4127
   903   001048                     u3020:
   904   001048                     
   905                           ; BSR set to: 0
   906   001048  506C               	movf	gpio_pin_write_logic@_pin_config^0,w,c
   907   00104A  6ED9               	movwf	fsr2l,c
   908   00104C  6ADA               	clrf	fsr2h,c
   909   00104E  30DF               	rrcf	223,w,c
   910   001050  32E8               	rrcf	wreg,f,c
   911   001052  32E8               	rrcf	wreg,f,c
   912   001054  0B07               	andlw	7
   913   001056  6F8B               	movwf	??_gpio_pin_write_logic& (0+255),b
   914   001058  0E08               	movlw	8
   915   00105A  618B               	cpfslt	??_gpio_pin_write_logic& (0+255),b
   916   00105C  EF32  F008         	goto	u3031
   917   001060  EF34  F008         	goto	u3030
   918   001064                     u3031:
   919   001064  EF95  F008         	goto	l4127
   920   001068                     u3030:
   921   001068                     
   922                           ; BSR set to: 0
   923                           ;MCAL_Layer/GPIO/mcal_gpio.c: 87:     {;MCAL_Layer/GPIO/mcal_gpio.c: 88:         if(_pin
      +                          _config->direction == GPIO_DIRECTION_OUTPUT)
   924   001068  506C               	movf	gpio_pin_write_logic@_pin_config^0,w,c
   925   00106A  6ED9               	movwf	fsr2l,c
   926   00106C  6ADA               	clrf	fsr2h,c
   927   00106E  BCDF               	btfsc	indf2,6,c
   928   001070  EF3C  F008         	goto	u3041
   929   001074  EF3E  F008         	goto	u3040
   930   001078                     u3041:
   931   001078  EF95  F008         	goto	l4127
   932   00107C                     u3040:
   933   00107C  EF99  F008         	goto	l4129
   934   001080                     l4123:
   935                           
   936                           ; BSR set to: 0
   937                           ;MCAL_Layer/GPIO/mcal_gpio.c: 93:                     (*lat_registers[_pin_config->port]
      +                           &=~ ((uint8)0x01 << _pin_config->pin));
   938   001080  506C               	movf	gpio_pin_write_logic@_pin_config^0,w,c
   939   001082  6ED9               	movwf	fsr2l,c
   940   001084  6ADA               	clrf	fsr2h,c
   941   001086  30DF               	rrcf	223,w,c
   942   001088  32E8               	rrcf	wreg,f,c
   943   00108A  32E8               	rrcf	wreg,f,c
   944   00108C  0B07               	andlw	7
   945   00108E  6F8B               	movwf	??_gpio_pin_write_logic& (0+255),b
   946   001090  0E01               	movlw	1
   947   001092  6F8C               	movwf	(??_gpio_pin_write_logic+1)& (0+255),b
   948   001094  2B8B               	incf	??_gpio_pin_write_logic& (0+255),f,b
   949   001096  EF4F  F008         	goto	u3054
   950   00109A                     u3055:
   951   00109A  90D8               	bcf	status,0,c
   952   00109C  378C               	rlcf	(??_gpio_pin_write_logic+1)& (0+255),f,b
   953   00109E                     u3054:
   954   00109E  2F8B               	decfsz	??_gpio_pin_write_logic& (0+255),f,b
   955   0010A0  EF4D  F008         	goto	u3055
   956   0010A4  0100               	movlb	0	; () banked
   957   0010A6  518C               	movf	(??_gpio_pin_write_logic+1)& (0+255),w,b
   958   0010A8  0AFF               	xorlw	255
   959   0010AA  6F8D               	movwf	(??_gpio_pin_write_logic+2)& (0+255),b
   960   0010AC  506C               	movf	gpio_pin_write_logic@_pin_config^0,w,c
   961   0010AE  6ED9               	movwf	fsr2l,c
   962   0010B0  6ADA               	clrf	fsr2h,c
   963   0010B2  50DF               	movf	223,w,c
   964   0010B4  0B07               	andlw	7
   965   0010B6  0D02               	mullw	2
   966   0010B8  50F3               	movf	243,w,c
   967   0010BA  0F0B               	addlw	low _lat_registers
   968   0010BC  6ED9               	movwf	fsr2l,c
   969   0010BE  6ADA               	clrf	fsr2h,c
   970   0010C0  CFDE F08E          	movff	postinc2,??_gpio_pin_write_logic+3
   971   0010C4  CFDD F08F          	movff	postdec2,??_gpio_pin_write_logic+4
   972   0010C8  C08E  FFD9         	movff	??_gpio_pin_write_logic+3,fsr2l
   973   0010CC  C08F  FFDA         	movff	??_gpio_pin_write_logic+4,fsr2h
   974   0010D0  518D               	movf	(??_gpio_pin_write_logic+2)& (0+255),w,b
   975   0010D2  16DF               	andwf	indf2,f,c
   976                           
   977                           ;MCAL_Layer/GPIO/mcal_gpio.c: 94:                     break;
   978   0010D4  EFAE  F008         	goto	l619
   979   0010D8                     l4125:
   980                           
   981                           ; BSR set to: 0
   982                           ;MCAL_Layer/GPIO/mcal_gpio.c: 96:                     (*lat_registers[_pin_config->port]
      +                           |= ((uint8)0x01 << _pin_config->pin));
   983   0010D8  506C               	movf	gpio_pin_write_logic@_pin_config^0,w,c
   984   0010DA  6ED9               	movwf	fsr2l,c
   985   0010DC  6ADA               	clrf	fsr2h,c
   986   0010DE  30DF               	rrcf	223,w,c
   987   0010E0  32E8               	rrcf	wreg,f,c
   988   0010E2  32E8               	rrcf	wreg,f,c
   989   0010E4  0B07               	andlw	7
   990   0010E6  6F8B               	movwf	??_gpio_pin_write_logic& (0+255),b
   991   0010E8  0E01               	movlw	1
   992   0010EA  6F8C               	movwf	(??_gpio_pin_write_logic+1)& (0+255),b
   993   0010EC  2B8B               	incf	??_gpio_pin_write_logic& (0+255),f,b
   994   0010EE  EF7B  F008         	goto	u3064
   995   0010F2                     u3065:
   996   0010F2  90D8               	bcf	status,0,c
   997   0010F4  378C               	rlcf	(??_gpio_pin_write_logic+1)& (0+255),f,b
   998   0010F6                     u3064:
   999   0010F6  2F8B               	decfsz	??_gpio_pin_write_logic& (0+255),f,b
  1000   0010F8  EF79  F008         	goto	u3065
  1001   0010FC  506C               	movf	gpio_pin_write_logic@_pin_config^0,w,c
  1002   0010FE  6ED9               	movwf	fsr2l,c
  1003   001100  6ADA               	clrf	fsr2h,c
  1004   001102  50DF               	movf	223,w,c
  1005   001104  0B07               	andlw	7
  1006   001106  0D02               	mullw	2
  1007   001108  50F3               	movf	243,w,c
  1008   00110A  0F0B               	addlw	low _lat_registers
  1009   00110C  6ED9               	movwf	fsr2l,c
  1010   00110E  6ADA               	clrf	fsr2h,c
  1011   001110  CFDE F08D          	movff	postinc2,??_gpio_pin_write_logic+2
  1012   001114  CFDD F08E          	movff	postdec2,??_gpio_pin_write_logic+3
  1013   001118  C08D  FFD9         	movff	??_gpio_pin_write_logic+2,fsr2l
  1014   00111C  C08E  FFDA         	movff	??_gpio_pin_write_logic+3,fsr2h
  1015   001120  0100               	movlb	0	; () banked
  1016   001122  518C               	movf	(??_gpio_pin_write_logic+1)& (0+255),w,b
  1017   001124  12DF               	iorwf	indf2,f,c
  1018                           
  1019                           ;MCAL_Layer/GPIO/mcal_gpio.c: 97:                     break;
  1020   001126  EFAE  F008         	goto	l619
  1021   00112A                     l4127:
  1022   00112A  0E00               	movlw	0
  1023   00112C  6E6E               	movwf	gpio_pin_write_logic@ret^0,c
  1024                           
  1025                           ;MCAL_Layer/GPIO/mcal_gpio.c: 99:             }
  1026   00112E  EFAE  F008         	goto	l619
  1027   001132                     l4129:
  1028                           
  1029                           ; BSR set to: 0
  1030   001132  506D               	movf	gpio_pin_write_logic@logic^0,w,c
  1031   001134  6F8B               	movwf	??_gpio_pin_write_logic& (0+255),b
  1032   001136  6B8C               	clrf	(??_gpio_pin_write_logic+1)& (0+255),b
  1033                           
  1034                           ; Switch on 2 bytes has been partitioned into a top level switch of size 1, and 1 sub-sw
      +                          itches
  1035                           ; Switch size 1, requested type "simple"
  1036                           ; Number of cases is 1, Range of values is 0 to 0
  1037                           ; switch strategies available:
  1038                           ; Name         Instructions Cycles
  1039                           ; simple_byte            4     3 (average)
  1040                           ;	Chosen strategy is simple_byte
  1041   001138  518C               	movf	(??_gpio_pin_write_logic+1)& (0+255),w,b
  1042   00113A  0A00               	xorlw	0	; case 0
  1043   00113C  B4D8               	btfsc	status,2,c
  1044   00113E  EFA3  F008         	goto	l4883
  1045   001142  EF95  F008         	goto	l4127
  1046   001146                     l4883:
  1047                           
  1048                           ; BSR set to: 0
  1049                           ; Switch size 1, requested type "simple"
  1050                           ; Number of cases is 2, Range of values is 0 to 1
  1051                           ; switch strategies available:
  1052                           ; Name         Instructions Cycles
  1053                           ; simple_byte            7     4 (average)
  1054                           ;	Chosen strategy is simple_byte
  1055   001146  518B               	movf	??_gpio_pin_write_logic& (0+255),w,b
  1056   001148  0A00               	xorlw	0	; case 0
  1057   00114A  B4D8               	btfsc	status,2,c
  1058   00114C  EF40  F008         	goto	l4123
  1059   001150  0A01               	xorlw	1	; case 1
  1060   001152  B4D8               	btfsc	status,2,c
  1061   001154  EF6C  F008         	goto	l4125
  1062   001158  EF95  F008         	goto	l4127
  1063   00115C                     l619:
  1064                           
  1065                           ;MCAL_Layer/GPIO/mcal_gpio.c: 104:     return ret;
  1066   00115C  506E               	movf	gpio_pin_write_logic@ret^0,w,c
  1067   00115E  0012               	return		;funcret
  1068   001160                     __end_of_gpio_pin_write_logic:
  1069                           	callstack 0
  1070                           
  1071 ;; *************** function _gpio_pin_direction_initialize *****************
  1072 ;; Defined at:
  1073 ;;		line 34 in file "MCAL_Layer/GPIO/mcal_gpio.c"
  1074 ;; Parameters:    Size  Location     Type
  1075 ;;  _pin_config     1   14[COMRAM] PTR const struct .
  1076 ;;		 -> relay_initialize@pin(1), led_initialize@pin(1), 
  1077 ;; Auto vars:     Size  Location     Type
  1078 ;;  ret             1   15[COMRAM] unsigned char 
  1079 ;; Return value:  Size  Location     Type
  1080 ;;                  1    wreg      unsigned char 
  1081 ;; Registers used:
  1082 ;;		wreg, fsr2l, fsr2h, status,2, status,0, prodl, prodh
  1083 ;; Tracked objects:
  1084 ;;		On entry : 0/0
  1085 ;;		On exit  : 0/0
  1086 ;;		Unchanged: 0/0
  1087 ;; Data sizes:     COMRAM   BANK0   BANK1   BANK2   BANK3   BANK4   BANK5   BANK6   BANK7   BANK8   BANK9  BANK10  BANK1
      +1  BANK12  BANK13  BANK14  BANK15
  1088 ;;      Params:         1       0       0       0       0       0       0       0       0       0       0       0       
      +0       0       0       0       0
  1089 ;;      Locals:         1       0       0       0       0       0       0       0       0       0       0       0       
      +0       0       0       0       0
  1090 ;;      Temps:          0       5       0       0       0       0       0       0       0       0       0       0       
      +0       0       0       0       0
  1091 ;;      Totals:         2       5       0       0       0       0       0       0       0       0       0       0       
      +0       0       0       0       0
  1092 ;;Total ram usage:        7 bytes
  1093 ;; Hardware stack levels used: 1
  1094 ;; Hardware stack levels required when called: 2
  1095 ;; This function calls:
  1096 ;;		Nothing
  1097 ;; This function is called by:
  1098 ;;		_gpio_pin_initialize
  1099 ;;		_button_initialize
  1100 ;;		_keypad_initialize
  1101 ;; This function uses a non-reentrant model
  1102 ;;
  1103                           
  1104                           	psect	text6
  1105   001160                     __ptext6:
  1106                           	callstack 0
  1107   001160                     _gpio_pin_direction_initialize:
  1108                           	callstack 24
  1109   001160                     
  1110                           ;MCAL_Layer/GPIO/mcal_gpio.c: 34: Std_ReturnType gpio_pin_direction_initialize(const pin
      +                          _config_t *_pin_config);MCAL_Layer/GPIO/mcal_gpio.c: 35: {;MCAL_Layer/GPIO/mcal_gpio.c: 
      +                          36:     Std_ReturnType ret = (Std_ReturnType)0x01;
  1111   001160  0E01               	movlw	1
  1112   001162  6E6D               	movwf	gpio_pin_direction_initialize@ret^0,c
  1113                           
  1114                           ;MCAL_Layer/GPIO/mcal_gpio.c: 38:     if((_pin_config != ((void*)0)) && (_pin_config->po
      +                          rt <= 5 -1) && (_pin_config->pin <= 8 -1))
  1115   001164  506C               	movf	gpio_pin_direction_initialize@_pin_config^0,w,c
  1116   001166  B4D8               	btfsc	status,2,c
  1117   001168  EFB8  F008         	goto	u2951
  1118   00116C  EFBA  F008         	goto	u2950
  1119   001170                     u2951:
  1120   001170  EF30  F009         	goto	l4105
  1121   001174                     u2950:
  1122   001174  506C               	movf	gpio_pin_direction_initialize@_pin_config^0,w,c
  1123   001176  6ED9               	movwf	fsr2l,c
  1124   001178  6ADA               	clrf	fsr2h,c
  1125   00117A  50DF               	movf	223,w,c
  1126   00117C  0B07               	andlw	7
  1127   00117E  0100               	movlb	0	; () banked
  1128   001180  6F8B               	movwf	??_gpio_pin_direction_initialize& (0+255),b
  1129   001182  0E05               	movlw	5
  1130   001184  618B               	cpfslt	??_gpio_pin_direction_initialize& (0+255),b
  1131   001186  EFC7  F008         	goto	u2961
  1132   00118A  EFC9  F008         	goto	u2960
  1133   00118E                     u2961:
  1134   00118E  EF30  F009         	goto	l4105
  1135   001192                     u2960:
  1136   001192                     
  1137                           ; BSR set to: 0
  1138   001192  506C               	movf	gpio_pin_direction_initialize@_pin_config^0,w,c
  1139   001194  6ED9               	movwf	fsr2l,c
  1140   001196  6ADA               	clrf	fsr2h,c
  1141   001198  30DF               	rrcf	223,w,c
  1142   00119A  32E8               	rrcf	wreg,f,c
  1143   00119C  32E8               	rrcf	wreg,f,c
  1144   00119E  0B07               	andlw	7
  1145   0011A0  6F8B               	movwf	??_gpio_pin_direction_initialize& (0+255),b
  1146   0011A2  0E08               	movlw	8
  1147   0011A4  618B               	cpfslt	??_gpio_pin_direction_initialize& (0+255),b
  1148   0011A6  EFD7  F008         	goto	u2971
  1149   0011AA  EFD9  F008         	goto	u2970
  1150   0011AE                     u2971:
  1151   0011AE  EF30  F009         	goto	l4105
  1152   0011B2                     u2970:
  1153   0011B2  EF34  F009         	goto	l4107
  1154   0011B6                     l4101:
  1155                           
  1156                           ; BSR set to: 0
  1157                           ;MCAL_Layer/GPIO/mcal_gpio.c: 43:                 (*tris_registers[_pin_config->port] &=
      +                          ~ ((uint8)0x01 << _pin_config->pin));
  1158   0011B6  506C               	movf	gpio_pin_direction_initialize@_pin_config^0,w,c
  1159   0011B8  6ED9               	movwf	fsr2l,c
  1160   0011BA  6ADA               	clrf	fsr2h,c
  1161   0011BC  30DF               	rrcf	223,w,c
  1162   0011BE  32E8               	rrcf	wreg,f,c
  1163   0011C0  32E8               	rrcf	wreg,f,c
  1164   0011C2  0B07               	andlw	7
  1165   0011C4  6F8B               	movwf	??_gpio_pin_direction_initialize& (0+255),b
  1166   0011C6  0E01               	movlw	1
  1167   0011C8  6F8C               	movwf	(??_gpio_pin_direction_initialize+1)& (0+255),b
  1168   0011CA  2B8B               	incf	??_gpio_pin_direction_initialize& (0+255),f,b
  1169   0011CC  EFEA  F008         	goto	u2984
  1170   0011D0                     u2985:
  1171   0011D0  90D8               	bcf	status,0,c
  1172   0011D2  378C               	rlcf	(??_gpio_pin_direction_initialize+1)& (0+255),f,b
  1173   0011D4                     u2984:
  1174   0011D4  2F8B               	decfsz	??_gpio_pin_direction_initialize& (0+255),f,b
  1175   0011D6  EFE8  F008         	goto	u2985
  1176   0011DA  0100               	movlb	0	; () banked
  1177   0011DC  518C               	movf	(??_gpio_pin_direction_initialize+1)& (0+255),w,b
  1178   0011DE  0AFF               	xorlw	255
  1179   0011E0  6F8D               	movwf	(??_gpio_pin_direction_initialize+2)& (0+255),b
  1180   0011E2  506C               	movf	gpio_pin_direction_initialize@_pin_config^0,w,c
  1181   0011E4  6ED9               	movwf	fsr2l,c
  1182   0011E6  6ADA               	clrf	fsr2h,c
  1183   0011E8  50DF               	movf	223,w,c
  1184   0011EA  0B07               	andlw	7
  1185   0011EC  0D02               	mullw	2
  1186   0011EE  50F3               	movf	243,w,c
  1187   0011F0  0F15               	addlw	low _tris_registers
  1188   0011F2  6ED9               	movwf	fsr2l,c
  1189   0011F4  6ADA               	clrf	fsr2h,c
  1190   0011F6  CFDE F08E          	movff	postinc2,??_gpio_pin_direction_initialize+3
  1191   0011FA  CFDD F08F          	movff	postdec2,??_gpio_pin_direction_initialize+4
  1192   0011FE  C08E  FFD9         	movff	??_gpio_pin_direction_initialize+3,fsr2l
  1193   001202  C08F  FFDA         	movff	??_gpio_pin_direction_initialize+4,fsr2h
  1194   001206  518D               	movf	(??_gpio_pin_direction_initialize+2)& (0+255),w,b
  1195   001208  16DF               	andwf	indf2,f,c
  1196                           
  1197                           ;MCAL_Layer/GPIO/mcal_gpio.c: 44:                 break;
  1198   00120A  EF4A  F009         	goto	l602
  1199   00120E                     l4103:
  1200                           
  1201                           ; BSR set to: 0
  1202                           ;MCAL_Layer/GPIO/mcal_gpio.c: 46:                 (*tris_registers[_pin_config->port] |=
      +                           ((uint8)0x01 << _pin_config->pin));
  1203   00120E  506C               	movf	gpio_pin_direction_initialize@_pin_config^0,w,c
  1204   001210  6ED9               	movwf	fsr2l,c
  1205   001212  6ADA               	clrf	fsr2h,c
  1206   001214  30DF               	rrcf	223,w,c
  1207   001216  32E8               	rrcf	wreg,f,c
  1208   001218  32E8               	rrcf	wreg,f,c
  1209   00121A  0B07               	andlw	7
  1210   00121C  6F8B               	movwf	??_gpio_pin_direction_initialize& (0+255),b
  1211   00121E  0E01               	movlw	1
  1212   001220  6F8C               	movwf	(??_gpio_pin_direction_initialize+1)& (0+255),b
  1213   001222  2B8B               	incf	??_gpio_pin_direction_initialize& (0+255),f,b
  1214   001224  EF16  F009         	goto	u2994
  1215   001228                     u2995:
  1216   001228  90D8               	bcf	status,0,c
  1217   00122A  378C               	rlcf	(??_gpio_pin_direction_initialize+1)& (0+255),f,b
  1218   00122C                     u2994:
  1219   00122C  2F8B               	decfsz	??_gpio_pin_direction_initialize& (0+255),f,b
  1220   00122E  EF14  F009         	goto	u2995
  1221   001232  506C               	movf	gpio_pin_direction_initialize@_pin_config^0,w,c
  1222   001234  6ED9               	movwf	fsr2l,c
  1223   001236  6ADA               	clrf	fsr2h,c
  1224   001238  50DF               	movf	223,w,c
  1225   00123A  0B07               	andlw	7
  1226   00123C  0D02               	mullw	2
  1227   00123E  50F3               	movf	243,w,c
  1228   001240  0F15               	addlw	low _tris_registers
  1229   001242  6ED9               	movwf	fsr2l,c
  1230   001244  6ADA               	clrf	fsr2h,c
  1231   001246  CFDE F08D          	movff	postinc2,??_gpio_pin_direction_initialize+2
  1232   00124A  CFDD F08E          	movff	postdec2,??_gpio_pin_direction_initialize+3
  1233   00124E  C08D  FFD9         	movff	??_gpio_pin_direction_initialize+2,fsr2l
  1234   001252  C08E  FFDA         	movff	??_gpio_pin_direction_initialize+3,fsr2h
  1235   001256  0100               	movlb	0	; () banked
  1236   001258  518C               	movf	(??_gpio_pin_direction_initialize+1)& (0+255),w,b
  1237   00125A  12DF               	iorwf	indf2,f,c
  1238                           
  1239                           ;MCAL_Layer/GPIO/mcal_gpio.c: 47:                 break;
  1240   00125C  EF4A  F009         	goto	l602
  1241   001260                     l4105:
  1242   001260  0E00               	movlw	0
  1243   001262  6E6D               	movwf	gpio_pin_direction_initialize@ret^0,c
  1244                           
  1245                           ;MCAL_Layer/GPIO/mcal_gpio.c: 49:         }
  1246   001264  EF4A  F009         	goto	l602
  1247   001268                     l4107:
  1248                           
  1249                           ; BSR set to: 0
  1250   001268  506C               	movf	gpio_pin_direction_initialize@_pin_config^0,w,c
  1251   00126A  6ED9               	movwf	fsr2l,c
  1252   00126C  6ADA               	clrf	fsr2h,c
  1253   00126E  BCDF               	btfsc	indf2,6,c
  1254   001270  EF3C  F009         	goto	u3001
  1255   001274  EF3F  F009         	goto	u3000
  1256   001278                     u3001:
  1257   001278  0E01               	movlw	1
  1258   00127A  EF40  F009         	goto	u3006
  1259   00127E                     u3000:
  1260   00127E  0E00               	movlw	0
  1261   001280                     u3006:
  1262                           
  1263                           ; Switch size 1, requested type "simple"
  1264                           ; Number of cases is 2, Range of values is 0 to 1
  1265                           ; switch strategies available:
  1266                           ; Name         Instructions Cycles
  1267                           ; simple_byte            7     4 (average)
  1268                           ;	Chosen strategy is simple_byte
  1269   001280  0A00               	xorlw	0	; case 0
  1270   001282  B4D8               	btfsc	status,2,c
  1271   001284  EFDB  F008         	goto	l4101
  1272   001288  0A01               	xorlw	1	; case 1
  1273   00128A  B4D8               	btfsc	status,2,c
  1274   00128C  EF07  F009         	goto	l4103
  1275   001290  EF30  F009         	goto	l4105
  1276   001294                     l602:
  1277                           
  1278                           ;MCAL_Layer/GPIO/mcal_gpio.c: 53:     return ret;
  1279   001294  506D               	movf	gpio_pin_direction_initialize@ret^0,w,c
  1280   001296  0012               	return		;funcret
  1281   001298                     __end_of_gpio_pin_direction_initialize:
  1282                           	callstack 0
  1283                           
  1284 ;; *************** function _InterruptManager *****************
  1285 ;; Defined at:
  1286 ;;		line 216 in file "MCAL_Layer/Interrupt/mcal_interrupt_manager.c"
  1287 ;; Parameters:    Size  Location     Type
  1288 ;;		None
  1289 ;; Auto vars:     Size  Location     Type
  1290 ;;		None
  1291 ;; Return value:  Size  Location     Type
  1292 ;;                  1    wreg      void 
  1293 ;; Registers used:
  1294 ;;		wreg, fsr0l, fsr0h, fsr1l, fsr1h, fsr1l, fsr1h, fsr2l, fsr2h, bsr, status,2, status,0, pcl, pclath, pclatu, btemp, b
      +temp+1, btemp+2, btemp+3, btemp+4, btemp+5, btemp+6, btemp+7, btemp+8, btemp+9, btemp+10, btemp+11, btemp+12, btemp+13, 
      +btemp+14, btemp+15, btemp+16, btemp+17, btemp+18, btemp+19, btemp+20, btemp+21, btemp+22, btemp+23, btemp+24, btemp+25, 
      +btemp+26, btemp+27, btemp+28, btemp+29, btemp+30, btemp+31, tosl, structret, tblptrl, tblptrh, tblptru, prodl, prodh, cs
      +tack
  1295 ;; Tracked objects:
  1296 ;;		On entry : 0/0
  1297 ;;		On exit  : 0/0
  1298 ;;		Unchanged: 0/0
  1299 ;; Data sizes:     COMRAM   BANK0   BANK1   BANK2   BANK3   BANK4   BANK5   BANK6   BANK7   BANK8   BANK9  BANK10  BANK1
      +1  BANK12  BANK13  BANK14  BANK15
  1300 ;;      Params:         0       0       0       0       0       0       0       0       0       0       0       0       
      +0       0       0       0       0
  1301 ;;      Locals:         0       0       0       0       0       0       0       0       0       0       0       0       
      +0       0       0       0       0
  1302 ;;      Temps:         14       0       0       0       0       0       0       0       0       0       0       0       
      +0       0       0       0       0
  1303 ;;      Totals:        14       0       0       0       0       0       0       0       0       0       0       0       
      +0       0       0       0       0
  1304 ;;Total ram usage:       14 bytes
  1305 ;; Hardware stack levels used: 1
  1306 ;; Hardware stack levels required when called: 1
  1307 ;; This function calls:
  1308 ;;		_EUSART_RX_ISR
  1309 ;;		_EUSART_TX_ISR
  1310 ;;		_I2C_ISR
  1311 ;;		_SPI_ISR
  1312 ;; This function is called by:
  1313 ;;		Interrupt level 2
  1314 ;; This function uses a non-reentrant model
  1315 ;;
  1316                           
  1317                           	psect	intcode
  1318   000000                     __pintcode:
  1319                           	callstack 0
  1320   000000                     _InterruptManager:
  1321                           	callstack 24
  1322                           
  1323                           ;incstack = 0
  1324   000000  8271               	bsf	int$flags,1,c	;set compiler interrupt flag (level 2)
  1325   000002  ED4C  F009         	call	int_func,f	;refresh shadow registers
  1326                           
  1327                           	psect	intcode_body
  1328   001298                     __pintcode_body:
  1329                           	callstack 24
  1330   001298                     int_func:
  1331                           	callstack 24
  1332   001298  0006               	pop		; remove dummy address from shadow register refresh
  1333   00129A  CFFA F05E          	movff	pclath,??_InterruptManager
  1334   00129E  CFFB F05F          	movff	pclatu,??_InterruptManager+1
  1335   0012A2  CFE9 F060          	movff	fsr0l,??_InterruptManager+2
  1336   0012A6  CFEA F061          	movff	fsr0h,??_InterruptManager+3
  1337   0012AA  CFE1 F062          	movff	fsr1l,??_InterruptManager+4
  1338   0012AE  CFE2 F063          	movff	fsr1h,??_InterruptManager+5
  1339   0012B2  CFD9 F064          	movff	fsr2l,??_InterruptManager+6
  1340   0012B6  CFDA F065          	movff	fsr2h,??_InterruptManager+7
  1341   0012BA  CFF3 F066          	movff	prodl,??_InterruptManager+8
  1342   0012BE  CFF4 F067          	movff	prodh,??_InterruptManager+9
  1343   0012C2  CFF6 F068          	movff	tblptrl,??_InterruptManager+10
  1344   0012C6  CFF7 F069          	movff	tblptrh,??_InterruptManager+11
  1345   0012CA  CFF8 F06A          	movff	tblptru,??_InterruptManager+12
  1346   0012CE  CFF5 F06B          	movff	tablat,??_InterruptManager+13
  1347   0012D2                     
  1348                           ;MCAL_Layer/Interrupt/mcal_interrupt_manager.c: 355:     if((1 == PIE1bits.TXIE) && (1 =
      +                          = PIR1bits.TXIF))
  1349   0012D2  A89D               	btfss	157,4,c	;volatile
  1350   0012D4  EF6E  F009         	goto	i2u152_41
  1351   0012D8  EF70  F009         	goto	i2u152_40
  1352   0012DC                     i2u152_41:
  1353   0012DC  EF79  F009         	goto	i2l682
  1354   0012E0                     i2u152_40:
  1355   0012E0  A89E               	btfss	158,4,c	;volatile
  1356   0012E2  EF75  F009         	goto	i2u153_41
  1357   0012E6  EF77  F009         	goto	i2u153_40
  1358   0012EA                     i2u153_41:
  1359   0012EA  EF79  F009         	goto	i2l682
  1360   0012EE                     i2u153_40:
  1361   0012EE                     
  1362                           ;MCAL_Layer/Interrupt/mcal_interrupt_manager.c: 356:     {;MCAL_Layer/Interrupt/mcal_int
      +                          errupt_manager.c: 357:         EUSART_TX_ISR();
  1363   0012EE  EC00  F000         	call	_EUSART_TX_ISR	;wreg free
  1364   0012F2                     i2l682:
  1365                           
  1366                           ;MCAL_Layer/Interrupt/mcal_interrupt_manager.c: 364:     if((1 == PIE1bits.RCIE) && (1 =
      +                          = PIR1bits.RCIF))
  1367   0012F2  AA9D               	btfss	157,5,c	;volatile
  1368   0012F4  EF7E  F009         	goto	i2u154_41
  1369   0012F8  EF80  F009         	goto	i2u154_40
  1370   0012FC                     i2u154_41:
  1371   0012FC  EF89  F009         	goto	i2l684
  1372   001300                     i2u154_40:
  1373   001300  AA9E               	btfss	158,5,c	;volatile
  1374   001302  EF85  F009         	goto	i2u155_41
  1375   001306  EF87  F009         	goto	i2u155_40
  1376   00130A                     i2u155_41:
  1377   00130A  EF89  F009         	goto	i2l684
  1378   00130E                     i2u155_40:
  1379   00130E                     
  1380                           ;MCAL_Layer/Interrupt/mcal_interrupt_manager.c: 365:     {;MCAL_Layer/Interrupt/mcal_int
      +                          errupt_manager.c: 366:         EUSART_RX_ISR();
  1381   00130E  EC00  F000         	call	_EUSART_RX_ISR	;wreg free
  1382   001312                     i2l684:
  1383                           
  1384                           ;MCAL_Layer/Interrupt/mcal_interrupt_manager.c: 373:     if((1 == PIE1bits.SSPIE) && (1 
      +                          == PIR1bits.SSPIF))
  1385   001312  A69D               	btfss	157,3,c	;volatile
  1386   001314  EF8E  F009         	goto	i2u156_41
  1387   001318  EF90  F009         	goto	i2u156_40
  1388   00131C                     i2u156_41:
  1389   00131C  EF99  F009         	goto	i2l686
  1390   001320                     i2u156_40:
  1391   001320  A69E               	btfss	158,3,c	;volatile
  1392   001322  EF95  F009         	goto	i2u157_41
  1393   001326  EF97  F009         	goto	i2u157_40
  1394   00132A                     i2u157_41:
  1395   00132A  EF99  F009         	goto	i2l686
  1396   00132E                     i2u157_40:
  1397   00132E                     
  1398                           ;MCAL_Layer/Interrupt/mcal_interrupt_manager.c: 374:     {;MCAL_Layer/Interrupt/mcal_int
      +                          errupt_manager.c: 375:         SPI_ISR();
  1399   00132E  EC00  F000         	call	_SPI_ISR	;wreg free
  1400   001332                     i2l686:
  1401                           
  1402                           ;MCAL_Layer/Interrupt/mcal_interrupt_manager.c: 382:     if((1 == PIE2bits.BCLIE) && (1 
      +                          == PIR2bits.BCLIF))
  1403   001332  A6A0               	btfss	160,3,c	;volatile
  1404   001334  EF9E  F009         	goto	i2u158_41
  1405   001338  EFA0  F009         	goto	i2u158_40
  1406   00133C                     i2u158_41:
  1407   00133C  EFA9  F009         	goto	i2l689
  1408   001340                     i2u158_40:
  1409   001340  A6A1               	btfss	161,3,c	;volatile
  1410   001342  EFA5  F009         	goto	i2u159_41
  1411   001346  EFA7  F009         	goto	i2u159_40
  1412   00134A                     i2u159_41:
  1413   00134A  EFA9  F009         	goto	i2l689
  1414   00134E                     i2u159_40:
  1415   00134E                     
  1416                           ;MCAL_Layer/Interrupt/mcal_interrupt_manager.c: 383:     {;MCAL_Layer/Interrupt/mcal_int
      +                          errupt_manager.c: 384:         I2C_ISR();
  1417   00134E  EC00  F000         	call	_I2C_ISR	;wreg free
  1418   001352                     i2l689:
  1419   001352  C06B  FFF5         	movff	??_InterruptManager+13,tablat
  1420   001356  C06A  FFF8         	movff	??_InterruptManager+12,tblptru
  1421   00135A  C069  FFF7         	movff	??_InterruptManager+11,tblptrh
  1422   00135E  C068  FFF6         	movff	??_InterruptManager+10,tblptrl
  1423   001362  C067  FFF4         	movff	??_InterruptManager+9,prodh
  1424   001366  C066  FFF3         	movff	??_InterruptManager+8,prodl
  1425   00136A  C065  FFDA         	movff	??_InterruptManager+7,fsr2h
  1426   00136E  C064  FFD9         	movff	??_InterruptManager+6,fsr2l
  1427   001372  C063  FFE2         	movff	??_InterruptManager+5,fsr1h
  1428   001376  C062  FFE1         	movff	??_InterruptManager+4,fsr1l
  1429   00137A  C061  FFEA         	movff	??_InterruptManager+3,fsr0h
  1430   00137E  C060  FFE9         	movff	??_InterruptManager+2,fsr0l
  1431   001382  C05F  FFFB         	movff	??_InterruptManager+1,pclatu
  1432   001386  C05E  FFFA         	movff	??_InterruptManager,pclath
  1433   00138A  9271               	bcf	int$flags,1,c	;clear compiler interrupt flag (level 2)
  1434   00138C  0011               	retfie		f
  1435   00138E                     __end_of_InterruptManager:
  1436                           	callstack 0
  1437                           
  1438                           	psect	rparam
  1439   000000                     
  1440                           	psect	temp
  1441   000071                     btemp:
  1442                           	callstack 0
  1443   000071                     	ds	1
  1444   000000                     int$flags	set	btemp
  1445   000000                     wtemp8	set	btemp+1
  1446   000000                     ttemp5	set	btemp+1
  1447   000000                     ttemp6	set	btemp+4
  1448   000000                     ttemp7	set	btemp+8
  1449                           
  1450                           	psect	config
  1451                           
  1452                           ; Padding undefined space
  1453   300000                     	org	3145728
  1454   300000  FF                 	db	255
  1455                           
  1456                           ;Config register CONFIG1H @ 0x300001
  1457                           ;	Oscillator Selection bits
  1458                           ;	OSC = HS, HS oscillator
  1459                           ;	Fail-Safe Clock Monitor Enable bit
  1460                           ;	FCMEN = OFF, Fail-Safe Clock Monitor disabled
  1461                           ;	Internal/External Oscillator Switchover bit
  1462                           ;	IESO = OFF, Oscillator Switchover mode disabled
  1463   300001                     	org	3145729
  1464   300001  02                 	db	2
  1465                           
  1466                           ;Config register CONFIG2L @ 0x300002
  1467                           ;	Power-up Timer Enable bit
  1468                           ;	PWRT = OFF, PWRT disabled
  1469                           ;	Brown-out Reset Enable bits
  1470                           ;	BOREN = OFF, Brown-out Reset disabled in hardware and software
  1471                           ;	Brown Out Reset Voltage bits
  1472                           ;	BORV = 1, 
  1473   300002                     	org	3145730
  1474   300002  09                 	db	9
  1475                           
  1476                           ;Config register CONFIG2H @ 0x300003
  1477                           ;	Watchdog Timer Enable bit
  1478                           ;	WDT = OFF, WDT disabled (control is placed on the SWDTEN bit)
  1479                           ;	Watchdog Timer Postscale Select bits
  1480                           ;	WDTPS = 32768, 1:32768
  1481   300003                     	org	3145731
  1482   300003  1E                 	db	30
  1483                           
  1484                           ; Padding undefined space
  1485   300004                     	org	3145732
  1486   300004  FF                 	db	255
  1487                           
  1488                           ;Config register CONFIG3H @ 0x300005
  1489                           ;	CCP2 MUX bit
  1490                           ;	CCP2MX = PORTC, CCP2 input/output is multiplexed with RC1
  1491                           ;	PORTB A/D Enable bit
  1492                           ;	PBADEN = OFF, PORTB<4:0> pins are configured as digital I/O on Reset
  1493                           ;	Low-Power Timer1 Oscillator Enable bit
  1494                           ;	LPT1OSC = OFF, Timer1 configured for higher power operation
  1495                           ;	MCLR Pin Enable bit
  1496                           ;	MCLRE = ON, MCLR pin enabled; RE3 input pin disabled
  1497   300005                     	org	3145733
  1498   300005  81                 	db	129
  1499                           
  1500                           ;Config register CONFIG4L @ 0x300006
  1501                           ;	Stack Full/Underflow Reset Enable bit
  1502                           ;	STVREN = ON, Stack full/underflow will cause Reset
  1503                           ;	Single-Supply ICSP Enable bit
  1504                           ;	LVP = OFF, Single-Supply ICSP disabled
  1505                           ;	Extended Instruction Set Enable bit
  1506                           ;	XINST = OFF, Instruction set extension and Indexed Addressing mode disabled (Legacy mo
      +                          de)
  1507                           ;	Background Debugger Enable bit
  1508                           ;	DEBUG = 0x1, unprogrammed default
  1509   300006                     	org	3145734
  1510   300006  81                 	db	129
  1511                           
  1512                           ; Padding undefined space
  1513   300007                     	org	3145735
  1514   300007  FF                 	db	255
  1515                           
  1516                           ;Config register CONFIG5L @ 0x300008
  1517                           ;	Code Protection bit
  1518                           ;	CP0 = OFF, Block 0 (000800-003FFFh) not code-protected
  1519                           ;	Code Protection bit
  1520                           ;	CP1 = OFF, Block 1 (004000-007FFFh) not code-protected
  1521                           ;	Code Protection bit
  1522                           ;	CP2 = OFF, Block 2 (008000-00BFFFh) not code-protected
  1523                           ;	Code Protection bit
  1524                           ;	CP3 = OFF, Block 3 (00C000-00FFFFh) not code-protected
  1525   300008                     	org	3145736
  1526   300008  0F                 	db	15
  1527                           
  1528                           ;Config register CONFIG5H @ 0x300009
  1529                           ;	Boot Block Code Protection bit
  1530                           ;	CPB = OFF, Boot block (000000-0007FFh) not code-protected
  1531                           ;	Data EEPROM Code Protection bit
  1532                           ;	CPD = OFF, Data EEPROM not code-protected
  1533   300009                     	org	3145737
  1534   300009  C0                 	db	192
  1535                           
  1536                           ;Config register CONFIG6L @ 0x30000A
  1537                           ;	Write Protection bit
  1538                           ;	WRT0 = OFF, Block 0 (000800-003FFFh) not write-protected
  1539                           ;	Write Protection bit
  1540                           ;	WRT1 = OFF, Block 1 (004000-007FFFh) not write-protected
  1541                           ;	Write Protection bit
  1542                           ;	WRT2 = OFF, Block 2 (008000-00BFFFh) not write-protected
  1543                           ;	Write Protection bit
  1544                           ;	WRT3 = OFF, Block 3 (00C000-00FFFFh) not write-protected
  1545   30000A                     	org	3145738
  1546   30000A  0F                 	db	15
  1547                           
  1548                           ;Config register CONFIG6H @ 0x30000B
  1549                           ;	Configuration Register Write Protection bit
  1550                           ;	WRTC = OFF, Configuration registers (300000-3000FFh) not write-protected
  1551                           ;	Boot Block Write Protection bit
  1552                           ;	WRTB = OFF, Boot Block (000000-0007FFh) not write-protected
  1553                           ;	Data EEPROM Write Protection bit
  1554                           ;	WRTD = OFF, Data EEPROM not write-protected
  1555   30000B                     	org	3145739
  1556   30000B  E0                 	db	224
  1557                           
  1558                           ;Config register CONFIG7L @ 0x30000C
  1559                           ;	Table Read Protection bit
  1560                           ;	EBTR0 = OFF, Block 0 (000800-003FFFh) not protected from table reads executed in other
      +                           blocks
  1561                           ;	Table Read Protection bit
  1562                           ;	EBTR1 = OFF, Block 1 (004000-007FFFh) not protected from table reads executed in other
      +                           blocks
  1563                           ;	Table Read Protection bit
  1564                           ;	EBTR2 = OFF, Block 2 (008000-00BFFFh) not protected from table reads executed in other
      +                           blocks
  1565                           ;	Table Read Protection bit
  1566                           ;	EBTR3 = OFF, Block 3 (00C000-00FFFFh) not protected from table reads executed in other
      +                           blocks
  1567   30000C                     	org	3145740
  1568   30000C  0F                 	db	15
  1569                           
  1570                           ;Config register CONFIG7H @ 0x30000D
  1571                           ;	Boot Block Table Read Protection bit
  1572                           ;	EBTRB = OFF, Boot Block (000000-0007FFh) not protected from table reads executed in ot
      +                          her blocks
  1573   30000D                     	org	3145741
  1574   30000D  40                 	db	64
  1575                           tosu	equ	0xFFF
  1576                           tosh	equ	0xFFE
  1577                           tosl	equ	0xFFD
  1578                           stkptr	equ	0xFFC
  1579                           pclatu	equ	0xFFB
  1580                           pclath	equ	0xFFA
  1581                           pcl	equ	0xFF9
  1582                           tblptru	equ	0xFF8
  1583                           tblptrh	equ	0xFF7
  1584                           tblptrl	equ	0xFF6
  1585                           tablat	equ	0xFF5
  1586                           prodh	equ	0xFF4
  1587                           prodl	equ	0xFF3
  1588                           indf0	equ	0xFEF
  1589                           postinc0	equ	0xFEE
  1590                           postdec0	equ	0xFED
  1591                           preinc0	equ	0xFEC
  1592                           plusw0	equ	0xFEB
  1593                           fsr0h	equ	0xFEA
  1594                           fsr0l	equ	0xFE9
  1595                           wreg	equ	0xFE8
  1596                           indf1	equ	0xFE7
  1597                           postinc1	equ	0xFE6
  1598                           postdec1	equ	0xFE5
  1599                           preinc1	equ	0xFE4
  1600                           plusw1	equ	0xFE3
  1601                           fsr1h	equ	0xFE2
  1602                           fsr1l	equ	0xFE1
  1603                           bsr	equ	0xFE0
  1604                           indf2	equ	0xFDF
  1605                           postinc2	equ	0xFDE
  1606                           postdec2	equ	0xFDD
  1607                           preinc2	equ	0xFDC
  1608                           plusw2	equ	0xFDB
  1609                           fsr2h	equ	0xFDA
  1610                           fsr2l	equ	0xFD9
  1611                           status	equ	0xFD8

Data Sizes:
    Strings     3
    Constant    16
    Data        66
    BSS         38
    Persistent  0
    Stack       0

Auto Spaces:
    Space          Size  Autos    Used
    COMRAM          126     19     112
    BANK0           128     11      22
    BANK1           256      0       0
    BANK2           256      0       0
    BANK3           256      0       0
    BANK4           256      0       0
    BANK5           256      0       0
    BANK6           256      0       0
    BANK7           256      0       0
    BANK8           256      0       0
    BANK9           256      0       0
    BANK10          256      0       0
    BANK11          256      0       0
    BANK12          256      0       0
    BANK13          256      0       0
    BANK14          256      0       0
    BANK15          128      0       0

Pointer List with Targets:

    f$.$buffer	PTR unsigned char  size(2) Largest target is 0

    f$.$source	PTR const unsigned char  size(2) Largest target is 0

    gpio_pin_direction_initialize@_pin_config	PTR const struct . size(1) Largest target is 1
		 -> led_initialize@pin(BANK0[1]), relay_initialize@pin(COMRAM[1]), 

    gpio_pin_initialize@_pin_config	PTR const struct . size(1) Largest target is 1
		 -> led_initialize@pin(BANK0[1]), relay_initialize@pin(COMRAM[1]), 

    gpio_pin_write_logic@_pin_config	PTR const struct . size(1) Largest target is 1
		 -> led_initialize@pin(BANK0[1]), led_turn_off@pin(COMRAM[1]), led_turn_on@pin(COMRAM[1]), relay_initialize@pin(COMRAM[1]), 
		 -> relay_turn_off@pin(COMRAM[1]), relay_turn_on@pin(COMRAM[1]), 

    lat_registers	PTR volatile unsigned char [5] size(2) Largest target is 1
		 -> LATA(BITBIGSFRlll[1]), LATB(BITBIGSFRllh[1]), LATC(BITBIGSFRllh[1]), LATD(BITBIGSFRllh[1]), 
		 -> LATE(BITBIGSFRllh[1]), 

    led_initialize@led	PTR const struct . size(1) Largest target is 1
		 -> led1(COMRAM[1]), 

    port_registers	PTR volatile unsigned char [5] size(2) Largest target is 1
		 -> PORTA(BITBIGSFRlll[1]), PORTB(BITBIGSFRlll[1]), PORTC(BITBIGSFRlll[1]), PORTD(BITBIGSFRlll[1]), 
		 -> PORTE(BITBIGSFRlll[1]), 

    S2548$buffer	PTR unsigned char  size(2) Largest target is 0

    S2548$source	PTR const unsigned char  size(2) Largest target is 0

    sp__memset	PTR void  size(2) Largest target is 0

    tris_registers	PTR volatile unsigned char [5] size(2) Largest target is 1
		 -> TRISA(BITBIGSFRlll[1]), TRISB(ABS[1]), TRISC(ABS[1]), TRISD(ABS[1]), 
		 -> TRISE(ABS[1]), 

    vfprintf$0	PTR struct _IO_FILE size(1) Largest target is 12
		 -> sprintf@f(COMRAM[12]), 

    vfprintf$1	PTR const unsigned char  size(1) Largest target is 3
		 -> STR_1(CODE[3]), STR_2(CODE[3]), STR_3(CODE[3]), 

    vfprintf$2	PTR PTR void  size(1) Largest target is 1
		 -> sprintf@ap(COMRAM[1]), 


Critical Paths under _main in COMRAM

    _led_initialize->_gpio_pin_initialize
    _gpio_pin_initialize->_gpio_pin_write_logic

Critical Paths under _InterruptManager in COMRAM

    None.

Critical Paths under _main in BANK0

    _application_initialize->_ecu_layer_initialize
    _ecu_layer_initialize->_led_initialize
    _led_initialize->_gpio_pin_initialize
    _gpio_pin_initialize->_gpio_pin_direction_initialize
    _gpio_pin_initialize->_gpio_pin_write_logic

Critical Paths under _InterruptManager in BANK0

    None.

Critical Paths under _main in BANK1

    None.

Critical Paths under _InterruptManager in BANK1

    None.

Critical Paths under _main in BANK2

    None.

Critical Paths under _InterruptManager in BANK2

    None.

Critical Paths under _main in BANK3

    None.

Critical Paths under _InterruptManager in BANK3

    None.

Critical Paths under _main in BANK4

    None.

Critical Paths under _InterruptManager in BANK4

    None.

Critical Paths under _main in BANK5

    None.

Critical Paths under _InterruptManager in BANK5

    None.

Critical Paths under _main in BANK6

    None.

Critical Paths under _InterruptManager in BANK6

    None.

Critical Paths under _main in BANK7

    None.

Critical Paths under _InterruptManager in BANK7

    None.

Critical Paths under _main in BANK8

    None.

Critical Paths under _InterruptManager in BANK8

    None.

Critical Paths under _main in BANK9

    None.

Critical Paths under _InterruptManager in BANK9

    None.

Critical Paths under _main in BANK10

    None.

Critical Paths under _InterruptManager in BANK10

    None.

Critical Paths under _main in BANK11

    None.

Critical Paths under _InterruptManager in BANK11

    None.

Critical Paths under _main in BANK12

    None.

Critical Paths under _InterruptManager in BANK12

    None.

Critical Paths under _main in BANK13

    None.

Critical Paths under _InterruptManager in BANK13

    None.

Critical Paths under _main in BANK14

    None.

Critical Paths under _InterruptManager in BANK14

    None.

Critical Paths under _main in BANK15

    None.

Critical Paths under _InterruptManager in BANK15

    None.

Call Graph Tables:

 ---------------------------------------------------------------------------------
 (Depth) Function   	        Calls       Base Space   Used Autos Params    Refs
 ---------------------------------------------------------------------------------
 (0) _main                                                 0     0      0    7983
             _application_initialize
 ---------------------------------------------------------------------------------
 (1) _application_initialize                               1     1      0    7983
               _ecu_layer_initialize
 ---------------------------------------------------------------------------------
 (2) _ecu_layer_initialize                                 1     1      0    7977
                                             10 BANK0      1     1      0
                     _led_initialize
 ---------------------------------------------------------------------------------
 (3) _led_initialize                                       4     3      1    7940
                                              6 BANK0      4     3      1
                _gpio_pin_initialize
 ---------------------------------------------------------------------------------
 (4) _gpio_pin_initialize                                  3     2      1    7589
                                             17 COMRAM     2     1      1
                                              5 BANK0      1     1      0
      _gpio_pin_direction_initialize
               _gpio_pin_write_logic
 ---------------------------------------------------------------------------------
 (5) _gpio_pin_write_logic                                 8     6      2    5362
                                             14 COMRAM     3     1      2
                                              0 BANK0      5     5      0
 ---------------------------------------------------------------------------------
 (5) _gpio_pin_direction_initialize                        7     6      1     558
                                             14 COMRAM     2     1      1
                                              0 BANK0      5     5      0
 ---------------------------------------------------------------------------------
 Estimated maximum stack depth 5
 ---------------------------------------------------------------------------------
 (Depth) Function   	        Calls       Base Space   Used Autos Params    Refs
 ---------------------------------------------------------------------------------
 (6) _InterruptManager                                    14    14      0       0
                                              0 COMRAM    14    14      0
                      _EUSART_RX_ISR
                      _EUSART_TX_ISR
                            _I2C_ISR
                            _SPI_ISR
 ---------------------------------------------------------------------------------
 (7) _SPI_ISR                                              0     0      0       0
 ---------------------------------------------------------------------------------
 (7) _I2C_ISR                                              0     0      0       0
 ---------------------------------------------------------------------------------
 (7) _EUSART_TX_ISR                                        0     0      0       0
 ---------------------------------------------------------------------------------
 (7) _EUSART_RX_ISR                                        0     0      0       0
 ---------------------------------------------------------------------------------
 Estimated maximum stack depth 7
 ---------------------------------------------------------------------------------

 Call Graph Graphs:

 _main (ROOT)
   _application_initialize
     _ecu_layer_initialize
       _led_initialize
         _gpio_pin_initialize
           _gpio_pin_direction_initialize
           _gpio_pin_write_logic

 _InterruptManager (ROOT)
   _EUSART_RX_ISR
   _EUSART_TX_ISR
   _I2C_ISR
   _SPI_ISR

 Address spaces:
Name               Size   Autos  Total    Cost      Usage
BIGRAM             F7F      0       0      49        0.0%
EEDATA             400      0       0       0        0.0%
BITBANK14          100      0       0      33        0.0%
BANK14             100      0       0      34        0.0%
BITBANK13          100      0       0      31        0.0%
BANK13             100      0       0      32        0.0%
BITBANK12          100      0       0      29        0.0%
BANK12             100      0       0      30        0.0%
BITBANK11          100      0       0      27        0.0%
BANK11             100      0       0      28        0.0%
BITBANK10          100      0       0      25        0.0%
BANK10             100      0       0      26        0.0%
BITBANK9           100      0       0      23        0.0%
BANK9              100      0       0      24        0.0%
BITBANK8           100      0       0      21        0.0%
BANK8              100      0       0      22        0.0%
BITBANK7           100      0       0      19        0.0%
BANK7              100      0       0      20        0.0%
BITBANK6           100      0       0      17        0.0%
BANK6              100      0       0      18        0.0%
BITBANK5           100      0       0      15        0.0%
BANK5              100      0       0      16        0.0%
BITBANK4           100      0       0      13        0.0%
BANK4              100      0       0      14        0.0%
BITBANK3           100      0       0      10        0.0%
BANK3              100      0       0      11        0.0%
BITBANK2           100      0       0       8        0.0%
BANK2              100      0       0       9        0.0%
BITBANK1           100      0       0       6        0.0%
BANK1              100      0       0       7        0.0%
BITBANK15           80      0       0      35        0.0%
BANK15              80      0       0      36        0.0%
BITBANK0            80      0       0       4        0.0%
BANK0               80      B      16       5       17.2%
BITCOMRAM           7E      0       0       0        0.0%
COMRAM              7E     13      70       1       88.9%
BITBIGSFRhhlhh      1A      0       0      38        0.0%
BITBIGSFRhhh         D      0       0      37        0.0%
BITBIGSFRlhhlhh      9      0       0      42        0.0%
BITBIGSFRlhhlhl      6      0       0      43        0.0%
BITBIGSFRlhhll       6      0       0      46        0.0%
BITBIGSFRhhllhh      5      0       0      39        0.0%
BITBIGSFRhhllll      5      0       0      41        0.0%
BITBIGSFRlhhlhl      4      0       0      44        0.0%
BITBIGSFRllh         4      0       0      47        0.0%
BITBIGSFRlll         4      0       0      48        0.0%
BITBIGSFRhhlllh      1      0       0      40        0.0%
BITBIGSFRlhhlhl      1      0       0      45        0.0%
BIGSFR               0      0       0     200        0.0%
BITSFR               0      0       0     200        0.0%
SFR                  0      0       0     200        0.0%
STACK                0      0       0       2        0.0%
NULL                 0      0       0       0        0.0%
ABS                  0      0      86      12        0.0%
DATA                 0      0      86       3        0.0%
CODE                 0      0       0       0        0.0%


Microchip Technology PIC18 Macro Assembler V2.46 build 20240104201356 
Symbol Table                                                                                   Sun Sep 22 09:26:56 2024

                      ??_InterruptManager 005E                                       l602 1294  
                                     l603 1296                                       l620 115E  
                                     l287 1482                                       l288 1484  
                                     l369 151E                                       l634 140A  
                                     l619 115C                                       l635 140C  
                                     l912 1524                                       l913 1524  
                                     l918 1530                                       _ret 0041  
                     led_initialize@F3062 005D                     relay_initialize@F3060 0059  
                                     wreg 0FE8                                      l4101 11B6  
                                    l4103 120E                                      l4105 1260  
                                    l4113 1016                                      l4107 1268  
                                    l4123 1080                                      l4115 102A  
                                    l4125 10D8                                      l4117 1048  
                                    l4141 138E                                      l4119 1068  
                                    l4127 112A                                      l4143 139E  
                                    l4129 1132                                      l4145 13BA  
                                    l4161 145C                                      l4153 140E  
                                    l4147 13DA                                      l4163 146E  
                                    l4155 1420                                      l4251 151C  
                                    l4093 1160                                      l4149 1404  
                                    l4157 1424                                      l4165 147E  
                                    l4095 1174                                      l4159 145A  
                                    l4247 150E                                      l4097 1192  
                                    l4249 150E                                      l4345 152C  
                                    l4347 152C                                      l4861 1520  
                                    l4883 1146                                      STR_1 1011  
                                    u3000 127E                                      u3001 1278  
                                    u3010 102A                                      u3011 1026  
                                    u3020 1048                                      u3100 1420  
                                    u3021 1044                                      u3101 141C  
                                    _LATA 0F89                                      u3006 1280  
                                    u3030 1068                                      _LATB 0F8A  
                                    u3031 1064                                      _LATC 0F8B  
                                    u3040 107C                                      _LATD 0F8C  
                                    u3041 1078                                      _LATE 0F8D  
                                    u3115 146A                                      u3117 146E  
                                    u3054 109E                                      u3070 139E  
                                    u3055 109A                                      u3071 139A  
                                    u3064 10F6                                      u3080 13BA  
                                    u3065 10F2                                      u3081 13B6  
                                    u3090 13DA                                      u3091 13D6  
                                    u2950 1174                                      u2951 1170  
                                    u2960 1192                                      u2961 118E  
                                    u2970 11B2                                      u2971 11AE  
                                    u2984 11D4                                      u2985 11D0  
                                    u2994 122C                                      u2995 1228  
                                    _TMR2 0FCC                                      _lcd1 0031  
                                    _lcd2 001F                                      _btn1 003C  
                                    _led1 0042                                      _main 1520  
                                    fsr0h 0FEA                                      fsr1h 0FE2  
                                    fsr2h 0FDA                                      fsr0l 0FE9  
                                    indf2 0FDF                                      fsr1l 0FE1  
                                    fsr2l 0FD9                                      btemp 0071  
                  __end_of_led_initialize 1486                                      prodh 0FF4  
                                    prodl 0FF3                                      start 0006  
                            ___param_bank 0000                      _gpio_pin_write_logic 1016  
                           _EUSART_RX_ISR 0000                             _EUSART_TX_ISR 0000  
                                   ?_main 005E                  ??_application_initialize 0071  
                                   _EEADR 0FA9                                     i2l682 12F2  
                                   i2l684 1312                                     i2l686 1332  
                                   i2l689 1352                       relay_turn_off@F3070 0057  
                                   _TMR0H 0FD7                                     _TMR1H 0FCF  
                                   _TMR0L 0FD6                                     _TMR1L 0FCE  
                                   _TMR3H 0FB3                                     _TMR3L 0FB2  
                                   _PORTA 0F80                                     _PORTB 0F81  
                                   _PORTC 0F82                                     _PORTD 0F83  
                                   _PORTE 0F84                                     _TRISA 0F92  
                                   _TRISB 0F93                                     _TRISC 0F94  
                                   _TRISD 0F95                                     _TRISE 0F96  
                                   pclath 0FFA                                     pclatu 0FFB  
                                   tablat 0FF5                                     ttemp5 0072  
                                   ttemp6 0075                                     ttemp7 0079  
                                   status 0FD8                                     wtemp8 0072  
                         ?_led_initialize 0091            ?_gpio_pin_direction_initialize 006C  
                         __initialization 1486                              __end_of_main 152C  
                   ?_gpio_pin_write_logic 006C                                 ??_I2C_ISR 005E  
                          ?_EUSART_RX_ISR 005E                            ?_EUSART_TX_ISR 005E  
                           _lat_registers 000B                                    ??_main 0071  
                           __activetblptr 0002                          led_turn_on@F3067 005C  
                               ??_SPI_ISR 005E                                    _ADRESH 0FC4  
                                  _EEADRH 0FAA                                    _ADRESL 0FC3  
                                  _EEDATA 0FA8                                    _CCPR1H 0FBF  
                                  _CCPR1L 0FBE                                    _EECON2 0FA7  
                                  i2l2891 130E                                    i2l2883 12D2  
                                  i2l2893 1320                                    i2l2885 12E0  
                                  i2l2895 132E                                    i2l2887 12EE  
                                  i2l2897 1340                                    i2l2889 1300  
                                  i2l2899 134E               convert_uin8_to_string@F3227 0049  
                                  clear_0 14AC                                    clear_1 14B8  
                                  _relay1 0056                                    _motor1 003F  
                                  isa$std 0001                              __pdataCOMRAM 0001  
                            __mediumconst 0000                                    tblptrh 0FF7  
                                  tblptrl 0FF6                                    tblptru 0FF8  
                              __accesstop 0080                   __end_of__initialization 14BE  
                           ___rparam_used 0001                         led_initialize@led 0091  
                       led_initialize@pin 0094                         led_initialize@ret 0093  
                  ??_gpio_pin_write_logic 008B                            __pcstackCOMRAM 005E  
                         ??_EUSART_RX_ISR 005E                           ??_EUSART_TX_ISR 005E  
gpio_pin_direction_initialize@_pin_config 006C                                __pbssBANK0 0080  
                  _application_initialize 152C                         led_turn_off@F3072 005B  
                                 _I2C_ISR 0000              ecu_layer_initialize@ret_init 0095  
                           _keypad_values 1001                      led_turn_toggle@F3077 005A  
                                 _SPI_ISR 0000                          ??_led_initialize 0092  
                          _tris_registers 0015                                   __Hparam 0000  
                                 __Lparam 0000                       _gpio_pin_initialize 138E  
                            __psmallconst 1000                                   __pcinit 1486  
                                 __ramtop 1000                                   __ptext0 1520  
                                 __ptext1 152C                                   __ptext2 150E  
                                 __ptext3 140E                                   __ptext4 138E  
                                 __ptext5 1016                                   __ptext6 1160  
                               _T0CONbits 0FD5                                 _T1CONbits 0FCD  
         ??_gpio_pin_direction_initialize 008B                                 _T2CONbits 0FCA  
                                 _keypad1 0029                                 _T3CONbits 0FB1  
                    ?_gpio_pin_initialize 006F                            __pintcode_body 1298  
                    end_of_initialization 14BE                             __Lmediumconst 0000  
                                 int_func 1298                                   postdec1 0FE5  
                                 postdec2 0FDD                                   postinc0 0FEE  
                                 postinc2 0FDE                          _InterruptManager 0000  
                   ??_gpio_pin_initialize 0070                               _CCP1CONbits 0FBD  
                      relay_turn_on@F3065 0058             convert_uint32_to_string@F3241 0080  
           convert_uint16_to_string@F3234 0043                             __pidataCOMRAM 14CC  
                          _timer0_preload 0051                            _timer1_preload 004F  
                          _timer2_preload 0055                       start_initialization 1486  
                          _timer3_preload 004D     __end_of_gpio_pin_direction_initialize 1298  
           _gpio_pin_direction_initialize 1160                   ?_application_initialize 005E  
                                ?_I2C_ISR 005E              __end_of_ecu_layer_initialize 1520  
                             __pbssCOMRAM 0043                             __pcstackBANK0 008B  
          __end_of_application_initialize 1532                                  ?_SPI_ISR 005E  
                               __pintcode 0000           gpio_pin_write_logic@_pin_config 006C  
               gpio_pin_write_logic@logic 006D                               __smallconst 1000  
                __end_of_InterruptManager 138E                                  _PIE1bits 0F9D  
                                _PIE2bits 0FA0                                  i2u152_40 12E0  
                                i2u152_41 12DC                                  i2u153_40 12EE  
                                i2u153_41 12EA                                  i2u154_40 1300  
                                i2u154_41 12FC                                  i2u155_40 130E  
                                i2u155_41 130A                                  i2u156_40 1320  
                                i2u156_41 131C                                  i2u157_40 132E  
                                i2u157_41 132A                                  i2u158_40 1340  
                                i2u158_41 133C                                  i2u159_40 134E  
                                i2u159_41 134A                                  _PIR1bits 0F9E  
                                _PIR2bits 0FA1          gpio_pin_direction_initialize@ret 006D  
        ccp1_Compare_Mode_Set_Value@F3093 0053                                _ADCON0bits 0FC2  
                              _ADCON1bits 0FC1                                _ADCON2bits 0FC0  
                  gpio_pin_initialize@ret 0090                   gpio_pin_write_logic@ret 006E  
                               copy_data0 149A                      _ecu_layer_initialize 150E  
                              _EECON1bits 0FA6                                  __Hrparam 0000  
                                __Lrparam 0000               __end_of_gpio_pin_initialize 140E  
          gpio_pin_initialize@_pin_config 006F                     ?_ecu_layer_initialize 005E  
                                _segment1 0037                                  isa$xinst 0000  
                                int$flags 0071                     __end_of_keypad_values 1011  
                              _INTCONbits 0FF2              __end_of_gpio_pin_write_logic 1160  
                                intlevel2 0000                            _port_registers 0001  
                  ??_ecu_layer_initialize 0071                         ?_InterruptManager 005E  
                          _led_initialize 140E  
